
uCOS-II.elf:     file format elf32-avr32

Sections:
Idx Name          Size      VMA       LMA       File off  Algn
  0 .reset        00002010  80000000  80000000  00000400  2**2
                  CONTENTS, ALLOC, LOAD, READONLY, CODE
  1 .rela.got     00000000  80002010  80002010  00002410  2**2
                  CONTENTS, ALLOC, LOAD, READONLY, DATA
  2 .text         000080e4  80002010  80002010  00002410  2**2
                  CONTENTS, ALLOC, LOAD, READONLY, CODE
  3 .rodata       00000674  8000a0f4  8000a0f4  0000a4f4  2**2
                  CONTENTS, ALLOC, LOAD, READONLY, DATA
  4 .gcc_except_table 00000b60  8000a770  8000a770  0000ab70  2**4
                  CONTENTS, ALLOC, LOAD, READONLY, CODE
  5 .data         00000504  00000004  8000b2d0  0000b804  2**2
                  CONTENTS, ALLOC, LOAD, DATA
  6 .bss          00004738  00000508  8000b7d4  0000bd08  2**2
                  ALLOC
  7 .stack        00000400  00004c40  8000b7d4  0000c040  2**0
                  ALLOC
  8 .heap         00001400  00005040  8000b7d4  0000c040  2**0
                  ALLOC
  9 .comment      00000030  00000000  00000000  0000bd08  2**0
                  CONTENTS, READONLY
 10 .debug_aranges 00000710  00000000  00000000  0000bd38  2**0
                  CONTENTS, READONLY, DEBUGGING
 11 .debug_pubnames 00000a56  00000000  00000000  0000c448  2**0
                  CONTENTS, READONLY, DEBUGGING
 12 .debug_info   00015325  00000000  00000000  0000ce9e  2**0
                  CONTENTS, READONLY, DEBUGGING
 13 .debug_abbrev 00003c59  00000000  00000000  000221c3  2**0
                  CONTENTS, READONLY, DEBUGGING
 14 .debug_line   00008467  00000000  00000000  00025e1c  2**0
                  CONTENTS, READONLY, DEBUGGING
 15 .debug_frame  000024c8  00000000  00000000  0002e284  2**2
                  CONTENTS, READONLY, DEBUGGING
 16 .debug_str    000021ce  00000000  00000000  0003074c  2**0
                  CONTENTS, READONLY, DEBUGGING
 17 .debug_loc    00007e92  00000000  00000000  0003291a  2**0
                  CONTENTS, READONLY, DEBUGGING
 18 .debug_ranges 00000838  00000000  00000000  0003a7ac  2**0
                  CONTENTS, READONLY, DEBUGGING

Disassembly of section .reset:

80000000 <_start>:
80000000:	48 1f       	lddpc	pc,80000004 <_start+0x4>
80000002:	00 00       	add	r0,r0
80000004:	80 00       	ld.sh	r0,r0[0x0]
80000006:	2b 94       	sub	r4,-71

80000008 <_trampoline>:
80000008:	e0 8f 10 00 	bral	80002008 <program_start>
	...

80002008 <program_start>:
80002008:	48 1f       	lddpc	pc,8000200c <program_start+0x4>
8000200a:	00 00       	add	r0,r0
8000200c:	80 00       	ld.sh	r0,r0[0x0]
8000200e:	2b 94       	sub	r4,-71

Disassembly of section .text:

80002010 <Init_IO_Usager>:
80002010:	d4 01       	pushm	lr
80002012:	e0 6b e1 00 	mov	r11,57600
80002016:	30 1c       	mov	r12,1
80002018:	f0 1f 00 0b 	mcall	80002044 <Init_IO_Usager+0x34>
8000201c:	e0 7b c2 00 	mov	r11,115200
80002020:	30 0c       	mov	r12,0
80002022:	f0 1f 00 09 	mcall	80002044 <Init_IO_Usager+0x34>
80002026:	48 9b       	lddpc	r11,80002048 <Init_IO_Usager+0x38>
80002028:	30 1c       	mov	r12,1
8000202a:	f0 1f 00 09 	mcall	8000204c <Init_IO_Usager+0x3c>
8000202e:	fe 78 3c 00 	mov	r8,-50176
80002032:	70 19       	ld.w	r9,r8[0x4]
80002034:	a5 a9       	sbr	r9,0x4
80002036:	91 19       	st.w	r8[0x4],r9
80002038:	30 49       	mov	r9,4
8000203a:	91 49       	st.w	r8[0x10],r9
8000203c:	30 29       	mov	r9,2
8000203e:	91 49       	st.w	r8[0x10],r9
80002040:	d8 02       	popm	pc
80002042:	00 00       	add	r0,r0
80002044:	80 00       	ld.sh	r0,r0[0x0]
80002046:	26 d4       	sub	r4,109
80002048:	80 00       	ld.sh	r0,r0[0x0]
8000204a:	a0 f4       	st.b	r0[0x7],r4
8000204c:	80 00       	ld.sh	r0,r0[0x0]
8000204e:	29 70       	sub	r0,-105

80002050 <main>:
80002050:	d4 01       	pushm	lr
80002052:	f0 1f 00 2e 	mcall	80002108 <main+0xb8>
80002056:	f0 1f 00 2e 	mcall	8000210c <main+0xbc>
8000205a:	f0 1f 00 2e 	mcall	80002110 <main+0xc0>
8000205e:	f0 1f 00 2e 	mcall	80002114 <main+0xc4>
80002062:	30 19       	mov	r9,1
80002064:	30 0b       	mov	r11,0
80002066:	4a da       	lddpc	r10,80002118 <main+0xc8>
80002068:	4a dc       	lddpc	r12,8000211c <main+0xcc>
8000206a:	f4 ca f8 04 	sub	r10,r10,-2044
8000206e:	f0 1f 00 2d 	mcall	80002120 <main+0xd0>
80002072:	30 29       	mov	r9,2
80002074:	30 0b       	mov	r11,0
80002076:	4a ca       	lddpc	r10,80002124 <main+0xd4>
80002078:	4a cc       	lddpc	r12,80002128 <main+0xd8>
8000207a:	f4 ca f8 04 	sub	r10,r10,-2044
8000207e:	f0 1f 00 29 	mcall	80002120 <main+0xd0>
80002082:	30 39       	mov	r9,3
80002084:	30 0b       	mov	r11,0
80002086:	4a aa       	lddpc	r10,8000212c <main+0xdc>
80002088:	4a ac       	lddpc	r12,80002130 <main+0xe0>
8000208a:	f4 ca f8 04 	sub	r10,r10,-2044
8000208e:	f0 1f 00 25 	mcall	80002120 <main+0xd0>
80002092:	30 49       	mov	r9,4
80002094:	30 0b       	mov	r11,0
80002096:	4a 8a       	lddpc	r10,80002134 <main+0xe4>
80002098:	4a 8c       	lddpc	r12,80002138 <main+0xe8>
8000209a:	f4 ca f8 04 	sub	r10,r10,-2044
8000209e:	f0 1f 00 21 	mcall	80002120 <main+0xd0>
800020a2:	30 59       	mov	r9,5
800020a4:	30 0b       	mov	r11,0
800020a6:	4a 6a       	lddpc	r10,8000213c <main+0xec>
800020a8:	4a 6c       	lddpc	r12,80002140 <main+0xf0>
800020aa:	f4 ca f8 04 	sub	r10,r10,-2044
800020ae:	f0 1f 00 1d 	mcall	80002120 <main+0xd0>
800020b2:	30 69       	mov	r9,6
800020b4:	30 0b       	mov	r11,0
800020b6:	4a 4a       	lddpc	r10,80002144 <main+0xf4>
800020b8:	4a 4c       	lddpc	r12,80002148 <main+0xf8>
800020ba:	f4 ca f8 04 	sub	r10,r10,-2044
800020be:	f0 1f 00 19 	mcall	80002120 <main+0xd0>
800020c2:	30 0c       	mov	r12,0
800020c4:	f0 1f 00 22 	mcall	8000214c <main+0xfc>
800020c8:	4a 28       	lddpc	r8,80002150 <main+0x100>
800020ca:	91 0c       	st.w	r8[0x0],r12
800020cc:	30 0c       	mov	r12,0
800020ce:	f0 1f 00 20 	mcall	8000214c <main+0xfc>
800020d2:	4a 18       	lddpc	r8,80002154 <main+0x104>
800020d4:	91 0c       	st.w	r8[0x0],r12
800020d6:	30 0c       	mov	r12,0
800020d8:	f0 1f 00 1d 	mcall	8000214c <main+0xfc>
800020dc:	49 f8       	lddpc	r8,80002158 <main+0x108>
800020de:	91 0c       	st.w	r8[0x0],r12
800020e0:	30 0c       	mov	r12,0
800020e2:	f0 1f 00 1b 	mcall	8000214c <main+0xfc>
800020e6:	49 e8       	lddpc	r8,8000215c <main+0x10c>
800020e8:	91 0c       	st.w	r8[0x0],r12
800020ea:	30 0c       	mov	r12,0
800020ec:	f0 1f 00 18 	mcall	8000214c <main+0xfc>
800020f0:	49 c8       	lddpc	r8,80002160 <main+0x110>
800020f2:	30 4b       	mov	r11,4
800020f4:	91 0c       	st.w	r8[0x0],r12
800020f6:	49 cc       	lddpc	r12,80002164 <main+0x114>
800020f8:	f0 1f 00 1c 	mcall	80002168 <main+0x118>
800020fc:	49 c8       	lddpc	r8,8000216c <main+0x11c>
800020fe:	91 0c       	st.w	r8[0x0],r12
80002100:	f0 1f 00 1c 	mcall	80002170 <main+0x120>
80002104:	d8 0a       	popm	pc,r12=0
80002106:	00 00       	add	r0,r0
80002108:	80 00       	ld.sh	r0,r0[0x0]
8000210a:	2a 44       	sub	r4,-92
8000210c:	80 00       	ld.sh	r0,r0[0x0]
8000210e:	2c 04       	sub	r4,-64
80002110:	80 00       	ld.sh	r0,r0[0x0]
80002112:	37 64       	mov	r4,118
80002114:	80 00       	ld.sh	r0,r0[0x0]
80002116:	20 10       	sub	r0,1
80002118:	00 00       	add	r0,r0
8000211a:	16 8c       	andn	r12,r11
8000211c:	80 00       	ld.sh	r0,r0[0x0]
8000211e:	23 84       	sub	r4,56
80002120:	80 00       	ld.sh	r0,r0[0x0]
80002122:	40 a8       	lddsp	r8,sp[0x28]
80002124:	00 00       	add	r0,r0
80002126:	26 90       	sub	r0,105
80002128:	80 00       	ld.sh	r0,r0[0x0]
8000212a:	23 14       	sub	r4,49
8000212c:	00 00       	add	r0,r0
8000212e:	0e 88       	andn	r8,r7
80002130:	80 00       	ld.sh	r0,r0[0x0]
80002132:	22 ec       	sub	r12,46
80002134:	00 00       	add	r0,r0
80002136:	06 84       	andn	r4,r3
80002138:	80 00       	ld.sh	r0,r0[0x0]
8000213a:	22 48       	sub	r8,36
8000213c:	00 00       	add	r0,r0
8000213e:	1e 90       	mov	r0,pc
80002140:	80 00       	ld.sh	r0,r0[0x0]
80002142:	22 24       	sub	r4,34
80002144:	00 00       	add	r0,r0
80002146:	2e a4       	sub	r4,-22
80002148:	80 00       	ld.sh	r0,r0[0x0]
8000214a:	21 74       	sub	r4,23
8000214c:	80 00       	ld.sh	r0,r0[0x0]
8000214e:	3d ec       	mov	r12,-34
80002150:	00 00       	add	r0,r0
80002152:	16 88       	andn	r8,r11
80002154:	00 00       	add	r0,r0
80002156:	1e 8c       	andn	r12,pc
80002158:	00 00       	add	r0,r0
8000215a:	06 80       	andn	r0,r3
8000215c:	00 00       	add	r0,r0
8000215e:	36 a4       	mov	r4,106
80002160:	00 00       	add	r0,r0
80002162:	0e 84       	andn	r4,r7
80002164:	00 00       	add	r0,r0
80002166:	2e 94       	sub	r4,-23
80002168:	80 00       	ld.sh	r0,r0[0x0]
8000216a:	3b bc       	mov	r12,-69
8000216c:	00 00       	add	r0,r0
8000216e:	2e 90       	sub	r0,-23
80002170:	80 00       	ld.sh	r0,r0[0x0]
80002172:	36 34       	mov	r4,99

80002174 <Bonus_Thread>:
80002174:	d4 21       	pushm	r4-r7,lr
80002176:	20 2d       	sub	sp,8
80002178:	30 06       	mov	r6,0
8000217a:	e0 6c 01 f4 	mov	r12,500
8000217e:	f0 1f 00 1e 	mcall	800021f4 <Bonus_Thread+0x80>
80002182:	49 eb       	lddpc	r11,800021f8 <Bonus_Thread+0x84>
80002184:	30 0c       	mov	r12,0
80002186:	f0 1f 00 1e 	mcall	800021fc <Bonus_Thread+0x88>
8000218a:	49 eb       	lddpc	r11,80002200 <Bonus_Thread+0x8c>
8000218c:	30 0c       	mov	r12,0
8000218e:	f0 1f 00 1c 	mcall	800021fc <Bonus_Thread+0x88>
80002192:	49 cb       	lddpc	r11,80002200 <Bonus_Thread+0x8c>
80002194:	30 0c       	mov	r12,0
80002196:	f0 1f 00 1a 	mcall	800021fc <Bonus_Thread+0x88>
8000219a:	49 b8       	lddpc	r8,80002204 <Bonus_Thread+0x90>
8000219c:	11 88       	ld.ub	r8,r8[0x0]
8000219e:	1a 97       	mov	r7,sp
800021a0:	49 aa       	lddpc	r10,80002208 <Bonus_Thread+0x94>
800021a2:	1a d8       	st.w	--sp,r8
800021a4:	30 8b       	mov	r11,8
800021a6:	0e 9c       	mov	r12,r7
800021a8:	f0 1f 00 19 	mcall	8000220c <Bonus_Thread+0x98>
800021ac:	30 0c       	mov	r12,0
800021ae:	49 9b       	lddpc	r11,80002210 <Bonus_Thread+0x9c>
800021b0:	f0 1f 00 13 	mcall	800021fc <Bonus_Thread+0x88>
800021b4:	0e 9b       	mov	r11,r7
800021b6:	30 0c       	mov	r12,0
800021b8:	f0 1f 00 11 	mcall	800021fc <Bonus_Thread+0x88>
800021bc:	49 6b       	lddpc	r11,80002214 <Bonus_Thread+0xa0>
800021be:	30 0c       	mov	r12,0
800021c0:	f0 1f 00 0f 	mcall	800021fc <Bonus_Thread+0x88>
800021c4:	49 5b       	lddpc	r11,80002218 <Bonus_Thread+0xa4>
800021c6:	30 0c       	mov	r12,0
800021c8:	f0 1f 00 0d 	mcall	800021fc <Bonus_Thread+0x88>
800021cc:	49 45       	lddpc	r5,8000221c <Bonus_Thread+0xa8>
800021ce:	6a 08       	ld.w	r8,r5[0x0]
800021d0:	48 ea       	lddpc	r10,80002208 <Bonus_Thread+0x94>
800021d2:	1a d8       	st.w	--sp,r8
800021d4:	30 8b       	mov	r11,8
800021d6:	0e 9c       	mov	r12,r7
800021d8:	f0 1f 00 0d 	mcall	8000220c <Bonus_Thread+0x98>
800021dc:	0e 9b       	mov	r11,r7
800021de:	0c 9c       	mov	r12,r6
800021e0:	8b 06       	st.w	r5[0x0],r6
800021e2:	f0 1f 00 07 	mcall	800021fc <Bonus_Thread+0x88>
800021e6:	48 fb       	lddpc	r11,80002220 <Bonus_Thread+0xac>
800021e8:	0c 9c       	mov	r12,r6
800021ea:	f0 1f 00 05 	mcall	800021fc <Bonus_Thread+0x88>
800021ee:	2f ed       	sub	sp,-8
800021f0:	cc 5b       	rjmp	8000217a <Bonus_Thread+0x6>
800021f2:	00 00       	add	r0,r0
800021f4:	80 00       	ld.sh	r0,r0[0x0]
800021f6:	41 4c       	lddsp	r12,sp[0x50]
800021f8:	80 00       	ld.sh	r0,r0[0x0]
800021fa:	a1 30       	mul	r0,r0
800021fc:	80 00       	ld.sh	r0,r0[0x0]
800021fe:	29 70       	sub	r0,-105
80002200:	80 00       	ld.sh	r0,r0[0x0]
80002202:	a1 38       	mul	r8,r0
80002204:	00 00       	add	r0,r0
80002206:	3c 64       	mov	r4,-58
80002208:	80 00       	ld.sh	r0,r0[0x0]
8000220a:	a1 40       	asr	r0,0x0
8000220c:	80 00       	ld.sh	r0,r0[0x0]
8000220e:	44 24       	lddsp	r4,sp[0x108]
80002210:	80 00       	ld.sh	r0,r0[0x0]
80002212:	a1 44       	asr	r4,0x0
80002214:	80 00       	ld.sh	r0,r0[0x0]
80002216:	a1 5c       	asr	r12,0x1
80002218:	80 00       	ld.sh	r0,r0[0x0]
8000221a:	a1 64       	lsl	r4,0x0
8000221c:	00 00       	add	r0,r0
8000221e:	3c 54       	mov	r4,-59
80002220:	80 00       	ld.sh	r0,r0[0x0]
80002222:	a1 60       	lsl	r0,0x0

80002224 <Alarm_msgQ>:
80002224:	d4 01       	pushm	lr
80002226:	48 68       	lddpc	r8,8000223c <Alarm_msgQ+0x18>
80002228:	30 0a       	mov	r10,0
8000222a:	70 0c       	ld.w	r12,r8[0x0]
8000222c:	14 9b       	mov	r11,r10
8000222e:	f0 1f 00 05 	mcall	80002240 <Alarm_msgQ+0x1c>
80002232:	30 3c       	mov	r12,3
80002234:	f0 1f 00 04 	mcall	80002244 <Alarm_msgQ+0x20>
80002238:	d8 02       	popm	pc
8000223a:	00 00       	add	r0,r0
8000223c:	00 00       	add	r0,r0
8000223e:	06 80       	andn	r0,r3
80002240:	80 00       	ld.sh	r0,r0[0x0]
80002242:	3d 10       	mov	r0,-47
80002244:	80 00       	ld.sh	r0,r0[0x0]
80002246:	29 04       	sub	r4,-112

80002248 <ADC_Cmd>:
80002248:	d4 31       	pushm	r0-r7,lr
8000224a:	4a 16       	lddpc	r6,800022cc <ADC_Cmd+0x84>
8000224c:	30 31       	mov	r1,3
8000224e:	4a 10       	lddpc	r0,800022d0 <ADC_Cmd+0x88>
80002250:	4a 12       	lddpc	r2,800022d4 <ADC_Cmd+0x8c>
80002252:	30 14       	mov	r4,1
80002254:	fe 77 3c 00 	mov	r7,-50176
80002258:	4a 05       	lddpc	r5,800022d8 <ADC_Cmd+0x90>
8000225a:	6c 08       	ld.w	r8,r6[0x0]
8000225c:	90 48       	ld.sh	r8,r8[0x8]
8000225e:	e2 08 19 00 	cp.h	r8,r1
80002262:	e0 88 00 05 	brls	8000226c <ADC_Cmd+0x24>
80002266:	60 0c       	ld.w	r12,r0[0x0]
80002268:	f0 1f 00 1d 	mcall	800022dc <ADC_Cmd+0x94>
8000226c:	64 08       	ld.w	r8,r2[0x0]
8000226e:	90 48       	ld.sh	r8,r8[0x8]
80002270:	e8 08 19 00 	cp.h	r8,r4
80002274:	c2 71       	brne	800022c2 <ADC_Cmd+0x7a>
80002276:	30 28       	mov	r8,2
80002278:	8f 08       	st.w	r7[0x0],r8
8000227a:	6e 73       	ld.w	r3,r7[0x1c]
8000227c:	ed b3 00 01 	bld	r3,0x1
80002280:	c1 01       	brne	800022a0 <ADC_Cmd+0x58>
80002282:	6a 0c       	ld.w	r12,r5[0x0]
80002284:	30 08       	mov	r8,0
80002286:	98 49       	ld.sh	r9,r12[0x8]
80002288:	f0 09 19 00 	cp.h	r9,r8
8000228c:	c0 a1       	brne	800022a0 <ADC_Cmd+0x58>
8000228e:	30 1b       	mov	r11,1
80002290:	30 0a       	mov	r10,0
80002292:	f0 1f 00 14 	mcall	800022e0 <ADC_Cmd+0x98>
80002296:	6e db       	ld.w	r11,r7[0x34]
80002298:	6c 0c       	ld.w	r12,r6[0x0]
8000229a:	a1 ab       	sbr	r11,0x0
8000229c:	f0 1f 00 12 	mcall	800022e4 <ADC_Cmd+0x9c>
800022a0:	ed b3 00 02 	bld	r3,0x2
800022a4:	c0 f1       	brne	800022c2 <ADC_Cmd+0x7a>
800022a6:	6a 0c       	ld.w	r12,r5[0x0]
800022a8:	98 48       	ld.sh	r8,r12[0x8]
800022aa:	e8 08 19 00 	cp.h	r8,r4
800022ae:	c0 a1       	brne	800022c2 <ADC_Cmd+0x7a>
800022b0:	30 0a       	mov	r10,0
800022b2:	14 9b       	mov	r11,r10
800022b4:	f0 1f 00 0b 	mcall	800022e0 <ADC_Cmd+0x98>
800022b8:	6e eb       	ld.w	r11,r7[0x38]
800022ba:	6c 0c       	ld.w	r12,r6[0x0]
800022bc:	a1 cb       	cbr	r11,0x0
800022be:	f0 1f 00 0a 	mcall	800022e4 <ADC_Cmd+0x9c>
800022c2:	30 1c       	mov	r12,1
800022c4:	f0 1f 00 09 	mcall	800022e8 <ADC_Cmd+0xa0>
800022c8:	cc 9b       	rjmp	8000225a <ADC_Cmd+0x12>
800022ca:	00 00       	add	r0,r0
800022cc:	00 00       	add	r0,r0
800022ce:	2e 90       	sub	r0,-23
800022d0:	00 00       	add	r0,r0
800022d2:	06 80       	andn	r0,r3
800022d4:	00 00       	add	r0,r0
800022d6:	16 88       	andn	r8,r11
800022d8:	00 00       	add	r0,r0
800022da:	0e 84       	andn	r4,r7
800022dc:	80 00       	ld.sh	r0,r0[0x0]
800022de:	3c a8       	mov	r8,-54
800022e0:	80 00       	ld.sh	r0,r0[0x0]
800022e2:	3c 5c       	mov	r12,-59
800022e4:	80 00       	ld.sh	r0,r0[0x0]
800022e6:	3a 24       	mov	r4,-94
800022e8:	80 00       	ld.sh	r0,r0[0x0]
800022ea:	41 4c       	lddsp	r12,sp[0x50]

800022ec <UART_SendSample>:
800022ec:	d4 21       	pushm	r4-r7,lr
800022ee:	48 77       	lddpc	r7,80002308 <UART_SendSample+0x1c>
800022f0:	30 0a       	mov	r10,0
800022f2:	6e 0c       	ld.w	r12,r7[0x0]
800022f4:	14 9b       	mov	r11,r10
800022f6:	f0 1f 00 06 	mcall	8000230c <UART_SendSample+0x20>
800022fa:	f7 dc c0 08 	bfextu	r11,r12,0x0,0x8
800022fe:	30 1c       	mov	r12,1
80002300:	f0 1f 00 04 	mcall	80002310 <UART_SendSample+0x24>
80002304:	cf 6b       	rjmp	800022f0 <UART_SendSample+0x4>
80002306:	00 00       	add	r0,r0
80002308:	00 00       	add	r0,r0
8000230a:	2e 90       	sub	r0,-23
8000230c:	80 00       	ld.sh	r0,r0[0x0]
8000230e:	3a b0       	mov	r0,-85
80002310:	80 00       	ld.sh	r0,r0[0x0]
80002312:	27 a4       	sub	r4,122

80002314 <UART_Cmd_RX>:
80002314:	d4 31       	pushm	r0-r7,lr
80002316:	37 33       	mov	r3,115
80002318:	37 84       	mov	r4,120
8000231a:	49 47       	lddpc	r7,80002368 <UART_Cmd_RX+0x54>
8000231c:	49 45       	lddpc	r5,8000236c <UART_Cmd_RX+0x58>
8000231e:	30 16       	mov	r6,1
80002320:	30 1c       	mov	r12,1
80002322:	f0 1f 00 14 	mcall	80002370 <UART_Cmd_RX+0x5c>
80002326:	e6 0c 18 00 	cp.b	r12,r3
8000232a:	c0 f1       	brne	80002348 <UART_Cmd_RX+0x34>
8000232c:	30 0a       	mov	r10,0
8000232e:	30 1b       	mov	r11,1
80002330:	6e 0c       	ld.w	r12,r7[0x0]
80002332:	f0 1f 00 11 	mcall	80002374 <UART_Cmd_RX+0x60>
80002336:	6a 08       	ld.w	r8,r5[0x0]
80002338:	90 48       	ld.sh	r8,r8[0x8]
8000233a:	ec 08 19 00 	cp.h	r8,r6
8000233e:	c0 d1       	brne	80002358 <UART_Cmd_RX+0x44>
80002340:	30 2c       	mov	r12,2
80002342:	f0 1f 00 0e 	mcall	80002378 <UART_Cmd_RX+0x64>
80002346:	c0 c8       	rjmp	8000235e <UART_Cmd_RX+0x4a>
80002348:	e8 0c 18 00 	cp.b	r12,r4
8000234c:	c0 91       	brne	8000235e <UART_Cmd_RX+0x4a>
8000234e:	30 0a       	mov	r10,0
80002350:	6e 0c       	ld.w	r12,r7[0x0]
80002352:	14 9b       	mov	r11,r10
80002354:	f0 1f 00 08 	mcall	80002374 <UART_Cmd_RX+0x60>
80002358:	30 2c       	mov	r12,2
8000235a:	f0 1f 00 09 	mcall	8000237c <UART_Cmd_RX+0x68>
8000235e:	e0 6c 00 c8 	mov	r12,200
80002362:	f0 1f 00 08 	mcall	80002380 <UART_Cmd_RX+0x6c>
80002366:	cd db       	rjmp	80002320 <UART_Cmd_RX+0xc>
80002368:	00 00       	add	r0,r0
8000236a:	16 88       	andn	r8,r11
8000236c:	00 00       	add	r0,r0
8000236e:	36 a4       	mov	r4,106
80002370:	80 00       	ld.sh	r0,r0[0x0]
80002372:	29 b0       	sub	r0,-101
80002374:	80 00       	ld.sh	r0,r0[0x0]
80002376:	3c 5c       	mov	r12,-59
80002378:	80 00       	ld.sh	r0,r0[0x0]
8000237a:	28 2c       	sub	r12,-126
8000237c:	80 00       	ld.sh	r0,r0[0x0]
8000237e:	28 98       	sub	r8,-119
80002380:	80 00       	ld.sh	r0,r0[0x0]
80002382:	41 4c       	lddsp	r12,sp[0x50]

80002384 <LED_flash>:
80002384:	d4 21       	pushm	r4-r7,lr
80002386:	49 25       	lddpc	r5,800023cc <LED_flash+0x48>
80002388:	f0 1f 00 12 	mcall	800023d0 <LED_flash+0x4c>
8000238c:	49 26       	lddpc	r6,800023d4 <LED_flash+0x50>
8000238e:	30 17       	mov	r7,1
80002390:	30 1c       	mov	r12,1
80002392:	f0 1f 00 12 	mcall	800023d8 <LED_flash+0x54>
80002396:	6a 08       	ld.w	r8,r5[0x0]
80002398:	90 49       	ld.sh	r9,r8[0x8]
8000239a:	10 9c       	mov	r12,r8
8000239c:	ee 09 19 00 	cp.h	r9,r7
800023a0:	f9 ba 00 00 	moveq	r10,0
800023a4:	f4 0b 17 00 	moveq	r11,r10
800023a8:	f9 ba 01 00 	movne	r10,0
800023ac:	f9 bb 01 01 	movne	r11,1
800023b0:	f0 1f 00 0b 	mcall	800023dc <LED_flash+0x58>
800023b4:	6c 08       	ld.w	r8,r6[0x0]
800023b6:	90 48       	ld.sh	r8,r8[0x8]
800023b8:	ee 08 19 00 	cp.h	r8,r7
800023bc:	c0 41       	brne	800023c4 <LED_flash+0x40>
800023be:	30 2c       	mov	r12,2
800023c0:	f0 1f 00 06 	mcall	800023d8 <LED_flash+0x54>
800023c4:	36 4c       	mov	r12,100
800023c6:	f0 1f 00 07 	mcall	800023e0 <LED_flash+0x5c>
800023ca:	ce 3b       	rjmp	80002390 <LED_flash+0xc>
800023cc:	00 00       	add	r0,r0
800023ce:	36 a4       	mov	r4,106
800023d0:	80 00       	ld.sh	r0,r0[0x0]
800023d2:	34 34       	mov	r4,67
800023d4:	00 00       	add	r0,r0
800023d6:	16 88       	andn	r8,r11
800023d8:	80 00       	ld.sh	r0,r0[0x0]
800023da:	29 04       	sub	r4,-112
800023dc:	80 00       	ld.sh	r0,r0[0x0]
800023de:	3c 5c       	mov	r12,-59
800023e0:	80 00       	ld.sh	r0,r0[0x0]
800023e2:	41 4c       	lddsp	r12,sp[0x50]
800023e4:	80 00       	ld.sh	r0,r0[0x0]
800023e6:	28 3a       	sub	r10,-125
800023e8:	80 00       	ld.sh	r0,r0[0x0]
800023ea:	28 68       	sub	r8,-122
800023ec:	80 00       	ld.sh	r0,r0[0x0]
800023ee:	28 6c       	sub	r12,-122
800023f0:	80 00       	ld.sh	r0,r0[0x0]
800023f2:	28 70       	sub	r0,-121
800023f4:	80 00       	ld.sh	r0,r0[0x0]
800023f6:	28 74       	sub	r4,-121
800023f8:	80 00       	ld.sh	r0,r0[0x0]
800023fa:	28 78       	sub	r8,-121
800023fc:	80 00       	ld.sh	r0,r0[0x0]
800023fe:	28 7c       	sub	r12,-121
80002400:	80 00       	ld.sh	r0,r0[0x0]
80002402:	28 80       	sub	r0,-120
80002404:	80 00       	ld.sh	r0,r0[0x0]
80002406:	28 88       	sub	r8,-120
80002408:	80 00       	ld.sh	r0,r0[0x0]
8000240a:	28 a6       	sub	r6,-118
8000240c:	80 00       	ld.sh	r0,r0[0x0]
8000240e:	28 d4       	sub	r4,-115
80002410:	80 00       	ld.sh	r0,r0[0x0]
80002412:	28 d8       	sub	r8,-115
80002414:	80 00       	ld.sh	r0,r0[0x0]
80002416:	28 dc       	sub	r12,-115
80002418:	80 00       	ld.sh	r0,r0[0x0]
8000241a:	28 e0       	sub	r0,-114
8000241c:	80 00       	ld.sh	r0,r0[0x0]
8000241e:	28 e4       	sub	r4,-114
80002420:	80 00       	ld.sh	r0,r0[0x0]
80002422:	28 e8       	sub	r8,-114
80002424:	80 00       	ld.sh	r0,r0[0x0]
80002426:	28 ec       	sub	r12,-114
80002428:	80 00       	ld.sh	r0,r0[0x0]
8000242a:	28 f4       	sub	r4,-113
8000242c:	80 00       	ld.sh	r0,r0[0x0]
8000242e:	29 12       	sub	r2,-111
80002430:	80 00       	ld.sh	r0,r0[0x0]
80002432:	29 40       	sub	r0,-108
80002434:	80 00       	ld.sh	r0,r0[0x0]
80002436:	29 44       	sub	r4,-108
80002438:	80 00       	ld.sh	r0,r0[0x0]
8000243a:	29 48       	sub	r8,-108
8000243c:	80 00       	ld.sh	r0,r0[0x0]
8000243e:	29 4c       	sub	r12,-108
80002440:	80 00       	ld.sh	r0,r0[0x0]
80002442:	29 50       	sub	r0,-107
80002444:	80 00       	ld.sh	r0,r0[0x0]
80002446:	29 54       	sub	r4,-107
80002448:	80 00       	ld.sh	r0,r0[0x0]
8000244a:	29 58       	sub	r8,-107
8000244c:	80 00       	ld.sh	r0,r0[0x0]
8000244e:	29 60       	sub	r0,-106

80002450 <BSP_INTC_Handlers>:
80002450:	00 00 00 01 00 00 05 5c 00 00 00 0b 00 00 05 60     .......\.......`
80002460:	00 00 00 0e 00 00 05 8c 00 00 00 0f 00 00 05 c4     ................
80002470:	00 00 00 01 00 00 06 00 00 00 00 01 00 00 06 04     ................
80002480:	00 00 00 01 00 00 06 08 00 00 00 01 00 00 06 0c     ................
80002490:	00 00 00 01 00 00 06 10 00 00 00 01 00 00 06 14     ................
800024a0:	00 00 00 01 00 00 06 18 00 00 00 01 00 00 06 1c     ................
800024b0:	00 00 00 01 00 00 06 20 00 00 00 01 00 00 06 24     ....... .......$
800024c0:	00 00 00 03 00 00 06 28 00 00 00 01 00 00 06 34     .......(.......4
800024d0:	00 00 00 01 00 00 06 38 00 00 00 01 00 00 06 3c     .......8.......<
800024e0:	00 00 00 01 00 00 06 40 00 00 00 00 00 00 00 00     .......@........

800024f0 <BSP_INTC_IntUnhandled>:
800024f0:	c0 08       	rjmp	800024f0 <BSP_INTC_IntUnhandled>
800024f2:	d7 03       	nop

800024f4 <BSP_INTC_IntReg>:
800024f4:	d4 01       	pushm	lr
800024f6:	48 f9       	lddpc	r9,80002530 <BSP_INTC_IntReg+0x3c>
800024f8:	f1 db c0 05 	bfextu	r8,r11,0x0,0x5
800024fc:	a5 9b       	lsr	r11,0x5
800024fe:	f2 0b 03 3e 	ld.w	lr,r9[r11<<0x3]
80002502:	1c 38       	cp.w	r8,lr
80002504:	e0 88 00 03 	brls	8000250a <BSP_INTC_IntReg+0x16>
80002508:	da 0a       	popm	pc,r12=1
8000250a:	f2 0b 00 39 	add	r9,r9,r11<<0x3
8000250e:	72 19       	ld.w	r9,r9[0x4]
80002510:	f2 08 00 28 	add	r8,r9,r8<<0x2
80002514:	f3 da c0 02 	bfextu	r9,r10,0x0,0x2
80002518:	91 0c       	st.w	r8[0x0],r12
8000251a:	48 78       	lddpc	r8,80002534 <BSP_INTC_IntReg+0x40>
8000251c:	f0 09 03 28 	ld.w	r8,r8[r9<<0x2]
80002520:	30 0c       	mov	r12,0
80002522:	f1 ea 11 ea 	or	r10,r8,r10<<0x1e
80002526:	fe 78 08 00 	mov	r8,-63488
8000252a:	f0 0b 09 2a 	st.w	r8[r11<<0x2],r10
8000252e:	d8 02       	popm	pc
80002530:	80 00       	ld.sh	r0,r0[0x0]
80002532:	24 50       	sub	r0,69
80002534:	80 00       	ld.sh	r0,r0[0x0]
80002536:	b1 c0       	cbr	r0,0x10

80002538 <BSP_GPIO_SetFnct>:
80002538:	f3 dc c0 10 	bfextu	r9,r12,0x0,0x10
8000253c:	30 1a       	mov	r10,1
8000253e:	f2 08 16 05 	lsr	r8,r9,0x5
80002542:	a9 68       	lsl	r8,0x8
80002544:	e0 28 f0 00 	sub	r8,61440
80002548:	f4 0b 18 00 	cp.b	r11,r10
8000254c:	c1 00       	breq	8000256c <BSP_GPIO_SetFnct+0x34>
8000254e:	c0 a3       	brcs	80002562 <BSP_GPIO_SetFnct+0x2a>
80002550:	30 2a       	mov	r10,2
80002552:	f4 0b 18 00 	cp.b	r11,r10
80002556:	c1 10       	breq	80002578 <BSP_GPIO_SetFnct+0x40>
80002558:	30 3a       	mov	r10,3
8000255a:	f4 0b 18 00 	cp.b	r11,r10
8000255e:	c1 71       	brne	8000258c <BSP_GPIO_SetFnct+0x54>
80002560:	c1 18       	rjmp	80002582 <BSP_GPIO_SetFnct+0x4a>
80002562:	30 1a       	mov	r10,1
80002564:	f4 09 09 49 	lsl	r9,r10,r9
80002568:	91 69       	st.w	r8[0x18],r9
8000256a:	c0 58       	rjmp	80002574 <BSP_GPIO_SetFnct+0x3c>
8000256c:	30 1a       	mov	r10,1
8000256e:	f4 09 09 49 	lsl	r9,r10,r9
80002572:	91 59       	st.w	r8[0x14],r9
80002574:	91 a9       	st.w	r8[0x28],r9
80002576:	c0 b8       	rjmp	8000258c <BSP_GPIO_SetFnct+0x54>
80002578:	30 1a       	mov	r10,1
8000257a:	f4 09 09 49 	lsl	r9,r10,r9
8000257e:	91 69       	st.w	r8[0x18],r9
80002580:	c0 58       	rjmp	8000258a <BSP_GPIO_SetFnct+0x52>
80002582:	30 1a       	mov	r10,1
80002584:	f4 09 09 49 	lsl	r9,r10,r9
80002588:	91 59       	st.w	r8[0x14],r9
8000258a:	91 99       	st.w	r8[0x24],r9
8000258c:	30 19       	mov	r9,1
8000258e:	f2 0c 09 4c 	lsl	r12,r9,r12
80002592:	91 2c       	st.w	r8[0x8],r12
80002594:	5e fc       	retal	r12

80002596 <BSP_GPIO_PinSet>:
80002596:	5c 7c       	castu.h	r12
80002598:	30 19       	mov	r9,1
8000259a:	f8 08 16 05 	lsr	r8,r12,0x5
8000259e:	f2 0c 09 49 	lsl	r9,r9,r12
800025a2:	a9 68       	lsl	r8,0x8
800025a4:	e0 28 f0 00 	sub	r8,61440
800025a8:	f1 49 00 54 	st.w	r8[84],r9
800025ac:	f1 49 00 44 	st.w	r8[68],r9
800025b0:	91 19       	st.w	r8[0x4],r9
800025b2:	5e fc       	retal	r12

800025b4 <BSP_GPIO_PinClr>:
800025b4:	5c 7c       	castu.h	r12
800025b6:	30 19       	mov	r9,1
800025b8:	f8 08 16 05 	lsr	r8,r12,0x5
800025bc:	f2 0c 09 49 	lsl	r9,r9,r12
800025c0:	a9 68       	lsl	r8,0x8
800025c2:	e0 28 f0 00 	sub	r8,61440
800025c6:	f1 49 00 58 	st.w	r8[88],r9
800025ca:	f1 49 00 44 	st.w	r8[68],r9
800025ce:	91 19       	st.w	r8[0x4],r9
800025d0:	5e fc       	retal	r12

800025d2 <BSP_GPIO_PinTgl>:
800025d2:	5c 7c       	castu.h	r12
800025d4:	30 19       	mov	r9,1
800025d6:	f8 08 16 05 	lsr	r8,r12,0x5
800025da:	f2 0c 09 49 	lsl	r9,r9,r12
800025de:	a9 68       	lsl	r8,0x8
800025e0:	e0 28 f0 00 	sub	r8,61440
800025e4:	f1 49 00 5c 	st.w	r8[92],r9
800025e8:	f1 49 00 44 	st.w	r8[68],r9
800025ec:	91 19       	st.w	r8[0x4],r9
800025ee:	5e fc       	retal	r12

800025f0 <BSP_CPU_ClkFreq>:
800025f0:	fe 78 0c 00 	mov	r8,-62464
800025f4:	70 1c       	ld.w	r12,r8[0x4]
800025f6:	e2 1c 00 80 	andl	r12,0x80,COH
800025fa:	c0 50       	breq	80002604 <BSP_CPU_ClkFreq+0x14>
800025fc:	70 1c       	ld.w	r12,r8[0x4]
800025fe:	f9 dc c0 03 	bfextu	r12,r12,0x0,0x3
80002602:	2f fc       	sub	r12,-1
80002604:	fe 78 0c 00 	mov	r8,-62464
80002608:	70 09       	ld.w	r9,r8[0x0]
8000260a:	f3 d9 c0 02 	bfextu	r9,r9,0x0,0x2
8000260e:	58 19       	cp.w	r9,1
80002610:	c0 90       	breq	80002622 <BSP_CPU_ClkFreq+0x32>
80002612:	58 29       	cp.w	r9,2
80002614:	c0 e0       	breq	80002630 <BSP_CPU_ClkFreq+0x40>
80002616:	58 09       	cp.w	r9,0
80002618:	c0 20       	breq	8000261c <BSP_CPU_ClkFreq+0x2c>
8000261a:	5e fd       	retal	0
8000261c:	e0 78 c2 00 	mov	r8,115200
80002620:	c0 58       	rjmp	8000262a <BSP_CPU_ClkFreq+0x3a>
80002622:	e0 68 1b 00 	mov	r8,6912
80002626:	ea 18 00 b7 	orh	r8,0xb7
8000262a:	f0 0c 08 4c 	asr	r12,r8,r12
8000262e:	5e fc       	retal	r12
80002630:	70 89       	ld.w	r9,r8[0x20]
80002632:	70 8a       	ld.w	r10,r8[0x20]
80002634:	70 8b       	ld.w	r11,r8[0x20]
80002636:	f1 da c1 04 	bfextu	r8,r10,0x8,0x4
8000263a:	f0 0a 15 01 	lsl	r10,r8,0x1
8000263e:	a3 9b       	lsr	r11,0x3
80002640:	f3 d9 c2 04 	bfextu	r9,r9,0x10,0x4
80002644:	ed bb 00 00 	bld	r11,0x0
80002648:	f4 08 17 00 	moveq	r8,r10
8000264c:	2f f9       	sub	r9,-1
8000264e:	e0 6a 1b 00 	mov	r10,6912
80002652:	ea 1a 00 b7 	orh	r10,0xb7
80002656:	b5 39       	mul	r9,r10
80002658:	f2 08 0c 08 	divs	r8,r9,r8
8000265c:	f0 0c 08 4c 	asr	r12,r8,r12
80002660:	5e fc       	retal	r12

80002662 <BSP_PBA_ClkFreq>:
80002662:	fe 78 0c 00 	mov	r8,-62464
80002666:	70 1c       	ld.w	r12,r8[0x4]
80002668:	e6 1c 00 80 	andh	r12,0x80,COH
8000266c:	c0 50       	breq	80002676 <BSP_PBA_ClkFreq+0x14>
8000266e:	70 1c       	ld.w	r12,r8[0x4]
80002670:	f9 dc c2 03 	bfextu	r12,r12,0x10,0x3
80002674:	2f fc       	sub	r12,-1
80002676:	fe 78 0c 00 	mov	r8,-62464
8000267a:	70 09       	ld.w	r9,r8[0x0]
8000267c:	f3 d9 c0 02 	bfextu	r9,r9,0x0,0x2
80002680:	58 19       	cp.w	r9,1
80002682:	c0 90       	breq	80002694 <BSP_PBA_ClkFreq+0x32>
80002684:	58 29       	cp.w	r9,2
80002686:	c0 e0       	breq	800026a2 <BSP_PBA_ClkFreq+0x40>
80002688:	58 09       	cp.w	r9,0
8000268a:	c0 20       	breq	8000268e <BSP_PBA_ClkFreq+0x2c>
8000268c:	5e fd       	retal	0
8000268e:	e0 78 c2 00 	mov	r8,115200
80002692:	c0 58       	rjmp	8000269c <BSP_PBA_ClkFreq+0x3a>
80002694:	e0 68 1b 00 	mov	r8,6912
80002698:	ea 18 00 b7 	orh	r8,0xb7
8000269c:	f0 0c 08 4c 	asr	r12,r8,r12
800026a0:	5e fc       	retal	r12
800026a2:	70 89       	ld.w	r9,r8[0x20]
800026a4:	70 8a       	ld.w	r10,r8[0x20]
800026a6:	70 8b       	ld.w	r11,r8[0x20]
800026a8:	f1 da c1 04 	bfextu	r8,r10,0x8,0x4
800026ac:	f0 0a 15 01 	lsl	r10,r8,0x1
800026b0:	a3 9b       	lsr	r11,0x3
800026b2:	f3 d9 c2 04 	bfextu	r9,r9,0x10,0x4
800026b6:	ed bb 00 00 	bld	r11,0x0
800026ba:	f4 08 17 00 	moveq	r8,r10
800026be:	2f f9       	sub	r9,-1
800026c0:	e0 6a 1b 00 	mov	r10,6912
800026c4:	ea 1a 00 b7 	orh	r10,0xb7
800026c8:	b5 39       	mul	r9,r10
800026ca:	f2 08 0c 08 	divs	r8,r9,r8
800026ce:	f0 0c 08 4c 	asr	r12,r8,r12
800026d2:	5e fc       	retal	r12

800026d4 <BSP_USART_Init>:
800026d4:	d4 21       	pushm	r4-r7,lr
800026d6:	30 18       	mov	r8,1
800026d8:	16 97       	mov	r7,r11
800026da:	f0 0c 18 00 	cp.b	r12,r8
800026de:	c1 60       	breq	8000270a <BSP_USART_Init+0x36>
800026e0:	c0 a3       	brcs	800026f4 <BSP_USART_Init+0x20>
800026e2:	30 28       	mov	r8,2
800026e4:	f0 0c 18 00 	cp.b	r12,r8
800026e8:	c1 c0       	breq	80002720 <BSP_USART_Init+0x4c>
800026ea:	30 38       	mov	r8,3
800026ec:	f0 0c 18 00 	cp.b	r12,r8
800026f0:	c5 51       	brne	8000279a <BSP_USART_Init+0xc6>
800026f2:	c2 28       	rjmp	80002736 <BSP_USART_Init+0x62>
800026f4:	30 0b       	mov	r11,0
800026f6:	16 9c       	mov	r12,r11
800026f8:	f0 1f 00 29 	mcall	8000279c <BSP_USART_Init+0xc8>
800026fc:	30 0b       	mov	r11,0
800026fe:	30 1c       	mov	r12,1
80002700:	fe 76 14 00 	mov	r6,-60416
80002704:	f0 1f 00 26 	mcall	8000279c <BSP_USART_Init+0xc8>
80002708:	c2 18       	rjmp	8000274a <BSP_USART_Init+0x76>
8000270a:	30 0b       	mov	r11,0
8000270c:	30 5c       	mov	r12,5
8000270e:	f0 1f 00 24 	mcall	8000279c <BSP_USART_Init+0xc8>
80002712:	30 0b       	mov	r11,0
80002714:	30 6c       	mov	r12,6
80002716:	fe 76 18 00 	mov	r6,-59392
8000271a:	f0 1f 00 21 	mcall	8000279c <BSP_USART_Init+0xc8>
8000271e:	c1 68       	rjmp	8000274a <BSP_USART_Init+0x76>
80002720:	30 0b       	mov	r11,0
80002722:	33 dc       	mov	r12,61
80002724:	f0 1f 00 1e 	mcall	8000279c <BSP_USART_Init+0xc8>
80002728:	30 0b       	mov	r11,0
8000272a:	33 ec       	mov	r12,62
8000272c:	fe 76 1c 00 	mov	r6,-58368
80002730:	f0 1f 00 1b 	mcall	8000279c <BSP_USART_Init+0xc8>
80002734:	c0 b8       	rjmp	8000274a <BSP_USART_Init+0x76>
80002736:	30 1b       	mov	r11,1
80002738:	32 ac       	mov	r12,42
8000273a:	f0 1f 00 19 	mcall	8000279c <BSP_USART_Init+0xc8>
8000273e:	30 1b       	mov	r11,1
80002740:	32 bc       	mov	r12,43
80002742:	fe 76 20 00 	mov	r6,-57344
80002746:	f0 1f 00 16 	mcall	8000279c <BSP_USART_Init+0xc8>
8000274a:	3f f8       	mov	r8,-1
8000274c:	8d 38       	st.w	r6[0xc],r8
8000274e:	30 08       	mov	r8,0
80002750:	8d 18       	st.w	r6[0x4],r8
80002752:	8d 98       	st.w	r6[0x24],r8
80002754:	8d a8       	st.w	r6[0x28],r8
80002756:	ea 68 61 0c 	mov	r8,680204
8000275a:	8d 08       	st.w	r6[0x0],r8
8000275c:	f0 1f 00 11 	mcall	800027a0 <BSP_USART_Init+0xcc>
80002760:	f8 08 16 04 	lsr	r8,r12,0x4
80002764:	10 37       	cp.w	r7,r8
80002766:	c0 92       	brcc	80002778 <BSP_USART_Init+0xa4>
80002768:	ee 09 15 03 	lsl	r9,r7,0x3
8000276c:	f8 09 0d 08 	divu	r8,r12,r9
80002770:	10 99       	mov	r9,r8
80002772:	6c 18       	ld.w	r8,r6[0x4]
80002774:	b3 b8       	sbr	r8,0x13
80002776:	c0 88       	rjmp	80002786 <BSP_USART_Init+0xb2>
80002778:	ee 09 15 04 	lsl	r9,r7,0x4
8000277c:	f8 09 0d 08 	divu	r8,r12,r9
80002780:	10 99       	mov	r9,r8
80002782:	6c 18       	ld.w	r8,r6[0x4]
80002784:	b3 d8       	cbr	r8,0x13
80002786:	8d 18       	st.w	r6[0x4],r8
80002788:	8d 89       	st.w	r6[0x20],r9
8000278a:	6c 18       	ld.w	r8,r6[0x4]
8000278c:	e8 18 08 c0 	orl	r8,0x8c0
80002790:	8d 18       	st.w	r6[0x4],r8
80002792:	6c 08       	ld.w	r8,r6[0x0]
80002794:	e8 18 00 50 	orl	r8,0x50
80002798:	8d 08       	st.w	r6[0x0],r8
8000279a:	d8 22       	popm	r4-r7,pc
8000279c:	80 00       	ld.sh	r0,r0[0x0]
8000279e:	25 38       	sub	r8,83
800027a0:	80 00       	ld.sh	r0,r0[0x0]
800027a2:	26 62       	sub	r2,102

800027a4 <BSP_USART_ByteWr>:
800027a4:	30 18       	mov	r8,1
800027a6:	f0 0c 18 00 	cp.b	r12,r8
800027aa:	c0 b0       	breq	800027c0 <BSP_USART_ByteWr+0x1c>
800027ac:	c0 d3       	brcs	800027c6 <BSP_USART_ByteWr+0x22>
800027ae:	30 28       	mov	r8,2
800027b0:	f0 0c 18 00 	cp.b	r12,r8
800027b4:	c0 c0       	breq	800027cc <BSP_USART_ByteWr+0x28>
800027b6:	30 38       	mov	r8,3
800027b8:	f0 0c 18 00 	cp.b	r12,r8
800027bc:	5e 1c       	retne	r12
800027be:	c0 a8       	rjmp	800027d2 <BSP_USART_ByteWr+0x2e>
800027c0:	fe 78 18 00 	mov	r8,-59392
800027c4:	c0 98       	rjmp	800027d6 <BSP_USART_ByteWr+0x32>
800027c6:	fe 78 14 00 	mov	r8,-60416
800027ca:	c0 68       	rjmp	800027d6 <BSP_USART_ByteWr+0x32>
800027cc:	fe 78 1c 00 	mov	r8,-58368
800027d0:	c0 38       	rjmp	800027d6 <BSP_USART_ByteWr+0x32>
800027d2:	fe 78 20 00 	mov	r8,-57344
800027d6:	70 59       	ld.w	r9,r8[0x14]
800027d8:	ed b9 00 01 	bld	r9,0x1
800027dc:	cf d1       	brne	800027d6 <BSP_USART_ByteWr+0x32>
800027de:	91 7b       	st.w	r8[0x1c],r11
800027e0:	5e fc       	retal	r12

800027e2 <BSP_USART_StrWr>:
800027e2:	d4 21       	pushm	r4-r7,lr
800027e4:	30 1a       	mov	r10,1
800027e6:	30 26       	mov	r6,2
800027e8:	30 37       	mov	r7,3
800027ea:	c1 d8       	rjmp	80002824 <BSP_USART_StrWr+0x42>
800027ec:	f4 0c 18 00 	cp.b	r12,r10
800027f0:	c0 90       	breq	80002802 <BSP_USART_StrWr+0x20>
800027f2:	c0 b3       	brcs	80002808 <BSP_USART_StrWr+0x26>
800027f4:	ec 0c 18 00 	cp.b	r12,r6
800027f8:	c0 b0       	breq	8000280e <BSP_USART_StrWr+0x2c>
800027fa:	ee 0c 18 00 	cp.b	r12,r7
800027fe:	c1 21       	brne	80002822 <BSP_USART_StrWr+0x40>
80002800:	c0 a8       	rjmp	80002814 <BSP_USART_StrWr+0x32>
80002802:	fe 78 18 00 	mov	r8,-59392
80002806:	c0 98       	rjmp	80002818 <BSP_USART_StrWr+0x36>
80002808:	fe 78 14 00 	mov	r8,-60416
8000280c:	c0 68       	rjmp	80002818 <BSP_USART_StrWr+0x36>
8000280e:	fe 78 1c 00 	mov	r8,-58368
80002812:	c0 38       	rjmp	80002818 <BSP_USART_StrWr+0x36>
80002814:	fe 78 20 00 	mov	r8,-57344
80002818:	70 59       	ld.w	r9,r8[0x14]
8000281a:	ed b9 00 01 	bld	r9,0x1
8000281e:	cf d1       	brne	80002818 <BSP_USART_StrWr+0x36>
80002820:	91 7e       	st.w	r8[0x1c],lr
80002822:	2f fb       	sub	r11,-1
80002824:	17 8e       	ld.ub	lr,r11[0x0]
80002826:	58 0e       	cp.w	lr,0
80002828:	ce 21       	brne	800027ec <BSP_USART_StrWr+0xa>
8000282a:	d8 22       	popm	r4-r7,pc

8000282c <LED_On>:
8000282c:	d4 01       	pushm	lr
8000282e:	58 8c       	cp.w	r12,8
80002830:	e0 8b 00 2f 	brhi	8000288e <LED_On+0x62>
80002834:	49 78       	lddpc	r8,80002890 <LED_On+0x64>
80002836:	f0 0c 03 2f 	ld.w	pc,r8[r12<<0x2]
8000283a:	33 bc       	mov	r12,59
8000283c:	f0 1f 00 16 	mcall	80002894 <LED_On+0x68>
80002840:	33 cc       	mov	r12,60
80002842:	f0 1f 00 15 	mcall	80002894 <LED_On+0x68>
80002846:	33 dc       	mov	r12,61
80002848:	f0 1f 00 13 	mcall	80002894 <LED_On+0x68>
8000284c:	33 ec       	mov	r12,62
8000284e:	f0 1f 00 12 	mcall	80002894 <LED_On+0x68>
80002852:	33 4c       	mov	r12,52
80002854:	f0 1f 00 10 	mcall	80002894 <LED_On+0x68>
80002858:	33 6c       	mov	r12,54
8000285a:	f0 1f 00 0f 	mcall	80002894 <LED_On+0x68>
8000285e:	33 3c       	mov	r12,51
80002860:	f0 1f 00 0d 	mcall	80002894 <LED_On+0x68>
80002864:	33 5c       	mov	r12,53
80002866:	c0 e8       	rjmp	80002882 <LED_On+0x56>
80002868:	33 bc       	mov	r12,59
8000286a:	c0 c8       	rjmp	80002882 <LED_On+0x56>
8000286c:	33 cc       	mov	r12,60
8000286e:	c0 a8       	rjmp	80002882 <LED_On+0x56>
80002870:	33 dc       	mov	r12,61
80002872:	c0 88       	rjmp	80002882 <LED_On+0x56>
80002874:	33 ec       	mov	r12,62
80002876:	c0 68       	rjmp	80002882 <LED_On+0x56>
80002878:	33 4c       	mov	r12,52
8000287a:	c0 48       	rjmp	80002882 <LED_On+0x56>
8000287c:	33 6c       	mov	r12,54
8000287e:	c0 28       	rjmp	80002882 <LED_On+0x56>
80002880:	33 3c       	mov	r12,51
80002882:	f0 1f 00 05 	mcall	80002894 <LED_On+0x68>
80002886:	d8 02       	popm	pc
80002888:	33 5c       	mov	r12,53
8000288a:	f0 1f 00 03 	mcall	80002894 <LED_On+0x68>
8000288e:	d8 02       	popm	pc
80002890:	80 00       	ld.sh	r0,r0[0x0]
80002892:	23 e4       	sub	r4,62
80002894:	80 00       	ld.sh	r0,r0[0x0]
80002896:	25 b4       	sub	r4,91

80002898 <LED_Off>:
80002898:	d4 01       	pushm	lr
8000289a:	58 8c       	cp.w	r12,8
8000289c:	e0 8b 00 2f 	brhi	800028fa <LED_Off+0x62>
800028a0:	49 78       	lddpc	r8,800028fc <LED_Off+0x64>
800028a2:	f0 0c 03 2f 	ld.w	pc,r8[r12<<0x2]
800028a6:	33 bc       	mov	r12,59
800028a8:	f0 1f 00 16 	mcall	80002900 <LED_Off+0x68>
800028ac:	33 cc       	mov	r12,60
800028ae:	f0 1f 00 15 	mcall	80002900 <LED_Off+0x68>
800028b2:	33 dc       	mov	r12,61
800028b4:	f0 1f 00 13 	mcall	80002900 <LED_Off+0x68>
800028b8:	33 ec       	mov	r12,62
800028ba:	f0 1f 00 12 	mcall	80002900 <LED_Off+0x68>
800028be:	33 4c       	mov	r12,52
800028c0:	f0 1f 00 10 	mcall	80002900 <LED_Off+0x68>
800028c4:	33 6c       	mov	r12,54
800028c6:	f0 1f 00 0f 	mcall	80002900 <LED_Off+0x68>
800028ca:	33 3c       	mov	r12,51
800028cc:	f0 1f 00 0d 	mcall	80002900 <LED_Off+0x68>
800028d0:	33 5c       	mov	r12,53
800028d2:	c0 e8       	rjmp	800028ee <LED_Off+0x56>
800028d4:	33 bc       	mov	r12,59
800028d6:	c0 c8       	rjmp	800028ee <LED_Off+0x56>
800028d8:	33 cc       	mov	r12,60
800028da:	c0 a8       	rjmp	800028ee <LED_Off+0x56>
800028dc:	33 dc       	mov	r12,61
800028de:	c0 88       	rjmp	800028ee <LED_Off+0x56>
800028e0:	33 ec       	mov	r12,62
800028e2:	c0 68       	rjmp	800028ee <LED_Off+0x56>
800028e4:	33 4c       	mov	r12,52
800028e6:	c0 48       	rjmp	800028ee <LED_Off+0x56>
800028e8:	33 6c       	mov	r12,54
800028ea:	c0 28       	rjmp	800028ee <LED_Off+0x56>
800028ec:	33 3c       	mov	r12,51
800028ee:	f0 1f 00 05 	mcall	80002900 <LED_Off+0x68>
800028f2:	d8 02       	popm	pc
800028f4:	33 5c       	mov	r12,53
800028f6:	f0 1f 00 03 	mcall	80002900 <LED_Off+0x68>
800028fa:	d8 02       	popm	pc
800028fc:	80 00       	ld.sh	r0,r0[0x0]
800028fe:	24 08       	sub	r8,64
80002900:	80 00       	ld.sh	r0,r0[0x0]
80002902:	25 96       	sub	r6,89

80002904 <LED_Toggle>:
80002904:	d4 01       	pushm	lr
80002906:	58 8c       	cp.w	r12,8
80002908:	e0 8b 00 2f 	brhi	80002966 <LED_Toggle+0x62>
8000290c:	49 78       	lddpc	r8,80002968 <LED_Toggle+0x64>
8000290e:	f0 0c 03 2f 	ld.w	pc,r8[r12<<0x2]
80002912:	33 bc       	mov	r12,59
80002914:	f0 1f 00 16 	mcall	8000296c <LED_Toggle+0x68>
80002918:	33 cc       	mov	r12,60
8000291a:	f0 1f 00 15 	mcall	8000296c <LED_Toggle+0x68>
8000291e:	33 dc       	mov	r12,61
80002920:	f0 1f 00 13 	mcall	8000296c <LED_Toggle+0x68>
80002924:	33 ec       	mov	r12,62
80002926:	f0 1f 00 12 	mcall	8000296c <LED_Toggle+0x68>
8000292a:	33 4c       	mov	r12,52
8000292c:	f0 1f 00 10 	mcall	8000296c <LED_Toggle+0x68>
80002930:	33 6c       	mov	r12,54
80002932:	f0 1f 00 0f 	mcall	8000296c <LED_Toggle+0x68>
80002936:	33 3c       	mov	r12,51
80002938:	f0 1f 00 0d 	mcall	8000296c <LED_Toggle+0x68>
8000293c:	33 5c       	mov	r12,53
8000293e:	c0 e8       	rjmp	8000295a <LED_Toggle+0x56>
80002940:	33 bc       	mov	r12,59
80002942:	c0 c8       	rjmp	8000295a <LED_Toggle+0x56>
80002944:	33 cc       	mov	r12,60
80002946:	c0 a8       	rjmp	8000295a <LED_Toggle+0x56>
80002948:	33 dc       	mov	r12,61
8000294a:	c0 88       	rjmp	8000295a <LED_Toggle+0x56>
8000294c:	33 ec       	mov	r12,62
8000294e:	c0 68       	rjmp	8000295a <LED_Toggle+0x56>
80002950:	33 4c       	mov	r12,52
80002952:	c0 48       	rjmp	8000295a <LED_Toggle+0x56>
80002954:	33 6c       	mov	r12,54
80002956:	c0 28       	rjmp	8000295a <LED_Toggle+0x56>
80002958:	33 3c       	mov	r12,51
8000295a:	f0 1f 00 05 	mcall	8000296c <LED_Toggle+0x68>
8000295e:	d8 02       	popm	pc
80002960:	33 5c       	mov	r12,53
80002962:	f0 1f 00 03 	mcall	8000296c <LED_Toggle+0x68>
80002966:	d8 02       	popm	pc
80002968:	80 00       	ld.sh	r0,r0[0x0]
8000296a:	24 2c       	sub	r12,66
8000296c:	80 00       	ld.sh	r0,r0[0x0]
8000296e:	25 d2       	sub	r2,93

80002970 <BSP_USART_printf>:
80002970:	d4 21       	pushm	r4-r7,lr
80002972:	16 97       	mov	r7,r11
80002974:	18 96       	mov	r6,r12
80002976:	f0 1f 00 0a 	mcall	8000299c <BSP_USART_printf+0x2c>
8000297a:	0e 9a       	mov	r10,r7
8000297c:	18 95       	mov	r5,r12
8000297e:	48 97       	lddpc	r7,800029a0 <BSP_USART_printf+0x30>
80002980:	fa c9 ff ec 	sub	r9,sp,-20
80002984:	35 0b       	mov	r11,80
80002986:	0e 9c       	mov	r12,r7
80002988:	f0 1f 00 07 	mcall	800029a4 <BSP_USART_printf+0x34>
8000298c:	0a 9c       	mov	r12,r5
8000298e:	f0 1f 00 07 	mcall	800029a8 <BSP_USART_printf+0x38>
80002992:	0e 9b       	mov	r11,r7
80002994:	0c 9c       	mov	r12,r6
80002996:	f0 1f 00 06 	mcall	800029ac <BSP_USART_printf+0x3c>
8000299a:	d8 22       	popm	r4-r7,pc
8000299c:	80 00       	ld.sh	r0,r0[0x0]
8000299e:	2b e4       	sub	r4,-66
800029a0:	00 00       	add	r0,r0
800029a2:	05 08       	ld.w	r8,r2++
800029a4:	80 00       	ld.sh	r0,r0[0x0]
800029a6:	67 c4       	ld.w	r4,r3[0x70]
800029a8:	80 00       	ld.sh	r0,r0[0x0]
800029aa:	2b f0       	sub	r0,-65
800029ac:	80 00       	ld.sh	r0,r0[0x0]
800029ae:	27 e2       	sub	r2,126

800029b0 <BSP_USART_ByteRd>:
800029b0:	d4 21       	pushm	r4-r7,lr
800029b2:	30 18       	mov	r8,1
800029b4:	f0 0c 18 00 	cp.b	r12,r8
800029b8:	c0 b0       	breq	800029ce <BSP_USART_ByteRd+0x1e>
800029ba:	c0 d3       	brcs	800029d4 <BSP_USART_ByteRd+0x24>
800029bc:	30 28       	mov	r8,2
800029be:	f0 0c 18 00 	cp.b	r12,r8
800029c2:	c0 c0       	breq	800029da <BSP_USART_ByteRd+0x2a>
800029c4:	30 38       	mov	r8,3
800029c6:	f0 0c 18 00 	cp.b	r12,r8
800029ca:	c0 b0       	breq	800029e0 <BSP_USART_ByteRd+0x30>
800029cc:	d8 2a       	popm	r4-r7,pc,r12=0
800029ce:	fe 77 18 00 	mov	r7,-59392
800029d2:	c0 d8       	rjmp	800029ec <BSP_USART_ByteRd+0x3c>
800029d4:	fe 77 14 00 	mov	r7,-60416
800029d8:	c0 a8       	rjmp	800029ec <BSP_USART_ByteRd+0x3c>
800029da:	fe 77 1c 00 	mov	r7,-58368
800029de:	c0 78       	rjmp	800029ec <BSP_USART_ByteRd+0x3c>
800029e0:	fe 77 20 00 	mov	r7,-57344
800029e4:	c0 48       	rjmp	800029ec <BSP_USART_ByteRd+0x3c>
800029e6:	30 2c       	mov	r12,2
800029e8:	f0 1f 00 05 	mcall	800029fc <BSP_USART_ByteRd+0x4c>
800029ec:	6e 58       	ld.w	r8,r7[0x14]
800029ee:	ed b8 00 00 	bld	r8,0x0
800029f2:	cf a1       	brne	800029e6 <BSP_USART_ByteRd+0x36>
800029f4:	6e 6c       	ld.w	r12,r7[0x18]
800029f6:	5c 5c       	castu.b	r12
800029f8:	d8 22       	popm	r4-r7,pc
800029fa:	00 00       	add	r0,r0
800029fc:	80 00       	ld.sh	r0,r0[0x0]
800029fe:	41 4c       	lddsp	r12,sp[0x50]

80002a00 <BSP_INTC_IntGetHandler>:
80002a00:	d4 21       	pushm	r4-r7,lr
80002a02:	fe 78 08 00 	mov	r8,-63488
80002a06:	f8 0c 11 03 	rsub	r12,r12,3
80002a0a:	a3 6c       	lsl	r12,0x2
80002a0c:	e0 2c f6 00 	sub	r12,62976
80002a10:	78 06       	ld.w	r6,r12[0x0]
80002a12:	ec c9 ff c0 	sub	r9,r6,-64
80002a16:	f0 09 03 27 	ld.w	r7,r8[r9<<0x2]
80002a1a:	0e 9c       	mov	r12,r7
80002a1c:	f0 1f 00 08 	mcall	80002a3c <BSP_INTC_IntGetHandler+0x3c>
80002a20:	58 07       	cp.w	r7,0
80002a22:	c0 31       	brne	80002a28 <BSP_INTC_IntGetHandler+0x28>
80002a24:	0e 9c       	mov	r12,r7
80002a26:	d8 22       	popm	r4-r7,pc
80002a28:	48 68       	lddpc	r8,80002a40 <BSP_INTC_IntGetHandler+0x40>
80002a2a:	f8 0c 11 1f 	rsub	r12,r12,31
80002a2e:	f0 06 00 36 	add	r6,r8,r6<<0x3
80002a32:	6c 18       	ld.w	r8,r6[0x4]
80002a34:	f0 0c 03 2c 	ld.w	r12,r8[r12<<0x2]
80002a38:	d8 22       	popm	r4-r7,pc
80002a3a:	00 00       	add	r0,r0
80002a3c:	80 00       	ld.sh	r0,r0[0x0]
80002a3e:	2c 96       	sub	r6,-55
80002a40:	80 00       	ld.sh	r0,r0[0x0]
80002a42:	24 50       	sub	r0,69

80002a44 <BSP_Init>:
80002a44:	d4 21       	pushm	r4-r7,lr
80002a46:	fe 78 0c 00 	mov	r8,-62464
80002a4a:	e0 69 07 07 	mov	r9,1799
80002a4e:	91 a9       	st.w	r8[0x28],r9
80002a50:	10 9a       	mov	r10,r8
80002a52:	70 09       	ld.w	r9,r8[0x0]
80002a54:	a3 a9       	sbr	r9,0x2
80002a56:	91 09       	st.w	r8[0x0],r9
80002a58:	75 59       	ld.w	r9,r10[0x54]
80002a5a:	fe 78 0c 00 	mov	r8,-62464
80002a5e:	e2 19 00 80 	andl	r9,0x80,COH
80002a62:	cf b0       	breq	80002a58 <BSP_Init+0x14>
80002a64:	70 09       	ld.w	r9,r8[0x0]
80002a66:	e0 19 ff fc 	andl	r9,0xfffc
80002a6a:	a1 a9       	sbr	r9,0x0
80002a6c:	91 09       	st.w	r8[0x0],r9
80002a6e:	e0 69 01 0c 	mov	r9,268
80002a72:	ea 19 10 07 	orh	r9,0x1007
80002a76:	91 89       	st.w	r8[0x20],r9
80002a78:	10 9a       	mov	r10,r8
80002a7a:	e0 69 01 0d 	mov	r9,269
80002a7e:	ea 19 10 07 	orh	r9,0x1007
80002a82:	91 89       	st.w	r8[0x20],r9
80002a84:	75 58       	ld.w	r8,r10[0x54]
80002a86:	fe 77 0c 00 	mov	r7,-62464
80002a8a:	f1 d8 c0 01 	bfextu	r8,r8,0x0,0x1
80002a8e:	cf b0       	breq	80002a84 <BSP_Init+0x40>
80002a90:	6e 88       	ld.w	r8,r7[0x20]
80002a92:	a7 b8       	sbr	r8,0x7
80002a94:	8f 88       	st.w	r7[0x20],r8
80002a96:	30 28       	mov	r8,2
80002a98:	ef 48 00 60 	st.w	r7[96],r8
80002a9c:	30 68       	mov	r8,6
80002a9e:	30 1b       	mov	r11,1
80002aa0:	ef 48 00 60 	st.w	r7[96],r8
80002aa4:	33 3c       	mov	r12,51
80002aa6:	f0 1f 00 24 	mcall	80002b34 <BSP_Init+0xf0>
80002aaa:	fc 18 00 80 	movh	r8,0x80
80002aae:	0e 9a       	mov	r10,r7
80002ab0:	8f 18       	st.w	r7[0x4],r8
80002ab2:	75 58       	ld.w	r8,r10[0x54]
80002ab4:	fe 79 0c 00 	mov	r9,-62464
80002ab8:	e2 18 00 20 	andl	r8,0x20,COH
80002abc:	cf b0       	breq	80002ab2 <BSP_Init+0x6e>
80002abe:	fe 6a 14 00 	mov	r10,-125952
80002ac2:	74 08       	ld.w	r8,r10[0x0]
80002ac4:	a7 a8       	sbr	r8,0x6
80002ac6:	95 08       	st.w	r10[0x0],r8
80002ac8:	72 08       	ld.w	r8,r9[0x0]
80002aca:	e0 18 ff fc 	andl	r8,0xfffc
80002ace:	a1 b8       	sbr	r8,0x1
80002ad0:	30 0c       	mov	r12,0
80002ad2:	93 08       	st.w	r9[0x0],r8
80002ad4:	f0 1f 00 19 	mcall	80002b38 <BSP_Init+0xf4>
80002ad8:	49 98       	lddpc	r8,80002b3c <BSP_Init+0xf8>
80002ada:	49 a9       	lddpc	r9,80002b40 <BSP_Init+0xfc>
80002adc:	70 07       	ld.w	r7,r8[0x0]
80002ade:	49 ac       	lddpc	r12,80002b44 <BSP_Init+0x100>
80002ae0:	30 08       	mov	r8,0
80002ae2:	fe 7b 08 00 	mov	r11,-63488
80002ae6:	c0 e8       	rjmp	80002b02 <BSP_Init+0xbe>
80002ae8:	72 16       	ld.w	r6,r9[0x4]
80002aea:	ec 0a 00 26 	add	r6,r6,r10<<0x2
80002aee:	2f fa       	sub	r10,-1
80002af0:	8d 0c       	st.w	r6[0x0],r12
80002af2:	1c 3a       	cp.w	r10,lr
80002af4:	cf a3       	brcs	80002ae8 <BSP_Init+0xa4>
80002af6:	f6 08 09 27 	st.w	r11[r8<<0x2],r7
80002afa:	2f 89       	sub	r9,-8
80002afc:	2f f8       	sub	r8,-1
80002afe:	59 48       	cp.w	r8,20
80002b00:	c0 40       	breq	80002b08 <BSP_Init+0xc4>
80002b02:	72 0e       	ld.w	lr,r9[0x0]
80002b04:	30 0a       	mov	r10,0
80002b06:	cf 6b       	rjmp	80002af2 <BSP_Init+0xae>
80002b08:	30 3a       	mov	r10,3
80002b0a:	30 0b       	mov	r11,0
80002b0c:	48 fc       	lddpc	r12,80002b48 <BSP_Init+0x104>
80002b0e:	f0 1f 00 10 	mcall	80002b4c <BSP_Init+0x108>
80002b12:	f0 1f 00 10 	mcall	80002b50 <BSP_Init+0x10c>
80002b16:	18 97       	mov	r7,r12
80002b18:	f0 1f 00 0f 	mcall	80002b54 <BSP_Init+0x110>
80002b1c:	e0 68 03 e8 	mov	r8,1000
80002b20:	f8 08 0d 08 	divu	r8,r12,r8
80002b24:	ee 08 00 0c 	add	r12,r7,r8
80002b28:	f9 bc 00 01 	moveq	r12,1
80002b2c:	f0 1f 00 0b 	mcall	80002b58 <BSP_Init+0x114>
80002b30:	d8 22       	popm	r4-r7,pc
80002b32:	00 00       	add	r0,r0
80002b34:	80 00       	ld.sh	r0,r0[0x0]
80002b36:	25 38       	sub	r8,83
80002b38:	80 00       	ld.sh	r0,r0[0x0]
80002b3a:	28 98       	sub	r8,-119
80002b3c:	80 00       	ld.sh	r0,r0[0x0]
80002b3e:	b1 c0       	cbr	r0,0x10
80002b40:	80 00       	ld.sh	r0,r0[0x0]
80002b42:	24 50       	sub	r0,69
80002b44:	80 00       	ld.sh	r0,r0[0x0]
80002b46:	24 f0       	sub	r0,79
80002b48:	80 00       	ld.sh	r0,r0[0x0]
80002b4a:	2b 5c       	sub	r12,-75
80002b4c:	80 00       	ld.sh	r0,r0[0x0]
80002b4e:	24 f4       	sub	r4,79
80002b50:	80 00       	ld.sh	r0,r0[0x0]
80002b52:	2c 7e       	sub	lr,-57
80002b54:	80 00       	ld.sh	r0,r0[0x0]
80002b56:	25 f0       	sub	r0,95
80002b58:	80 00       	ld.sh	r0,r0[0x0]
80002b5a:	2c 90       	sub	r0,-55

80002b5c <BSP_TmrTickISR>:
80002b5c:	d4 21       	pushm	r4-r7,lr
80002b5e:	f0 1f 00 0a 	mcall	80002b84 <BSP_TmrTickISR+0x28>
80002b62:	18 97       	mov	r7,r12
80002b64:	f0 1f 00 09 	mcall	80002b88 <BSP_TmrTickISR+0x2c>
80002b68:	e0 68 03 e8 	mov	r8,1000
80002b6c:	f8 08 0d 08 	divu	r8,r12,r8
80002b70:	ee 08 00 0c 	add	r12,r7,r8
80002b74:	f9 bc 00 01 	moveq	r12,1
80002b78:	f0 1f 00 05 	mcall	80002b8c <BSP_TmrTickISR+0x30>
80002b7c:	f0 1f 00 05 	mcall	80002b90 <BSP_TmrTickISR+0x34>
80002b80:	d8 22       	popm	r4-r7,pc
80002b82:	00 00       	add	r0,r0
80002b84:	80 00       	ld.sh	r0,r0[0x0]
80002b86:	2c 7e       	sub	lr,-57
80002b88:	80 00       	ld.sh	r0,r0[0x0]
80002b8a:	25 f0       	sub	r0,95
80002b8c:	80 00       	ld.sh	r0,r0[0x0]
80002b8e:	2c 90       	sub	r0,-55
80002b90:	80 00       	ld.sh	r0,r0[0x0]
80002b92:	35 54       	mov	r4,85

80002b94 <_stext>:
80002b94:	48 cd       	lddpc	sp,80002bc4 <udata_clear_loop_end+0x2>
80002b96:	48 d0       	lddpc	r0,80002bc8 <udata_clear_loop_end+0x6>
80002b98:	e3 b0 00 01 	mtsr	0x4,r0
80002b9c:	d5 53       	csrf	0x15
80002b9e:	48 c0       	lddpc	r0,80002bcc <udata_clear_loop_end+0xa>
80002ba0:	48 c1       	lddpc	r1,80002bd0 <udata_clear_loop_end+0xe>
80002ba2:	02 30       	cp.w	r0,r1
80002ba4:	c0 62       	brcc	80002bb0 <idata_load_loop_end>
80002ba6:	48 c2       	lddpc	r2,80002bd4 <udata_clear_loop_end+0x12>

80002ba8 <idata_load_loop>:
80002ba8:	a5 05       	ld.d	r4,r2++
80002baa:	a1 24       	st.d	r0++,r4
80002bac:	02 30       	cp.w	r0,r1
80002bae:	cf d3       	brcs	80002ba8 <idata_load_loop>

80002bb0 <idata_load_loop_end>:
80002bb0:	48 a0       	lddpc	r0,80002bd8 <udata_clear_loop_end+0x16>
80002bb2:	48 b1       	lddpc	r1,80002bdc <udata_clear_loop_end+0x1a>
80002bb4:	02 30       	cp.w	r0,r1
80002bb6:	c0 62       	brcc	80002bc2 <udata_clear_loop_end>
80002bb8:	30 02       	mov	r2,0
80002bba:	30 03       	mov	r3,0

80002bbc <udata_clear_loop>:
80002bbc:	a1 22       	st.d	r0++,r2
80002bbe:	02 30       	cp.w	r0,r1
80002bc0:	cf e3       	brcs	80002bbc <udata_clear_loop>

80002bc2 <udata_clear_loop_end>:
80002bc2:	48 8f       	lddpc	pc,80002be0 <udata_clear_loop_end+0x1e>
80002bc4:	00 00       	add	r0,r0
80002bc6:	50 40       	stdsp	sp[0x10],r0
80002bc8:	80 00       	ld.sh	r0,r0[0x0]
80002bca:	b0 00       	st.h	r8[0x0],r0
80002bcc:	00 00       	add	r0,r0
80002bce:	00 04       	add	r4,r0
80002bd0:	00 00       	add	r0,r0
80002bd2:	05 08       	ld.w	r8,r2++
80002bd4:	80 00       	ld.sh	r0,r0[0x0]
80002bd6:	b2 d0       	st.b	r9[0x5],r0
80002bd8:	00 00       	add	r0,r0
80002bda:	05 08       	ld.w	r8,r2++
80002bdc:	00 00       	add	r0,r0
80002bde:	4c 40       	lddpc	r0,80002cec <OSCtxSw+0x50>
80002be0:	80 00       	ld.sh	r0,r0[0x0]
80002be2:	20 50       	sub	r0,5

80002be4 <CPU_SR_Save>:
80002be4:	d1 03       	csrfcz	0x10
80002be6:	5f 3c       	srlo	r12
80002be8:	d3 03       	ssrf	0x10
80002bea:	d7 03       	nop
80002bec:	d7 03       	nop
80002bee:	1c 9f       	mov	pc,lr

80002bf0 <CPU_SR_Restore>:
80002bf0:	d1 01       	pushm	r11
80002bf2:	e1 bb 00 00 	mfsr	r11,0x0
80002bf6:	a1 9c       	lsr	r12,0x1
80002bf8:	ef bb 00 10 	bst	r11,0x10
80002bfc:	e3 bb 00 00 	mtsr	0x0,r11
80002c00:	d1 02       	popm	r11
80002c02:	1c 9f       	mov	pc,lr

80002c04 <CPU_IntDis>:
80002c04:	d3 03       	ssrf	0x10
80002c06:	d7 03       	nop
80002c08:	d7 03       	nop
80002c0a:	1c 9f       	mov	pc,lr

80002c0c <CPU_IntEn>:
80002c0c:	d5 03       	csrf	0x10
80002c0e:	1c 9f       	mov	pc,lr

80002c10 <CPU_ExceptDis>:
80002c10:	d3 53       	ssrf	0x15
80002c12:	1c 9f       	mov	pc,lr

80002c14 <CPU_ExceptEn>:
80002c14:	d5 53       	csrf	0x15
80002c16:	1c 9f       	mov	pc,lr

80002c18 <CPU_Reset>:
80002c18:	e1 b8 00 00 	mfsr	r8,0x0
80002c1c:	f1 d8 c2 c3 	bfextu	r8,r8,0x16,0x3
80002c20:	58 18       	cp.w	r8,1
80002c22:	c0 b1       	brne	80002c38 <CPU_Reset_RETE>
80002c24:	e0 68 00 00 	mov	r8,0
80002c28:	ea 18 80 00 	orh	r8,0x8000
80002c2c:	30 09       	mov	r9,0
80002c2e:	ea 19 00 41 	orh	r9,0x41
80002c32:	eb cd 03 00 	pushm	r8-r9
80002c36:	d6 13       	rets

80002c38 <CPU_Reset_RETE>:
80002c38:	e0 68 08 08 	mov	r8,2056
80002c3c:	ea 18 08 08 	orh	r8,0x808
80002c40:	e0 69 09 09 	mov	r9,2313
80002c44:	ea 19 09 09 	orh	r9,0x909
80002c48:	e0 6a 10 10 	mov	r10,4112
80002c4c:	ea 1a 10 10 	orh	r10,0x1010
80002c50:	e0 6b 11 11 	mov	r11,4369
80002c54:	ea 1b 11 11 	orh	r11,0x1111
80002c58:	30 0c       	mov	r12,0
80002c5a:	ea 1c 00 00 	orh	r12,0x0
80002c5e:	e0 6e 14 14 	mov	lr,5140
80002c62:	ea 1e 14 14 	orh	lr,0x1414
80002c66:	eb cd 5f 00 	pushm	r8-r12,lr
80002c6a:	e0 68 00 00 	mov	r8,0
80002c6e:	ea 18 80 00 	orh	r8,0x8000
80002c72:	30 09       	mov	r9,0
80002c74:	ea 19 00 41 	orh	r9,0x41
80002c78:	eb cd 03 00 	pushm	r8-r9
80002c7c:	d6 03       	rete

80002c7e <CPU_SysReg_Get_Count>:
80002c7e:	e1 bc 00 42 	mfsr	r12,0x108
80002c82:	1c 9f       	mov	pc,lr

80002c84 <CPU_SysReg_Get_Config0>:
80002c84:	e1 bc 00 40 	mfsr	r12,0x100
80002c88:	1c 9f       	mov	pc,lr

80002c8a <CPU_SysReg_Get_Compare>:
80002c8a:	e1 bc 00 43 	mfsr	r12,0x10c
80002c8e:	1c 9f       	mov	pc,lr

80002c90 <CPU_SysReg_Set_Compare>:
80002c90:	e3 bc 00 43 	mtsr	0x10c,r12
80002c94:	1c 9f       	mov	pc,lr

80002c96 <CPU_CntLeadZeros>:
80002c96:	f8 0c 12 00 	clz	r12,r12
80002c9a:	1c 9f       	mov	pc,lr

80002c9c <OSCtxSw>:
80002c9c:	d7 81       	pushm	r10-r12,lr
80002c9e:	fa ea 00 10 	ld.d	r10,sp[16]
80002ca2:	d1 81       	pushm	r10-r11
80002ca4:	fa e9 00 18 	st.d	sp[24],r8
80002ca8:	d0 31       	pushm	r0-r7
80002caa:	e0 68 3e e8 	mov	r8,16104
80002cae:	ea 18 00 00 	orh	r8,0x0
80002cb2:	70 09       	ld.w	r9,r8[0x0]
80002cb4:	93 0d       	st.w	r9[0x0],sp
80002cb6:	e0 a0 00 ae 	rcall	80002e12 <OSTaskSwHook>
80002cba:	e0 6c 3c cc 	mov	r12,15564
80002cbe:	ea 1c 00 00 	orh	r12,0x0
80002cc2:	78 0a       	ld.w	r10,r12[0x0]
80002cc4:	e0 68 3e e8 	mov	r8,16104
80002cc8:	ea 18 00 00 	orh	r8,0x0
80002ccc:	91 0a       	st.w	r8[0x0],r10
80002cce:	e0 6c 36 fe 	mov	r12,14078
80002cd2:	ea 1c 00 00 	orh	r12,0x0
80002cd6:	19 8b       	ld.ub	r11,r12[0x0]
80002cd8:	e0 6c 39 d0 	mov	r12,14800
80002cdc:	ea 1c 00 00 	orh	r12,0x0
80002ce0:	b8 8b       	st.b	r12[0x0],r11
80002ce2:	74 0c       	ld.w	r12,r10[0x0]
80002ce4:	e1 cc 00 ff 	ldm	r12,r0-r7
80002ce8:	f8 e8 00 38 	ld.d	r8,r12[56]
80002cec:	f8 ea 00 20 	ld.d	r10,r12[32]
80002cf0:	f8 eb 00 38 	st.d	r12[56],r10
80002cf4:	2d 8c       	sub	r12,-40
80002cf6:	f8 cd ff f0 	sub	sp,r12,-16
80002cfa:	e1 cc 5c 00 	ldm	r12,r10-r12,lr
80002cfe:	d6 13       	rets

80002d00 <OSCtxRestore>:
80002d00:	e1 cc 00 ff 	ldm	r12,r0-r7
80002d04:	f8 e8 00 38 	ld.d	r8,r12[56]
80002d08:	f8 ea 00 20 	ld.d	r10,r12[32]
80002d0c:	f8 eb 00 38 	st.d	r12[56],r10
80002d10:	2d 8c       	sub	r12,-40
80002d12:	f8 cd ff f0 	sub	sp,r12,-16
80002d16:	e1 cc 5c 00 	ldm	r12,r10-r12,lr
80002d1a:	d6 13       	rets

80002d1c <OSIntCtxRestore>:
80002d1c:	18 9d       	mov	sp,r12
80002d1e:	d0 32       	popm	r0-r7
80002d20:	d6 03       	rete

80002d22 <OSIntISRHandler>:
80002d22:	d0 31       	pushm	r0-r7
80002d24:	e0 6b 3e e4 	mov	r11,16100
80002d28:	ea 1b 00 00 	orh	r11,0x0
80002d2c:	17 8a       	ld.ub	r10,r11[0x0]
80002d2e:	2f fa       	sub	r10,-1
80002d30:	b6 8a       	st.b	r11[0x0],r10
80002d32:	58 1a       	cp.w	r10,1
80002d34:	c0 71       	brne	80002d42 <OSIntISRHandler_1>
80002d36:	e0 6b 3e e8 	mov	r11,16104
80002d3a:	ea 1b 00 00 	orh	r11,0x0
80002d3e:	76 0a       	ld.w	r10,r11[0x0]
80002d40:	95 0d       	st.w	r10[0x0],sp

80002d42 <OSIntISRHandler_1>:
80002d42:	d5 03       	csrf	0x10
80002d44:	5d 1c       	icall	r12
80002d46:	e0 a0 04 ad 	rcall	800036a0 <OSIntExit>
80002d4a:	d0 32       	popm	r0-r7
80002d4c:	d6 03       	rete

80002d4e <OSFastIntISRHandler>:
80002d4e:	e0 6b 3e e4 	mov	r11,16100
80002d52:	ea 1b 00 00 	orh	r11,0x0
80002d56:	17 8a       	ld.ub	r10,r11[0x0]
80002d58:	2f fa       	sub	r10,-1
80002d5a:	b6 8a       	st.b	r11[0x0],r10
80002d5c:	d5 03       	csrf	0x10
80002d5e:	5d 1c       	icall	r12
80002d60:	d3 03       	ssrf	0x10
80002d62:	d7 03       	nop
80002d64:	d7 03       	nop
80002d66:	e0 6b 3e e4 	mov	r11,16100
80002d6a:	ea 1b 00 00 	orh	r11,0x0
80002d6e:	17 8a       	ld.ub	r10,r11[0x0]
80002d70:	20 1a       	sub	r10,1
80002d72:	b6 8a       	st.b	r11[0x0],r10
80002d74:	d6 03       	rete
80002d76:	d7 03       	nop

80002d78 <OSInitHookBegin>:
80002d78:	30 09       	mov	r9,0
80002d7a:	48 28       	lddpc	r8,80002d80 <OSInitHookBegin+0x8>
80002d7c:	b0 09       	st.h	r8[0x0],r9
80002d7e:	5e fc       	retal	r12
80002d80:	00 00       	add	r0,r0
80002d82:	06 44       	or	r4,r3

80002d84 <OSInitHookEnd>:
80002d84:	5e fc       	retal	r12

80002d86 <OSTaskCreateHook>:
80002d86:	5e fc       	retal	r12

80002d88 <OSTaskIdleHook>:
80002d88:	5e fc       	retal	r12

80002d8a <OSTaskStatHook>:
80002d8a:	5e fc       	retal	r12

80002d8c <OSTaskStkInit>:
80002d8c:	e0 68 08 08 	mov	r8,2056
80002d90:	ea 18 08 08 	orh	r8,0x808
80002d94:	95 08       	st.w	r10[0x0],r8
80002d96:	e0 68 09 09 	mov	r8,2313
80002d9a:	ea 18 09 09 	orh	r8,0x909
80002d9e:	14 d8       	st.w	--r10,r8
80002da0:	e0 68 10 10 	mov	r8,4112
80002da4:	ea 18 10 10 	orh	r8,0x1010
80002da8:	14 d8       	st.w	--r10,r8
80002daa:	e0 68 11 11 	mov	r8,4369
80002dae:	ea 18 11 11 	orh	r8,0x1111
80002db2:	14 d8       	st.w	--r10,r8
80002db4:	fc 18 80 00 	movh	r8,0x8000
80002db8:	14 db       	st.w	--r10,r11
80002dba:	14 d8       	st.w	--r10,r8
80002dbc:	fc 18 00 40 	movh	r8,0x40
80002dc0:	14 dc       	st.w	--r10,r12
80002dc2:	14 9c       	mov	r12,r10
80002dc4:	18 d8       	st.w	--r12,r8
80002dc6:	e0 68 00 ff 	mov	r8,255
80002dca:	ea 18 ff 00 	orh	r8,0xff00
80002dce:	18 d8       	st.w	--r12,r8
80002dd0:	e0 68 01 01 	mov	r8,257
80002dd4:	ea 18 01 01 	orh	r8,0x101
80002dd8:	18 d8       	st.w	--r12,r8
80002dda:	e0 68 02 02 	mov	r8,514
80002dde:	ea 18 02 02 	orh	r8,0x202
80002de2:	18 d8       	st.w	--r12,r8
80002de4:	e0 68 03 03 	mov	r8,771
80002de8:	ea 18 03 03 	orh	r8,0x303
80002dec:	18 d8       	st.w	--r12,r8
80002dee:	e0 68 04 04 	mov	r8,1028
80002df2:	ea 18 04 04 	orh	r8,0x404
80002df6:	18 d8       	st.w	--r12,r8
80002df8:	e0 68 05 05 	mov	r8,1285
80002dfc:	ea 18 05 05 	orh	r8,0x505
80002e00:	18 d8       	st.w	--r12,r8
80002e02:	e0 68 06 06 	mov	r8,1542
80002e06:	ea 18 06 06 	orh	r8,0x606
80002e0a:	18 d8       	st.w	--r12,r8
80002e0c:	30 08       	mov	r8,0
80002e0e:	18 d8       	st.w	--r12,r8
80002e10:	5e fc       	retal	r12

80002e12 <OSTaskSwHook>:
80002e12:	5e fc       	retal	r12

80002e14 <OSTCBInitHook>:
80002e14:	5e fc       	retal	r12
80002e16:	d7 03       	nop

80002e18 <OSStartHighRdy>:
80002e18:	d4 01       	pushm	lr
80002e1a:	48 58       	lddpc	r8,80002e2c <OSStartHighRdy+0x14>
80002e1c:	30 19       	mov	r9,1
80002e1e:	b0 89       	st.b	r8[0x0],r9
80002e20:	48 48       	lddpc	r8,80002e30 <OSStartHighRdy+0x18>
80002e22:	70 08       	ld.w	r8,r8[0x0]
80002e24:	70 0c       	ld.w	r12,r8[0x0]
80002e26:	f0 1f 00 04 	mcall	80002e34 <OSStartHighRdy+0x1c>
80002e2a:	d8 02       	popm	pc
80002e2c:	00 00       	add	r0,r0
80002e2e:	36 f5       	mov	r5,111
80002e30:	00 00       	add	r0,r0
80002e32:	3c cc       	mov	r12,-52
80002e34:	80 00       	ld.sh	r0,r0[0x0]
80002e36:	2d 00       	sub	r0,-48

80002e38 <OSIntCtxSw>:
80002e38:	d4 01       	pushm	lr
80002e3a:	48 79       	lddpc	r9,80002e54 <OSIntCtxSw+0x1c>
80002e3c:	48 78       	lddpc	r8,80002e58 <OSIntCtxSw+0x20>
80002e3e:	70 08       	ld.w	r8,r8[0x0]
80002e40:	93 08       	st.w	r9[0x0],r8
80002e42:	48 79       	lddpc	r9,80002e5c <OSIntCtxSw+0x24>
80002e44:	13 8a       	ld.ub	r10,r9[0x0]
80002e46:	48 79       	lddpc	r9,80002e60 <OSIntCtxSw+0x28>
80002e48:	b2 8a       	st.b	r9[0x0],r10
80002e4a:	70 0c       	ld.w	r12,r8[0x0]
80002e4c:	f0 1f 00 06 	mcall	80002e64 <OSIntCtxSw+0x2c>
80002e50:	d8 02       	popm	pc
80002e52:	00 00       	add	r0,r0
80002e54:	00 00       	add	r0,r0
80002e56:	3e e8       	mov	r8,-18
80002e58:	00 00       	add	r0,r0
80002e5a:	3c cc       	mov	r12,-52
80002e5c:	00 00       	add	r0,r0
80002e5e:	36 fe       	mov	lr,111
80002e60:	00 00       	add	r0,r0
80002e62:	39 d0       	mov	r0,-99
80002e64:	80 00       	ld.sh	r0,r0[0x0]
80002e66:	2d 1c       	sub	r12,-47

80002e68 <OSTimeTickHook>:
80002e68:	d4 01       	pushm	lr
80002e6a:	48 88       	lddpc	r8,80002e88 <OSTimeTickHook+0x20>
80002e6c:	90 09       	ld.sh	r9,r8[0x0]
80002e6e:	2f f9       	sub	r9,-1
80002e70:	b0 09       	st.h	r8[0x0],r9
80002e72:	30 9a       	mov	r10,9
80002e74:	f4 09 19 00 	cp.h	r9,r10
80002e78:	e0 88 00 06 	brls	80002e84 <OSTimeTickHook+0x1c>
80002e7c:	30 09       	mov	r9,0
80002e7e:	b0 09       	st.h	r8[0x0],r9
80002e80:	f0 1f 00 03 	mcall	80002e8c <OSTimeTickHook+0x24>
80002e84:	d8 02       	popm	pc
80002e86:	00 00       	add	r0,r0
80002e88:	00 00       	add	r0,r0
80002e8a:	06 44       	or	r4,r3
80002e8c:	80 00       	ld.sh	r0,r0[0x0]
80002e8e:	44 10       	lddsp	r0,sp[0x104]

80002e90 <OSUnMapTbl>:
80002e90:	00 00 01 00 02 00 01 00 03 00 01 00 02 00 01 00     ................
80002ea0:	04 00 01 00 02 00 01 00 03 00 01 00 02 00 01 00     ................
80002eb0:	05 00 01 00 02 00 01 00 03 00 01 00 02 00 01 00     ................
80002ec0:	04 00 01 00 02 00 01 00 03 00 01 00 02 00 01 00     ................
80002ed0:	06 00 01 00 02 00 01 00 03 00 01 00 02 00 01 00     ................
80002ee0:	04 00 01 00 02 00 01 00 03 00 01 00 02 00 01 00     ................
80002ef0:	05 00 01 00 02 00 01 00 03 00 01 00 02 00 01 00     ................
80002f00:	04 00 01 00 02 00 01 00 03 00 01 00 02 00 01 00     ................
80002f10:	07 00 01 00 02 00 01 00 03 00 01 00 02 00 01 00     ................
80002f20:	04 00 01 00 02 00 01 00 03 00 01 00 02 00 01 00     ................
80002f30:	05 00 01 00 02 00 01 00 03 00 01 00 02 00 01 00     ................
80002f40:	04 00 01 00 02 00 01 00 03 00 01 00 02 00 01 00     ................
80002f50:	06 00 01 00 02 00 01 00 03 00 01 00 02 00 01 00     ................
80002f60:	04 00 01 00 02 00 01 00 03 00 01 00 02 00 01 00     ................
80002f70:	05 00 01 00 02 00 01 00 03 00 01 00 02 00 01 00     ................
80002f80:	04 00 01 00 02 00 01 00 03 00 01 00 02 00 01 00     ................

80002f90 <OS_EventTaskRdy>:
80002f90:	d4 31       	pushm	r0-r7,lr
80002f92:	f9 3e 00 0a 	ld.ub	lr,r12[10]
80002f96:	18 98       	mov	r8,r12
80002f98:	4b 2c       	lddpc	r12,80003060 <OS_EventTaskRdy+0xd0>
80002f9a:	f8 0e 07 07 	ld.ub	r7,r12[lr]
80002f9e:	f0 07 00 0e 	add	lr,r8,r7
80002fa2:	fd 3e 00 0b 	ld.ub	lr,lr[11]
80002fa6:	f8 0e 07 0c 	ld.ub	r12,r12[lr]
80002faa:	4a fe       	lddpc	lr,80003064 <OS_EventTaskRdy+0xd4>
80002fac:	f8 07 00 3c 	add	r12,r12,r7<<0x3
80002fb0:	5c 5c       	castu.b	r12
80002fb2:	fc 0c 03 2e 	ld.w	lr,lr[r12<<0x2]
80002fb6:	fd 69 00 49 	st.b	lr[73],r9
80002fba:	fd 39 00 48 	ld.ub	r9,lr[72]
80002fbe:	5c da       	com	r10
80002fc0:	9d eb       	st.w	lr[0x38],r11
80002fc2:	12 6a       	and	r10,r9
80002fc4:	30 09       	mov	r9,0
80002fc6:	fd 6a 00 48 	st.b	lr[72],r10
80002fca:	fd 49 00 44 	st.w	lr[68],r9
80002fce:	ed ba 00 03 	bld	r10,0x3
80002fd2:	c1 10       	breq	80002ff4 <OS_EventTaskRdy+0x64>
80002fd4:	fd 36 00 4e 	ld.ub	r6,lr[78]
80002fd8:	4a 4a       	lddpc	r10,80003068 <OS_EventTaskRdy+0xd8>
80002fda:	15 8b       	ld.ub	r11,r10[0x0]
80002fdc:	ed eb 10 0b 	or	r11,r6,r11
80002fe0:	4a 39       	lddpc	r9,8000306c <OS_EventTaskRdy+0xdc>
80002fe2:	b4 8b       	st.b	r10[0x0],r11
80002fe4:	f2 07 07 0b 	ld.ub	r11,r9[r7]
80002fe8:	fd 3a 00 4d 	ld.ub	r10,lr[77]
80002fec:	f7 ea 10 0a 	or	r10,r11,r10
80002ff0:	f2 07 0b 0a 	st.b	r9[r7],r10
80002ff4:	fd 3a 00 4c 	ld.ub	r10,lr[76]
80002ff8:	fd 39 00 4d 	ld.ub	r9,lr[77]
80002ffc:	f0 0a 00 0a 	add	r10,r8,r10
80003000:	5c d9       	com	r9
80003002:	f5 3b 00 0b 	ld.ub	r11,r10[11]
80003006:	f7 e9 00 09 	and	r9,r11,r9
8000300a:	f5 69 00 0b 	st.b	r10[11],r9
8000300e:	c0 91       	brne	80003020 <OS_EventTaskRdy+0x90>
80003010:	fd 39 00 4e 	ld.ub	r9,lr[78]
80003014:	f1 3a 00 0a 	ld.ub	r10,r8[10]
80003018:	5c d9       	com	r9
8000301a:	14 69       	and	r9,r10
8000301c:	f1 69 00 0a 	st.b	r8[10],r9
80003020:	7c da       	ld.w	r10,lr[0x34]
80003022:	58 0a       	cp.w	r10,0
80003024:	c1 d0       	breq	8000305e <OS_EventTaskRdy+0xce>
80003026:	fd 34 00 4e 	ld.ub	r4,lr[78]
8000302a:	fd 35 00 4d 	ld.ub	r5,lr[77]
8000302e:	5c d4       	com	r4
80003030:	5c d5       	com	r5
80003032:	fd 36 00 4c 	ld.ub	r6,lr[76]
80003036:	c0 e8       	rjmp	80003052 <OS_EventTaskRdy+0xc2>
80003038:	f7 37 00 0b 	ld.ub	r7,r11[11]
8000303c:	2f ca       	sub	r10,-4
8000303e:	0a 67       	and	r7,r5
80003040:	f7 67 00 0b 	st.b	r11[11],r7
80003044:	0e 93       	mov	r3,r7
80003046:	f3 fb 08 0a 	ld.ubeq	r11,r9[0xa]
8000304a:	e9 db e0 2b 	andeq	r11,r4,r11
8000304e:	f3 fb 0e 0a 	st.beq	r9[0xa],r11
80003052:	74 09       	ld.w	r9,r10[0x0]
80003054:	f2 06 00 0b 	add	r11,r9,r6
80003058:	58 09       	cp.w	r9,0
8000305a:	ce f1       	brne	80003038 <OS_EventTaskRdy+0xa8>
8000305c:	9d c8       	st.w	lr[0x30],r8
8000305e:	d8 32       	popm	r0-r7,pc
80003060:	80 00       	ld.sh	r0,r0[0x0]
80003062:	2e 90       	sub	r0,-23
80003064:	00 00       	add	r0,r0
80003066:	4b 38       	lddpc	r8,80003130 <OS_Sched>
80003068:	00 00       	add	r0,r0
8000306a:	3c d4       	mov	r4,-51
8000306c:	00 00       	add	r0,r0
8000306e:	3c d8       	mov	r8,-51

80003070 <OS_EventTaskWait>:
80003070:	49 68       	lddpc	r8,800030c8 <OS_EventTaskWait+0x58>
80003072:	70 08       	ld.w	r8,r8[0x0]
80003074:	91 cc       	st.w	r8[0x30],r12
80003076:	f1 39 00 4c 	ld.ub	r9,r8[76]
8000307a:	f1 3a 00 4d 	ld.ub	r10,r8[77]
8000307e:	f8 09 00 09 	add	r9,r12,r9
80003082:	f3 3b 00 0b 	ld.ub	r11,r9[11]
80003086:	f7 ea 10 0a 	or	r10,r11,r10
8000308a:	f3 6a 00 0b 	st.b	r9[11],r10
8000308e:	f9 39 00 0a 	ld.ub	r9,r12[10]
80003092:	f1 3a 00 4e 	ld.ub	r10,r8[78]
80003096:	f5 e9 10 09 	or	r9,r10,r9
8000309a:	f9 69 00 0a 	st.b	r12[10],r9
8000309e:	48 cb       	lddpc	r11,800030cc <OS_EventTaskWait+0x5c>
800030a0:	f1 3a 00 4c 	ld.ub	r10,r8[76]
800030a4:	f1 39 00 4d 	ld.ub	r9,r8[77]
800030a8:	f6 0a 07 0c 	ld.ub	r12,r11[r10]
800030ac:	5c d9       	com	r9
800030ae:	f9 e9 00 09 	and	r9,r12,r9
800030b2:	f6 0a 0b 09 	st.b	r11[r10],r9
800030b6:	5e 1c       	retne	r12
800030b8:	f1 39 00 4e 	ld.ub	r9,r8[78]
800030bc:	48 58       	lddpc	r8,800030d0 <OS_EventTaskWait+0x60>
800030be:	5c d9       	com	r9
800030c0:	11 8a       	ld.ub	r10,r8[0x0]
800030c2:	14 69       	and	r9,r10
800030c4:	b0 89       	st.b	r8[0x0],r9
800030c6:	5e fc       	retal	r12
800030c8:	00 00       	add	r0,r0
800030ca:	3e e8       	mov	r8,-18
800030cc:	00 00       	add	r0,r0
800030ce:	3c d8       	mov	r8,-51
800030d0:	00 00       	add	r0,r0
800030d2:	3c d4       	mov	r4,-51

800030d4 <OS_EventTaskRemove>:
800030d4:	f9 39 00 4c 	ld.ub	r9,r12[76]
800030d8:	f9 38 00 4d 	ld.ub	r8,r12[77]
800030dc:	f6 09 00 09 	add	r9,r11,r9
800030e0:	5c d8       	com	r8
800030e2:	f3 3a 00 0b 	ld.ub	r10,r9[11]
800030e6:	f5 e8 00 08 	and	r8,r10,r8
800030ea:	f3 68 00 0b 	st.b	r9[11],r8
800030ee:	5e 1c       	retne	r12
800030f0:	f9 38 00 4e 	ld.ub	r8,r12[78]
800030f4:	f7 39 00 0a 	ld.ub	r9,r11[10]
800030f8:	5c d8       	com	r8
800030fa:	12 68       	and	r8,r9
800030fc:	f7 68 00 0a 	st.b	r11[10],r8
80003100:	5e fc       	retal	r12

80003102 <OS_EventWaitListInit>:
80003102:	30 08       	mov	r8,0
80003104:	f8 c9 ff f5 	sub	r9,r12,-11
80003108:	f9 68 00 0a 	st.b	r12[10],r8
8000310c:	30 8b       	mov	r11,8
8000310e:	30 08       	mov	r8,0
80003110:	10 9a       	mov	r10,r8
80003112:	12 ca       	st.b	r9++,r10
80003114:	2f f8       	sub	r8,-1
80003116:	5c 58       	castu.b	r8
80003118:	f6 08 18 00 	cp.b	r8,r11
8000311c:	cf b1       	brne	80003112 <OS_EventWaitListInit+0x10>
8000311e:	5e fc       	retal	r12

80003120 <OS_MemClr>:
80003120:	30 08       	mov	r8,0
80003122:	c0 48       	rjmp	8000312a <OS_MemClr+0xa>
80003124:	20 1b       	sub	r11,1
80003126:	18 c8       	st.b	r12++,r8
80003128:	5c 8b       	casts.h	r11
8000312a:	58 0b       	cp.w	r11,0
8000312c:	cf c1       	brne	80003124 <OS_MemClr+0x4>
8000312e:	5e fc       	retal	r12

80003130 <OS_Sched>:
80003130:	d4 01       	pushm	lr
80003132:	f0 1f 00 1a 	mcall	80003198 <OS_Sched+0x68>
80003136:	49 a8       	lddpc	r8,8000319c <OS_Sched+0x6c>
80003138:	30 09       	mov	r9,0
8000313a:	11 88       	ld.ub	r8,r8[0x0]
8000313c:	f2 08 18 00 	cp.b	r8,r9
80003140:	c2 81       	brne	80003190 <OS_Sched+0x60>
80003142:	49 89       	lddpc	r9,800031a0 <OS_Sched+0x70>
80003144:	13 89       	ld.ub	r9,r9[0x0]
80003146:	f0 09 18 00 	cp.b	r9,r8
8000314a:	c2 31       	brne	80003190 <OS_Sched+0x60>
8000314c:	49 69       	lddpc	r9,800031a4 <OS_Sched+0x74>
8000314e:	49 78       	lddpc	r8,800031a8 <OS_Sched+0x78>
80003150:	11 88       	ld.ub	r8,r8[0x0]
80003152:	f2 08 07 08 	ld.ub	r8,r9[r8]
80003156:	49 6a       	lddpc	r10,800031ac <OS_Sched+0x7c>
80003158:	f4 08 07 0a 	ld.ub	r10,r10[r8]
8000315c:	f2 0a 07 09 	ld.ub	r9,r9[r10]
80003160:	f2 08 00 39 	add	r9,r9,r8<<0x3
80003164:	49 38       	lddpc	r8,800031b0 <OS_Sched+0x80>
80003166:	5c 59       	castu.b	r9
80003168:	49 3a       	lddpc	r10,800031b4 <OS_Sched+0x84>
8000316a:	b0 89       	st.b	r8[0x0],r9
8000316c:	49 38       	lddpc	r8,800031b8 <OS_Sched+0x88>
8000316e:	f0 09 03 28 	ld.w	r8,r8[r9<<0x2]
80003172:	95 08       	st.w	r10[0x0],r8
80003174:	49 2a       	lddpc	r10,800031bc <OS_Sched+0x8c>
80003176:	15 8a       	ld.ub	r10,r10[0x0]
80003178:	f2 0a 18 00 	cp.b	r10,r9
8000317c:	c0 a0       	breq	80003190 <OS_Sched+0x60>
8000317e:	71 49       	ld.w	r9,r8[0x50]
80003180:	2f f9       	sub	r9,-1
80003182:	f1 49 00 50 	st.w	r8[80],r9
80003186:	48 f8       	lddpc	r8,800031c0 <OS_Sched+0x90>
80003188:	70 09       	ld.w	r9,r8[0x0]
8000318a:	2f f9       	sub	r9,-1
8000318c:	91 09       	st.w	r8[0x0],r9
8000318e:	d7 33       	scall
80003190:	f0 1f 00 0d 	mcall	800031c4 <OS_Sched+0x94>
80003194:	d8 02       	popm	pc
80003196:	00 00       	add	r0,r0
80003198:	80 00       	ld.sh	r0,r0[0x0]
8000319a:	2b e4       	sub	r4,-66
8000319c:	00 00       	add	r0,r0
8000319e:	3e e4       	mov	r4,-18
800031a0:	00 00       	add	r0,r0
800031a2:	36 ec       	mov	r12,110
800031a4:	80 00       	ld.sh	r0,r0[0x0]
800031a6:	2e 90       	sub	r0,-23
800031a8:	00 00       	add	r0,r0
800031aa:	3c d4       	mov	r4,-51
800031ac:	00 00       	add	r0,r0
800031ae:	3c d8       	mov	r8,-51
800031b0:	00 00       	add	r0,r0
800031b2:	36 fe       	mov	lr,111
800031b4:	00 00       	add	r0,r0
800031b6:	3c cc       	mov	r12,-52
800031b8:	00 00       	add	r0,r0
800031ba:	4b 38       	lddpc	r8,80003284 <OSEventNameSet+0x14>
800031bc:	00 00       	add	r0,r0
800031be:	39 d0       	mov	r0,-99
800031c0:	00 00       	add	r0,r0
800031c2:	3c 54       	mov	r4,-59
800031c4:	80 00       	ld.sh	r0,r0[0x0]
800031c6:	2b f0       	sub	r0,-65

800031c8 <OSSchedUnlock>:
800031c8:	d4 01       	pushm	lr
800031ca:	49 18       	lddpc	r8,8000320c <OSSchedUnlock+0x44>
800031cc:	11 89       	ld.ub	r9,r8[0x0]
800031ce:	30 18       	mov	r8,1
800031d0:	f0 09 18 00 	cp.b	r9,r8
800031d4:	c1 b1       	brne	8000320a <OSSchedUnlock+0x42>
800031d6:	f0 1f 00 0f 	mcall	80003210 <OSSchedUnlock+0x48>
800031da:	48 f8       	lddpc	r8,80003214 <OSSchedUnlock+0x4c>
800031dc:	11 89       	ld.ub	r9,r8[0x0]
800031de:	30 08       	mov	r8,0
800031e0:	f0 09 18 00 	cp.b	r9,r8
800031e4:	c1 11       	brne	80003206 <OSSchedUnlock+0x3e>
800031e6:	48 d9       	lddpc	r9,80003218 <OSSchedUnlock+0x50>
800031e8:	13 88       	ld.ub	r8,r9[0x0]
800031ea:	58 08       	cp.w	r8,0
800031ec:	c0 a0       	breq	80003200 <OSSchedUnlock+0x38>
800031ee:	20 18       	sub	r8,1
800031f0:	5c 58       	castu.b	r8
800031f2:	b2 88       	st.b	r9[0x0],r8
800031f4:	c0 61       	brne	80003200 <OSSchedUnlock+0x38>
800031f6:	f0 1f 00 0a 	mcall	8000321c <OSSchedUnlock+0x54>
800031fa:	f0 1f 00 0a 	mcall	80003220 <OSSchedUnlock+0x58>
800031fe:	d8 02       	popm	pc
80003200:	f0 1f 00 07 	mcall	8000321c <OSSchedUnlock+0x54>
80003204:	d8 02       	popm	pc
80003206:	f0 1f 00 06 	mcall	8000321c <OSSchedUnlock+0x54>
8000320a:	d8 02       	popm	pc
8000320c:	00 00       	add	r0,r0
8000320e:	36 f5       	mov	r5,111
80003210:	80 00       	ld.sh	r0,r0[0x0]
80003212:	2b e4       	sub	r4,-66
80003214:	00 00       	add	r0,r0
80003216:	3e e4       	mov	r4,-18
80003218:	00 00       	add	r0,r0
8000321a:	36 ec       	mov	r12,110
8000321c:	80 00       	ld.sh	r0,r0[0x0]
8000321e:	2b f0       	sub	r0,-65
80003220:	80 00       	ld.sh	r0,r0[0x0]
80003222:	31 30       	mov	r0,19

80003224 <OSSchedLock>:
80003224:	d4 01       	pushm	lr
80003226:	48 e8       	lddpc	r8,8000325c <OSSchedLock+0x38>
80003228:	11 89       	ld.ub	r9,r8[0x0]
8000322a:	30 18       	mov	r8,1
8000322c:	f0 09 18 00 	cp.b	r9,r8
80003230:	c1 41       	brne	80003258 <OSSchedLock+0x34>
80003232:	f0 1f 00 0c 	mcall	80003260 <OSSchedLock+0x3c>
80003236:	48 c8       	lddpc	r8,80003264 <OSSchedLock+0x40>
80003238:	11 89       	ld.ub	r9,r8[0x0]
8000323a:	30 08       	mov	r8,0
8000323c:	f0 09 18 00 	cp.b	r9,r8
80003240:	c0 a1       	brne	80003254 <OSSchedLock+0x30>
80003242:	48 a8       	lddpc	r8,80003268 <OSSchedLock+0x44>
80003244:	3f fb       	mov	r11,-1
80003246:	11 89       	ld.ub	r9,r8[0x0]
80003248:	f2 ca ff ff 	sub	r10,r9,-1
8000324c:	f6 09 18 00 	cp.b	r9,r11
80003250:	f1 fa 1e 00 	st.bne	r8[0x0],r10
80003254:	f0 1f 00 06 	mcall	8000326c <OSSchedLock+0x48>
80003258:	d8 02       	popm	pc
8000325a:	00 00       	add	r0,r0
8000325c:	00 00       	add	r0,r0
8000325e:	36 f5       	mov	r5,111
80003260:	80 00       	ld.sh	r0,r0[0x0]
80003262:	2b e4       	sub	r4,-66
80003264:	00 00       	add	r0,r0
80003266:	3e e4       	mov	r4,-18
80003268:	00 00       	add	r0,r0
8000326a:	36 ec       	mov	r12,110
8000326c:	80 00       	ld.sh	r0,r0[0x0]
8000326e:	2b f0       	sub	r0,-65

80003270 <OSEventNameSet>:
80003270:	d4 21       	pushm	r4-r7,lr
80003272:	48 e8       	lddpc	r8,800032a8 <OSEventNameSet+0x38>
80003274:	18 97       	mov	r7,r12
80003276:	16 96       	mov	r6,r11
80003278:	14 95       	mov	r5,r10
8000327a:	11 84       	ld.ub	r4,r8[0x0]
8000327c:	58 04       	cp.w	r4,0
8000327e:	c0 30       	breq	80003284 <OSEventNameSet+0x14>
80003280:	31 28       	mov	r8,18
80003282:	c0 98       	rjmp	80003294 <OSEventNameSet+0x24>
80003284:	19 89       	ld.ub	r9,r12[0x0]
80003286:	30 38       	mov	r8,3
80003288:	20 19       	sub	r9,1
8000328a:	f0 09 18 00 	cp.b	r9,r8
8000328e:	e0 88 00 05 	brls	80003298 <OSEventNameSet+0x28>
80003292:	30 18       	mov	r8,1
80003294:	aa 88       	st.b	r5[0x0],r8
80003296:	d8 22       	popm	r4-r7,pc
80003298:	f0 1f 00 05 	mcall	800032ac <OSEventNameSet+0x3c>
8000329c:	8f 56       	st.w	r7[0x14],r6
8000329e:	f0 1f 00 05 	mcall	800032b0 <OSEventNameSet+0x40>
800032a2:	aa 84       	st.b	r5[0x0],r4
800032a4:	d8 22       	popm	r4-r7,pc
800032a6:	00 00       	add	r0,r0
800032a8:	00 00       	add	r0,r0
800032aa:	3e e4       	mov	r4,-18
800032ac:	80 00       	ld.sh	r0,r0[0x0]
800032ae:	2b e4       	sub	r4,-66
800032b0:	80 00       	ld.sh	r0,r0[0x0]
800032b2:	2b f0       	sub	r0,-65

800032b4 <OS_TCBInit>:
800032b4:	d4 31       	pushm	r0-r7,lr
800032b6:	fa c4 ff dc 	sub	r4,sp,-36
800032ba:	10 91       	mov	r1,r8
800032bc:	68 12       	ld.w	r2,r4[0x4]
800032be:	68 00       	ld.w	r0,r4[0x0]
800032c0:	18 97       	mov	r7,r12
800032c2:	16 96       	mov	r6,r11
800032c4:	14 95       	mov	r5,r10
800032c6:	12 93       	mov	r3,r9
800032c8:	f0 1f 00 3e 	mcall	800033c0 <OS_TCBInit+0x10c>
800032cc:	4b e8       	lddpc	r8,800033c4 <OS_TCBInit+0x110>
800032ce:	70 04       	ld.w	r4,r8[0x0]
800032d0:	58 04       	cp.w	r4,0
800032d2:	c7 20       	breq	800033b6 <OS_TCBInit+0x102>
800032d4:	68 59       	ld.w	r9,r4[0x14]
800032d6:	91 09       	st.w	r8[0x0],r9
800032d8:	f0 1f 00 3c 	mcall	800033c8 <OS_TCBInit+0x114>
800032dc:	30 08       	mov	r8,0
800032de:	30 19       	mov	r9,1
800032e0:	e9 68 00 49 	st.b	r4[73],r8
800032e4:	e9 68 00 48 	st.b	r4[72],r8
800032e8:	f1 d7 c0 68 	bfextu	r8,r7,0x3,0x8
800032ec:	e9 68 00 4c 	st.b	r4[76],r8
800032f0:	f2 08 09 48 	lsl	r8,r9,r8
800032f4:	f5 d7 c0 03 	bfextu	r10,r7,0x0,0x3
800032f8:	e9 68 00 4e 	st.b	r4[78],r8
800032fc:	e9 6a 00 4b 	st.b	r4[75],r10
80003300:	4b 38       	lddpc	r8,800033cc <OS_TCBInit+0x118>
80003302:	f2 0a 09 4a 	lsl	r10,r9,r10
80003306:	e9 48 00 64 	st.w	r4[100],r8
8000330a:	e9 6a 00 4d 	st.b	r4[77],r10
8000330e:	89 06       	st.w	r4[0x0],r6
80003310:	e9 67 00 4a 	st.b	r4[74],r7
80003314:	30 06       	mov	r6,0
80003316:	08 9c       	mov	r12,r4
80003318:	e9 46 00 44 	st.w	r4[68],r6
8000331c:	e9 66 00 4f 	st.b	r4[79],r6
80003320:	89 c6       	st.w	r4[0x30],r6
80003322:	89 d6       	st.w	r4[0x34],r6
80003324:	89 f6       	st.w	r4[0x3c],r6
80003326:	89 e6       	st.w	r4[0x38],r6
80003328:	e9 46 00 50 	st.w	r4[80],r6
8000332c:	e9 46 00 58 	st.w	r4[88],r6
80003330:	e9 46 00 54 	st.w	r4[84],r6
80003334:	e9 46 00 5c 	st.w	r4[92],r6
80003338:	e9 46 00 60 	st.w	r4[96],r6
8000333c:	e9 46 00 68 	st.w	r4[104],r6
80003340:	89 10       	st.w	r4[0x4],r0
80003342:	89 31       	st.w	r4[0xc],r1
80003344:	89 25       	st.w	r4[0x8],r5
80003346:	e9 52 00 10 	st.h	r4[16],r2
8000334a:	e9 53 00 12 	st.h	r4[18],r3
8000334e:	f0 1f 00 21 	mcall	800033d0 <OS_TCBInit+0x11c>
80003352:	f0 1f 00 1c 	mcall	800033c0 <OS_TCBInit+0x10c>
80003356:	4a 08       	lddpc	r8,800033d4 <OS_TCBInit+0x120>
80003358:	f0 07 09 24 	st.w	r8[r7<<0x2],r4
8000335c:	f0 1f 00 1b 	mcall	800033c8 <OS_TCBInit+0x114>
80003360:	08 9c       	mov	r12,r4
80003362:	f0 1f 00 1e 	mcall	800033d8 <OS_TCBInit+0x124>
80003366:	89 76       	st.w	r4[0x1c],r6
80003368:	89 86       	st.w	r4[0x20],r6
8000336a:	89 96       	st.w	r4[0x24],r6
8000336c:	89 a6       	st.w	r4[0x28],r6
8000336e:	89 b6       	st.w	r4[0x2c],r6
80003370:	f0 1f 00 14 	mcall	800033c0 <OS_TCBInit+0x10c>
80003374:	49 a8       	lddpc	r8,800033dc <OS_TCBInit+0x128>
80003376:	70 08       	ld.w	r8,r8[0x0]
80003378:	89 66       	st.w	r4[0x18],r6
8000337a:	89 58       	st.w	r4[0x14],r8
8000337c:	58 08       	cp.w	r8,0
8000337e:	f1 f4 1a 06 	st.wne	r8[0x18],r4
80003382:	49 8a       	lddpc	r10,800033e0 <OS_TCBInit+0x12c>
80003384:	49 88       	lddpc	r8,800033e4 <OS_TCBInit+0x130>
80003386:	49 67       	lddpc	r7,800033dc <OS_TCBInit+0x128>
80003388:	11 8b       	ld.ub	r11,r8[0x0]
8000338a:	8f 04       	st.w	r7[0x0],r4
8000338c:	e9 36 00 4e 	ld.ub	r6,r4[78]
80003390:	ed eb 10 0b 	or	r11,r6,r11
80003394:	15 87       	ld.ub	r7,r10[0x0]
80003396:	49 59       	lddpc	r9,800033e8 <OS_TCBInit+0x134>
80003398:	b0 8b       	st.b	r8[0x0],r11
8000339a:	2f f7       	sub	r7,-1
8000339c:	e9 3b 00 4d 	ld.ub	r11,r4[77]
800033a0:	e9 38 00 4c 	ld.ub	r8,r4[76]
800033a4:	b4 87       	st.b	r10[0x0],r7
800033a6:	f2 08 07 0a 	ld.ub	r10,r9[r8]
800033aa:	16 4a       	or	r10,r11
800033ac:	f2 08 0b 0a 	st.b	r9[r8],r10
800033b0:	f0 1f 00 06 	mcall	800033c8 <OS_TCBInit+0x114>
800033b4:	d8 3a       	popm	r0-r7,pc,r12=0
800033b6:	f0 1f 00 05 	mcall	800033c8 <OS_TCBInit+0x114>
800033ba:	34 2c       	mov	r12,66
800033bc:	d8 32       	popm	r0-r7,pc
800033be:	00 00       	add	r0,r0
800033c0:	80 00       	ld.sh	r0,r0[0x0]
800033c2:	2b e4       	sub	r4,-66
800033c4:	00 00       	add	r0,r0
800033c6:	3c 60       	mov	r0,-58
800033c8:	80 00       	ld.sh	r0,r0[0x0]
800033ca:	2b f0       	sub	r0,-65
800033cc:	80 00       	ld.sh	r0,r0[0x0]
800033ce:	a1 84       	lsr	r4,0x0
800033d0:	80 00       	ld.sh	r0,r0[0x0]
800033d2:	2e 14       	sub	r4,-31
800033d4:	00 00       	add	r0,r0
800033d6:	4b 38       	lddpc	r8,800034a0 <OS_TaskStat+0x20>
800033d8:	80 00       	ld.sh	r0,r0[0x0]
800033da:	2d 86       	sub	r6,-40
800033dc:	00 00       	add	r0,r0
800033de:	39 d4       	mov	r4,-99
800033e0:	00 00       	add	r0,r0
800033e2:	3c 65       	mov	r5,-58
800033e4:	00 00       	add	r0,r0
800033e6:	3c d4       	mov	r4,-51
800033e8:	00 00       	add	r0,r0
800033ea:	3c d8       	mov	r8,-51

800033ec <OS_TaskStatStkChk>:
800033ec:	d4 21       	pushm	r4-r7,lr
800033ee:	20 2d       	sub	sp,8
800033f0:	48 f6       	lddpc	r6,8000342c <OS_TaskStatStkChk+0x40>
800033f2:	30 07       	mov	r7,0
800033f4:	1a 95       	mov	r5,sp
800033f6:	0e 9c       	mov	r12,r7
800033f8:	1a 9b       	mov	r11,sp
800033fa:	2f f7       	sub	r7,-1
800033fc:	f0 1f 00 0d 	mcall	80003430 <OS_TaskStatStkChk+0x44>
80003400:	c0 f1       	brne	8000341e <OS_TaskStatStkChk+0x32>
80003402:	6c 08       	ld.w	r8,r6[0x0]
80003404:	58 08       	cp.w	r8,0
80003406:	c0 c0       	breq	8000341e <OS_TaskStatStkChk+0x32>
80003408:	58 18       	cp.w	r8,1
8000340a:	c0 a0       	breq	8000341e <OS_TaskStatStkChk+0x32>
8000340c:	70 3a       	ld.w	r10,r8[0xc]
8000340e:	70 29       	ld.w	r9,r8[0x8]
80003410:	f2 0a 00 29 	add	r9,r9,r10<<0x2
80003414:	f1 49 00 5c 	st.w	r8[92],r9
80003418:	40 19       	lddsp	r9,sp[0x4]
8000341a:	f1 49 00 60 	st.w	r8[96],r9
8000341e:	2f c6       	sub	r6,-4
80003420:	e0 47 00 40 	cp.w	r7,64
80003424:	ce 91       	brne	800033f6 <OS_TaskStatStkChk+0xa>
80003426:	2f ed       	sub	sp,-8
80003428:	d8 22       	popm	r4-r7,pc
8000342a:	00 00       	add	r0,r0
8000342c:	00 00       	add	r0,r0
8000342e:	4b 38       	lddpc	r8,800034f8 <OS_TaskStat+0x78>
80003430:	80 00       	ld.sh	r0,r0[0x0]
80003432:	3e 4c       	mov	r12,-28

80003434 <OSStatInit>:
80003434:	d4 21       	pushm	r4-r7,lr
80003436:	30 2c       	mov	r12,2
80003438:	f0 1f 00 0c 	mcall	80003468 <OSStatInit+0x34>
8000343c:	48 c7       	lddpc	r7,8000346c <OSStatInit+0x38>
8000343e:	f0 1f 00 0d 	mcall	80003470 <OSStatInit+0x3c>
80003442:	30 08       	mov	r8,0
80003444:	8f 08       	st.w	r7[0x0],r8
80003446:	f0 1f 00 0c 	mcall	80003474 <OSStatInit+0x40>
8000344a:	30 ac       	mov	r12,10
8000344c:	f0 1f 00 07 	mcall	80003468 <OSStatInit+0x34>
80003450:	f0 1f 00 08 	mcall	80003470 <OSStatInit+0x3c>
80003454:	6e 09       	ld.w	r9,r7[0x0]
80003456:	48 98       	lddpc	r8,80003478 <OSStatInit+0x44>
80003458:	91 09       	st.w	r8[0x0],r9
8000345a:	30 19       	mov	r9,1
8000345c:	48 88       	lddpc	r8,8000347c <OSStatInit+0x48>
8000345e:	b0 89       	st.b	r8[0x0],r9
80003460:	f0 1f 00 05 	mcall	80003474 <OSStatInit+0x40>
80003464:	d8 22       	popm	r4-r7,pc
80003466:	00 00       	add	r0,r0
80003468:	80 00       	ld.sh	r0,r0[0x0]
8000346a:	41 4c       	lddsp	r12,sp[0x50]
8000346c:	00 00       	add	r0,r0
8000346e:	36 f8       	mov	r8,111
80003470:	80 00       	ld.sh	r0,r0[0x0]
80003472:	2b e4       	sub	r4,-66
80003474:	80 00       	ld.sh	r0,r0[0x0]
80003476:	2b f0       	sub	r0,-65
80003478:	00 00       	add	r0,r0
8000347a:	3c 5c       	mov	r12,-59
8000347c:	00 00       	add	r0,r0
8000347e:	4b 34       	lddpc	r4,80003548 <OS_TaskIdle+0x1c>

80003480 <OS_TaskStat>:
80003480:	d4 31       	pushm	r0-r7,lr
80003482:	4a 06       	lddpc	r6,80003500 <OS_TaskStat+0x80>
80003484:	30 07       	mov	r7,0
80003486:	c0 48       	rjmp	8000348e <OS_TaskStat+0xe>
80003488:	31 4c       	mov	r12,20
8000348a:	f0 1f 00 1f 	mcall	80003504 <OS_TaskStat+0x84>
8000348e:	0d 88       	ld.ub	r8,r6[0x0]
80003490:	ee 08 18 00 	cp.b	r8,r7
80003494:	cf a0       	breq	80003488 <OS_TaskStat+0x8>
80003496:	49 da       	lddpc	r10,80003508 <OS_TaskStat+0x88>
80003498:	36 49       	mov	r9,100
8000349a:	74 08       	ld.w	r8,r10[0x0]
8000349c:	f0 09 0d 08 	divu	r8,r8,r9
800034a0:	95 08       	st.w	r10[0x0],r8
800034a2:	10 9a       	mov	r10,r8
800034a4:	58 08       	cp.w	r8,0
800034a6:	c0 71       	brne	800034b4 <OS_TaskStat+0x34>
800034a8:	49 98       	lddpc	r8,8000350c <OS_TaskStat+0x8c>
800034aa:	e0 6c 00 ff 	mov	r12,255
800034ae:	b0 8a       	st.b	r8[0x0],r10
800034b0:	f0 1f 00 18 	mcall	80003510 <OS_TaskStat+0x90>
800034b4:	49 87       	lddpc	r7,80003514 <OS_TaskStat+0x94>
800034b6:	f0 1f 00 19 	mcall	80003518 <OS_TaskStat+0x98>
800034ba:	49 46       	lddpc	r6,80003508 <OS_TaskStat+0x88>
800034bc:	6c 08       	ld.w	r8,r6[0x0]
800034be:	f0 08 10 64 	mul	r8,r8,100
800034c2:	0c 91       	mov	r1,r6
800034c4:	0e 94       	mov	r4,r7
800034c6:	49 65       	lddpc	r5,8000351c <OS_TaskStat+0x9c>
800034c8:	30 02       	mov	r2,0
800034ca:	49 13       	lddpc	r3,8000350c <OS_TaskStat+0x8c>
800034cc:	8f 08       	st.w	r7[0x0],r8
800034ce:	f0 1f 00 15 	mcall	80003520 <OS_TaskStat+0xa0>
800034d2:	f0 1f 00 12 	mcall	80003518 <OS_TaskStat+0x98>
800034d6:	68 08       	ld.w	r8,r4[0x0]
800034d8:	89 02       	st.w	r4[0x0],r2
800034da:	8b 08       	st.w	r5[0x0],r8
800034dc:	f0 1f 00 11 	mcall	80003520 <OS_TaskStat+0xa0>
800034e0:	6a 08       	ld.w	r8,r5[0x0]
800034e2:	62 09       	ld.w	r9,r1[0x0]
800034e4:	f0 09 0d 08 	divu	r8,r8,r9
800034e8:	f0 0a 11 64 	rsub	r10,r8,100
800034ec:	a6 8a       	st.b	r3[0x0],r10
800034ee:	f0 1f 00 0e 	mcall	80003524 <OS_TaskStat+0xa4>
800034f2:	f0 1f 00 0e 	mcall	80003528 <OS_TaskStat+0xa8>
800034f6:	30 ac       	mov	r12,10
800034f8:	f0 1f 00 03 	mcall	80003504 <OS_TaskStat+0x84>
800034fc:	ce bb       	rjmp	800034d2 <OS_TaskStat+0x52>
800034fe:	00 00       	add	r0,r0
80003500:	00 00       	add	r0,r0
80003502:	4b 34       	lddpc	r4,800035cc <OSTimeTick+0x78>
80003504:	80 00       	ld.sh	r0,r0[0x0]
80003506:	41 4c       	lddsp	r12,sp[0x50]
80003508:	00 00       	add	r0,r0
8000350a:	3c 5c       	mov	r12,-59
8000350c:	00 00       	add	r0,r0
8000350e:	3c 64       	mov	r4,-58
80003510:	80 00       	ld.sh	r0,r0[0x0]
80003512:	3f 24       	mov	r4,-14
80003514:	00 00       	add	r0,r0
80003516:	36 f8       	mov	r8,111
80003518:	80 00       	ld.sh	r0,r0[0x0]
8000351a:	2b e4       	sub	r4,-66
8000351c:	00 00       	add	r0,r0
8000351e:	4c 38       	lddpc	r8,80003628 <OSTimeTick+0xd4>
80003520:	80 00       	ld.sh	r0,r0[0x0]
80003522:	2b f0       	sub	r0,-65
80003524:	80 00       	ld.sh	r0,r0[0x0]
80003526:	2d 8a       	sub	r10,-40
80003528:	80 00       	ld.sh	r0,r0[0x0]
8000352a:	33 ec       	mov	r12,62

8000352c <OS_TaskIdle>:
8000352c:	d4 21       	pushm	r4-r7,lr
8000352e:	48 67       	lddpc	r7,80003544 <OS_TaskIdle+0x18>
80003530:	f0 1f 00 06 	mcall	80003548 <OS_TaskIdle+0x1c>
80003534:	6e 08       	ld.w	r8,r7[0x0]
80003536:	2f f8       	sub	r8,-1
80003538:	8f 08       	st.w	r7[0x0],r8
8000353a:	f0 1f 00 05 	mcall	8000354c <OS_TaskIdle+0x20>
8000353e:	f0 1f 00 05 	mcall	80003550 <OS_TaskIdle+0x24>
80003542:	cf 7b       	rjmp	80003530 <OS_TaskIdle+0x4>
80003544:	00 00       	add	r0,r0
80003546:	36 f8       	mov	r8,111
80003548:	80 00       	ld.sh	r0,r0[0x0]
8000354a:	2b e4       	sub	r4,-66
8000354c:	80 00       	ld.sh	r0,r0[0x0]
8000354e:	2b f0       	sub	r0,-65
80003550:	80 00       	ld.sh	r0,r0[0x0]
80003552:	2d 88       	sub	r8,-40

80003554 <OSTimeTick>:
80003554:	d4 31       	pushm	r0-r7,lr
80003556:	f0 1f 00 2f 	mcall	80003610 <OSTimeTick+0xbc>
8000355a:	f0 1f 00 2f 	mcall	80003614 <OSTimeTick+0xc0>
8000355e:	4a f8       	lddpc	r8,80003618 <OSTimeTick+0xc4>
80003560:	70 09       	ld.w	r9,r8[0x0]
80003562:	2f f9       	sub	r9,-1
80003564:	91 09       	st.w	r8[0x0],r9
80003566:	f0 1f 00 2e 	mcall	8000361c <OSTimeTick+0xc8>
8000356a:	4a e8       	lddpc	r8,80003620 <OSTimeTick+0xcc>
8000356c:	11 8b       	ld.ub	r11,r8[0x0]
8000356e:	30 18       	mov	r8,1
80003570:	f0 0b 18 00 	cp.b	r11,r8
80003574:	c4 d1       	brne	8000360e <OSTimeTick+0xba>
80003576:	4a c8       	lddpc	r8,80003624 <OSTimeTick+0xd0>
80003578:	11 89       	ld.ub	r9,r8[0x0]
8000357a:	f6 09 18 00 	cp.b	r9,r11
8000357e:	c4 80       	breq	8000360e <OSTimeTick+0xba>
80003580:	c0 a3       	brcs	80003594 <OSTimeTick+0x40>
80003582:	30 2a       	mov	r10,2
80003584:	f4 09 18 00 	cp.b	r9,r10
80003588:	f1 fb 0e 00 	st.beq	r8[0x0],r11
8000358c:	f9 b9 01 00 	movne	r9,0
80003590:	f1 f9 1e 00 	st.bne	r8[0x0],r9
80003594:	4a 58       	lddpc	r8,80003628 <OSTimeTick+0xd4>
80003596:	33 f3       	mov	r3,63
80003598:	70 07       	ld.w	r7,r8[0x0]
8000359a:	4a 55       	lddpc	r5,8000362c <OSTimeTick+0xd8>
8000359c:	4a 56       	lddpc	r6,80003630 <OSTimeTick+0xdc>
8000359e:	30 14       	mov	r4,1
800035a0:	c3 28       	rjmp	80003604 <OSTimeTick+0xb0>
800035a2:	f0 1f 00 1d 	mcall	80003614 <OSTimeTick+0xc0>
800035a6:	6f 19       	ld.w	r9,r7[0x44]
800035a8:	f2 c8 00 01 	sub	r8,r9,1
800035ac:	58 09       	cp.w	r9,0
800035ae:	c2 80       	breq	800035fe <OSTimeTick+0xaa>
800035b0:	ef 48 00 44 	st.w	r7[68],r8
800035b4:	58 08       	cp.w	r8,0
800035b6:	c2 41       	brne	800035fe <OSTimeTick+0xaa>
800035b8:	ef 38 00 48 	ld.ub	r8,r7[72]
800035bc:	10 99       	mov	r9,r8
800035be:	e2 18 00 37 	andl	r8,0x37,COH
800035c2:	e0 19 ff c8 	andl	r9,0xffc8
800035c6:	58 08       	cp.w	r8,0
800035c8:	ef f9 1e 48 	st.bne	r7[0x48],r9
800035cc:	ef f4 1e 49 	st.bne	r7[0x49],r4
800035d0:	ef f8 0e 49 	st.beq	r7[0x49],r8
800035d4:	ef 38 00 48 	ld.ub	r8,r7[72]
800035d8:	ed b8 00 03 	bld	r8,0x3
800035dc:	c1 10       	breq	800035fe <OSTimeTick+0xaa>
800035de:	ef 39 00 4e 	ld.ub	r9,r7[78]
800035e2:	0b 88       	ld.ub	r8,r5[0x0]
800035e4:	f3 e8 10 08 	or	r8,r9,r8
800035e8:	aa 88       	st.b	r5[0x0],r8
800035ea:	ef 38 00 4c 	ld.ub	r8,r7[76]
800035ee:	ef 39 00 4d 	ld.ub	r9,r7[77]
800035f2:	ec 08 07 0a 	ld.ub	r10,r6[r8]
800035f6:	f5 e9 10 09 	or	r9,r10,r9
800035fa:	ec 08 0b 09 	st.b	r6[r8],r9
800035fe:	6e 57       	ld.w	r7,r7[0x14]
80003600:	f0 1f 00 07 	mcall	8000361c <OSTimeTick+0xc8>
80003604:	ef 38 00 4a 	ld.ub	r8,r7[74]
80003608:	e6 08 18 00 	cp.b	r8,r3
8000360c:	cc b1       	brne	800035a2 <OSTimeTick+0x4e>
8000360e:	d8 32       	popm	r0-r7,pc
80003610:	80 00       	ld.sh	r0,r0[0x0]
80003612:	2e 68       	sub	r8,-26
80003614:	80 00       	ld.sh	r0,r0[0x0]
80003616:	2b e4       	sub	r4,-66
80003618:	00 00       	add	r0,r0
8000361a:	3e f0       	mov	r0,-17
8000361c:	80 00       	ld.sh	r0,r0[0x0]
8000361e:	2b f0       	sub	r0,-65
80003620:	00 00       	add	r0,r0
80003622:	36 f5       	mov	r5,111
80003624:	00 00       	add	r0,r0
80003626:	3a 50       	mov	r0,-91
80003628:	00 00       	add	r0,r0
8000362a:	39 d4       	mov	r4,-99
8000362c:	00 00       	add	r0,r0
8000362e:	3c d4       	mov	r4,-51
80003630:	00 00       	add	r0,r0
80003632:	3c d8       	mov	r8,-51

80003634 <OSStart>:
80003634:	d4 01       	pushm	lr
80003636:	49 18       	lddpc	r8,80003678 <OSStart+0x44>
80003638:	11 89       	ld.ub	r9,r8[0x0]
8000363a:	30 08       	mov	r8,0
8000363c:	f0 09 18 00 	cp.b	r9,r8
80003640:	c1 b1       	brne	80003676 <OSStart+0x42>
80003642:	48 f9       	lddpc	r9,8000367c <OSStart+0x48>
80003644:	48 f8       	lddpc	r8,80003680 <OSStart+0x4c>
80003646:	49 0a       	lddpc	r10,80003684 <OSStart+0x50>
80003648:	11 88       	ld.ub	r8,r8[0x0]
8000364a:	f2 08 07 08 	ld.ub	r8,r9[r8]
8000364e:	f4 08 07 0a 	ld.ub	r10,r10[r8]
80003652:	f2 0a 07 09 	ld.ub	r9,r9[r10]
80003656:	f2 08 00 38 	add	r8,r9,r8<<0x3
8000365a:	48 c9       	lddpc	r9,80003688 <OSStart+0x54>
8000365c:	5c 58       	castu.b	r8
8000365e:	b2 88       	st.b	r9[0x0],r8
80003660:	48 b9       	lddpc	r9,8000368c <OSStart+0x58>
80003662:	b2 88       	st.b	r9[0x0],r8
80003664:	48 b9       	lddpc	r9,80003690 <OSStart+0x5c>
80003666:	f2 08 03 28 	ld.w	r8,r9[r8<<0x2]
8000366a:	48 b9       	lddpc	r9,80003694 <OSStart+0x60>
8000366c:	93 08       	st.w	r9[0x0],r8
8000366e:	48 b9       	lddpc	r9,80003698 <OSStart+0x64>
80003670:	93 08       	st.w	r9[0x0],r8
80003672:	f0 1f 00 0b 	mcall	8000369c <OSStart+0x68>
80003676:	d8 02       	popm	pc
80003678:	00 00       	add	r0,r0
8000367a:	36 f5       	mov	r5,111
8000367c:	80 00       	ld.sh	r0,r0[0x0]
8000367e:	2e 90       	sub	r0,-23
80003680:	00 00       	add	r0,r0
80003682:	3c d4       	mov	r4,-51
80003684:	00 00       	add	r0,r0
80003686:	3c d8       	mov	r8,-51
80003688:	00 00       	add	r0,r0
8000368a:	36 fe       	mov	lr,111
8000368c:	00 00       	add	r0,r0
8000368e:	39 d0       	mov	r0,-99
80003690:	00 00       	add	r0,r0
80003692:	4b 38       	lddpc	r8,8000375c <OSIntExit+0xbc>
80003694:	00 00       	add	r0,r0
80003696:	3c cc       	mov	r12,-52
80003698:	00 00       	add	r0,r0
8000369a:	3e e8       	mov	r8,-18
8000369c:	80 00       	ld.sh	r0,r0[0x0]
8000369e:	2e 18       	sub	r8,-31

800036a0 <OSIntExit>:
800036a0:	d4 01       	pushm	lr
800036a2:	20 1d       	sub	sp,4
800036a4:	4a 28       	lddpc	r8,8000372c <OSIntExit+0x8c>
800036a6:	11 89       	ld.ub	r9,r8[0x0]
800036a8:	30 18       	mov	r8,1
800036aa:	f0 09 18 00 	cp.b	r9,r8
800036ae:	c3 c1       	brne	80003726 <OSIntExit+0x86>
800036b0:	f0 1f 00 20 	mcall	80003730 <OSIntExit+0x90>
800036b4:	4a 08       	lddpc	r8,80003734 <OSIntExit+0x94>
800036b6:	11 89       	ld.ub	r9,r8[0x0]
800036b8:	f2 ca 00 01 	sub	r10,r9,1
800036bc:	58 09       	cp.w	r9,0
800036be:	f1 fa 1e 00 	st.bne	r8[0x0],r10
800036c2:	49 d8       	lddpc	r8,80003734 <OSIntExit+0x94>
800036c4:	30 09       	mov	r9,0
800036c6:	11 88       	ld.ub	r8,r8[0x0]
800036c8:	f2 08 18 00 	cp.b	r8,r9
800036cc:	c2 b1       	brne	80003722 <OSIntExit+0x82>
800036ce:	49 b9       	lddpc	r9,80003738 <OSIntExit+0x98>
800036d0:	13 89       	ld.ub	r9,r9[0x0]
800036d2:	f0 09 18 00 	cp.b	r9,r8
800036d6:	c2 61       	brne	80003722 <OSIntExit+0x82>
800036d8:	49 99       	lddpc	r9,8000373c <OSIntExit+0x9c>
800036da:	49 a8       	lddpc	r8,80003740 <OSIntExit+0xa0>
800036dc:	11 88       	ld.ub	r8,r8[0x0]
800036de:	f2 08 07 08 	ld.ub	r8,r9[r8]
800036e2:	49 9a       	lddpc	r10,80003744 <OSIntExit+0xa4>
800036e4:	f4 08 07 0a 	ld.ub	r10,r10[r8]
800036e8:	f2 0a 07 09 	ld.ub	r9,r9[r10]
800036ec:	f2 08 00 39 	add	r9,r9,r8<<0x3
800036f0:	49 68       	lddpc	r8,80003748 <OSIntExit+0xa8>
800036f2:	5c 59       	castu.b	r9
800036f4:	49 6a       	lddpc	r10,8000374c <OSIntExit+0xac>
800036f6:	b0 89       	st.b	r8[0x0],r9
800036f8:	49 68       	lddpc	r8,80003750 <OSIntExit+0xb0>
800036fa:	f0 09 03 28 	ld.w	r8,r8[r9<<0x2]
800036fe:	95 08       	st.w	r10[0x0],r8
80003700:	49 5a       	lddpc	r10,80003754 <OSIntExit+0xb4>
80003702:	15 8a       	ld.ub	r10,r10[0x0]
80003704:	f2 0a 18 00 	cp.b	r10,r9
80003708:	c0 d0       	breq	80003722 <OSIntExit+0x82>
8000370a:	71 49       	ld.w	r9,r8[0x50]
8000370c:	2f f9       	sub	r9,-1
8000370e:	f1 49 00 50 	st.w	r8[80],r9
80003712:	49 28       	lddpc	r8,80003758 <OSIntExit+0xb8>
80003714:	70 09       	ld.w	r9,r8[0x0]
80003716:	2f f9       	sub	r9,-1
80003718:	50 0c       	stdsp	sp[0x0],r12
8000371a:	91 09       	st.w	r8[0x0],r9
8000371c:	f0 1f 00 10 	mcall	8000375c <OSIntExit+0xbc>
80003720:	40 0c       	lddsp	r12,sp[0x0]
80003722:	f0 1f 00 10 	mcall	80003760 <OSIntExit+0xc0>
80003726:	2f fd       	sub	sp,-4
80003728:	d8 02       	popm	pc
8000372a:	00 00       	add	r0,r0
8000372c:	00 00       	add	r0,r0
8000372e:	36 f5       	mov	r5,111
80003730:	80 00       	ld.sh	r0,r0[0x0]
80003732:	2b e4       	sub	r4,-66
80003734:	00 00       	add	r0,r0
80003736:	3e e4       	mov	r4,-18
80003738:	00 00       	add	r0,r0
8000373a:	36 ec       	mov	r12,110
8000373c:	80 00       	ld.sh	r0,r0[0x0]
8000373e:	2e 90       	sub	r0,-23
80003740:	00 00       	add	r0,r0
80003742:	3c d4       	mov	r4,-51
80003744:	00 00       	add	r0,r0
80003746:	3c d8       	mov	r8,-51
80003748:	00 00       	add	r0,r0
8000374a:	36 fe       	mov	lr,111
8000374c:	00 00       	add	r0,r0
8000374e:	3c cc       	mov	r12,-52
80003750:	00 00       	add	r0,r0
80003752:	4b 38       	lddpc	r8,8000381c <OSInit+0xb8>
80003754:	00 00       	add	r0,r0
80003756:	39 d0       	mov	r0,-99
80003758:	00 00       	add	r0,r0
8000375a:	3c 54       	mov	r4,-59
8000375c:	80 00       	ld.sh	r0,r0[0x0]
8000375e:	2e 38       	sub	r8,-29
80003760:	80 00       	ld.sh	r0,r0[0x0]
80003762:	2b f0       	sub	r0,-65

80003764 <OSInit>:
80003764:	d4 21       	pushm	r4-r7,lr
80003766:	20 1d       	sub	sp,4
80003768:	f0 1f 00 3d 	mcall	8000385c <OSInit+0xf8>
8000376c:	4b da       	lddpc	r10,80003860 <OSInit+0xfc>
8000376e:	30 08       	mov	r8,0
80003770:	b4 88       	st.b	r10[0x0],r8
80003772:	4b da       	lddpc	r10,80003864 <OSInit+0x100>
80003774:	b4 88       	st.b	r10[0x0],r8
80003776:	4b da       	lddpc	r10,80003868 <OSInit+0x104>
80003778:	b4 88       	st.b	r10[0x0],r8
8000377a:	4b da       	lddpc	r10,8000386c <OSInit+0x108>
8000377c:	b4 88       	st.b	r10[0x0],r8
8000377e:	4b da       	lddpc	r10,80003870 <OSInit+0x10c>
80003780:	4b d9       	lddpc	r9,80003874 <OSInit+0x110>
80003782:	95 08       	st.w	r10[0x0],r8
80003784:	93 08       	st.w	r9[0x0],r8
80003786:	4b da       	lddpc	r10,80003878 <OSInit+0x114>
80003788:	95 08       	st.w	r10[0x0],r8
8000378a:	4b da       	lddpc	r10,8000387c <OSInit+0x118>
8000378c:	95 08       	st.w	r10[0x0],r8
8000378e:	4b da       	lddpc	r10,80003880 <OSInit+0x11c>
80003790:	95 08       	st.w	r10[0x0],r8
80003792:	4b da       	lddpc	r10,80003884 <OSInit+0x120>
80003794:	b4 88       	st.b	r10[0x0],r8
80003796:	4b da       	lddpc	r10,80003888 <OSInit+0x124>
80003798:	b4 88       	st.b	r10[0x0],r8
8000379a:	4b da       	lddpc	r10,8000388c <OSInit+0x128>
8000379c:	10 99       	mov	r9,r8
8000379e:	b4 88       	st.b	r10[0x0],r8
800037a0:	4b c8       	lddpc	r8,80003890 <OSInit+0x12c>
800037a2:	f0 ca ff f8 	sub	r10,r8,-8
800037a6:	10 c9       	st.b	r8++,r9
800037a8:	14 38       	cp.w	r8,r10
800037aa:	cf e1       	brne	800037a6 <OSInit+0x42>
800037ac:	4b aa       	lddpc	r10,80003894 <OSInit+0x130>
800037ae:	b4 89       	st.b	r10[0x0],r9
800037b0:	4b aa       	lddpc	r10,80003898 <OSInit+0x134>
800037b2:	b4 89       	st.b	r10[0x0],r9
800037b4:	4b a9       	lddpc	r9,8000389c <OSInit+0x138>
800037b6:	30 08       	mov	r8,0
800037b8:	93 08       	st.w	r9[0x0],r8
800037ba:	4b a9       	lddpc	r9,800038a0 <OSInit+0x13c>
800037bc:	10 9b       	mov	r11,r8
800037be:	93 08       	st.w	r9[0x0],r8
800037c0:	4b 98       	lddpc	r8,800038a4 <OSInit+0x140>
800037c2:	f0 ca f6 b8 	sub	r10,r8,-2376
800037c6:	14 99       	mov	r9,r10
800037c8:	10 cb       	st.b	r8++,r11
800037ca:	12 38       	cp.w	r8,r9
800037cc:	cf e1       	brne	800037c8 <OSInit+0x64>
800037ce:	4b 78       	lddpc	r8,800038a8 <OSInit+0x144>
800037d0:	f0 c9 ff 00 	sub	r9,r8,-256
800037d4:	10 cb       	st.b	r8++,r11
800037d6:	12 38       	cp.w	r8,r9
800037d8:	cf e1       	brne	800037d4 <OSInit+0x70>
800037da:	4b 38       	lddpc	r8,800038a4 <OSInit+0x140>
800037dc:	4b 49       	lddpc	r9,800038ac <OSInit+0x148>
800037de:	29 48       	sub	r8,-108
800037e0:	f1 48 ff a8 	st.w	r8[-88],r8
800037e4:	f1 49 ff f8 	st.w	r8[-8],r9
800037e8:	29 48       	sub	r8,-108
800037ea:	14 38       	cp.w	r8,r10
800037ec:	cf a1       	brne	800037e0 <OSInit+0x7c>
800037ee:	4a e8       	lddpc	r8,800038a4 <OSInit+0x140>
800037f0:	f1 49 09 40 	st.w	r8[2368],r9
800037f4:	30 09       	mov	r9,0
800037f6:	f1 49 08 f0 	st.w	r8[2288],r9
800037fa:	4a eb       	lddpc	r11,800038b0 <OSInit+0x14c>
800037fc:	12 9a       	mov	r10,r9
800037fe:	97 09       	st.w	r11[0x0],r9
80003800:	4a d9       	lddpc	r9,800038b4 <OSInit+0x150>
80003802:	93 08       	st.w	r9[0x0],r8
80003804:	4a d8       	lddpc	r8,800038b8 <OSInit+0x154>
80003806:	f0 cb ff 10 	sub	r11,r8,-240
8000380a:	16 99       	mov	r9,r11
8000380c:	10 ca       	st.b	r8++,r10
8000380e:	12 38       	cp.w	r8,r9
80003810:	cf e1       	brne	8000380c <OSInit+0xa8>
80003812:	4a a8       	lddpc	r8,800038b8 <OSInit+0x154>
80003814:	4a 69       	lddpc	r9,800038ac <OSInit+0x148>
80003816:	2e 88       	sub	r8,-24
80003818:	f1 6a ff e8 	st.b	r8[-24],r10
8000381c:	f1 48 ff ec 	st.w	r8[-20],r8
80003820:	f1 49 ff fc 	st.w	r8[-4],r9
80003824:	2e 88       	sub	r8,-24
80003826:	16 38       	cp.w	r8,r11
80003828:	cf 81       	brne	80003818 <OSInit+0xb4>
8000382a:	4a 48       	lddpc	r8,800038b8 <OSInit+0x154>
8000382c:	f1 6a 00 d8 	st.b	r8[216],r10
80003830:	f1 49 00 ec 	st.w	r8[236],r9
80003834:	4a 29       	lddpc	r9,800038bc <OSInit+0x158>
80003836:	30 07       	mov	r7,0
80003838:	93 08       	st.w	r9[0x0],r8
8000383a:	f1 47 00 dc 	st.w	r8[220],r7
8000383e:	f0 1f 00 21 	mcall	800038c0 <OSInit+0x15c>
80003842:	f0 1f 00 21 	mcall	800038c4 <OSInit+0x160>
80003846:	f0 1f 00 21 	mcall	800038c8 <OSInit+0x164>
8000384a:	4a 1b       	lddpc	r11,800038cc <OSInit+0x168>
8000384c:	e0 68 ff ff 	mov	r8,65535
80003850:	33 f9       	mov	r9,63
80003852:	f6 ca fe 04 	sub	r10,r11,-508
80003856:	30 36       	mov	r6,3
80003858:	c3 c8       	rjmp	800038d0 <OSInit+0x16c>
8000385a:	00 00       	add	r0,r0
8000385c:	80 00       	ld.sh	r0,r0[0x0]
8000385e:	2d 78       	sub	r8,-41
80003860:	00 00       	add	r0,r0
80003862:	3e e4       	mov	r4,-18
80003864:	00 00       	add	r0,r0
80003866:	36 ec       	mov	r12,110
80003868:	00 00       	add	r0,r0
8000386a:	3c 65       	mov	r5,-58
8000386c:	00 00       	add	r0,r0
8000386e:	36 f5       	mov	r5,111
80003870:	00 00       	add	r0,r0
80003872:	3c 54       	mov	r4,-59
80003874:	00 00       	add	r0,r0
80003876:	3e f0       	mov	r0,-17
80003878:	00 00       	add	r0,r0
8000387a:	36 f8       	mov	r8,111
8000387c:	00 00       	add	r0,r0
8000387e:	4c 38       	lddpc	r8,80003988 <OS_FlagInit+0x30>
80003880:	00 00       	add	r0,r0
80003882:	3c 5c       	mov	r12,-59
80003884:	00 00       	add	r0,r0
80003886:	4b 34       	lddpc	r4,80003950 <OSInit+0x1ec>
80003888:	00 00       	add	r0,r0
8000388a:	36 f4       	mov	r4,111
8000388c:	00 00       	add	r0,r0
8000388e:	3c d4       	mov	r4,-51
80003890:	00 00       	add	r0,r0
80003892:	3c d8       	mov	r8,-51
80003894:	00 00       	add	r0,r0
80003896:	39 d0       	mov	r0,-99
80003898:	00 00       	add	r0,r0
8000389a:	36 fe       	mov	lr,111
8000389c:	00 00       	add	r0,r0
8000389e:	3c cc       	mov	r12,-52
800038a0:	00 00       	add	r0,r0
800038a2:	3e e8       	mov	r8,-18
800038a4:	00 00       	add	r0,r0
800038a6:	41 e8       	lddsp	r8,sp[0x78]
800038a8:	00 00       	add	r0,r0
800038aa:	4b 38       	lddpc	r8,80003974 <OS_FlagInit+0x1c>
800038ac:	80 00       	ld.sh	r0,r0[0x0]
800038ae:	a1 84       	lsr	r4,0x0
800038b0:	00 00       	add	r0,r0
800038b2:	39 d4       	mov	r4,-99
800038b4:	00 00       	add	r0,r0
800038b6:	3c 60       	mov	r0,-58
800038b8:	00 00       	add	r0,r0
800038ba:	40 f8       	lddsp	r8,sp[0x3c]
800038bc:	00 00       	add	r0,r0
800038be:	3e e0       	mov	r0,-18
800038c0:	80 00       	ld.sh	r0,r0[0x0]
800038c2:	39 58       	mov	r8,-107
800038c4:	80 00       	ld.sh	r0,r0[0x0]
800038c6:	39 a8       	mov	r8,-102
800038c8:	80 00       	ld.sh	r0,r0[0x0]
800038ca:	39 ec       	mov	r12,-98
800038cc:	00 00       	add	r0,r0
800038ce:	3e f8       	mov	r8,-17
800038d0:	e0 65 00 80 	mov	r5,128
800038d4:	1a d6       	st.w	--sp,r6
800038d6:	49 6c       	lddpc	r12,8000392c <OSInit+0x1c8>
800038d8:	1a d7       	st.w	--sp,r7
800038da:	1a d5       	st.w	--sp,r5
800038dc:	1a db       	st.w	--sp,r11
800038de:	0e 9b       	mov	r11,r7
800038e0:	f0 1f 00 14 	mcall	80003930 <OSInit+0x1cc>
800038e4:	fa c4 ff ed 	sub	r4,sp,-19
800038e8:	49 3b       	lddpc	r11,80003934 <OSInit+0x1d0>
800038ea:	08 9a       	mov	r10,r4
800038ec:	33 fc       	mov	r12,63
800038ee:	f0 1f 00 13 	mcall	80003938 <OSInit+0x1d4>
800038f2:	e0 68 ff fe 	mov	r8,65534
800038f6:	1a d6       	st.w	--sp,r6
800038f8:	33 e9       	mov	r9,62
800038fa:	1a d7       	st.w	--sp,r7
800038fc:	0e 9b       	mov	r11,r7
800038fe:	1a d5       	st.w	--sp,r5
80003900:	48 fa       	lddpc	r10,8000393c <OSInit+0x1d8>
80003902:	49 0c       	lddpc	r12,80003940 <OSInit+0x1dc>
80003904:	1a da       	st.w	--sp,r10
80003906:	f4 ca fe 04 	sub	r10,r10,-508
8000390a:	f0 1f 00 0a 	mcall	80003930 <OSInit+0x1cc>
8000390e:	08 9a       	mov	r10,r4
80003910:	48 db       	lddpc	r11,80003944 <OSInit+0x1e0>
80003912:	33 ec       	mov	r12,62
80003914:	2f 8d       	sub	sp,-32
80003916:	f0 1f 00 09 	mcall	80003938 <OSInit+0x1d4>
8000391a:	f0 1f 00 0c 	mcall	80003948 <OSInit+0x1e4>
8000391e:	f0 1f 00 0c 	mcall	8000394c <OSInit+0x1e8>
80003922:	f0 1f 00 0c 	mcall	80003950 <OSInit+0x1ec>
80003926:	2f fd       	sub	sp,-4
80003928:	d8 22       	popm	r4-r7,pc
8000392a:	00 00       	add	r0,r0
8000392c:	80 00       	ld.sh	r0,r0[0x0]
8000392e:	35 2c       	mov	r12,82
80003930:	80 00       	ld.sh	r0,r0[0x0]
80003932:	3f c8       	mov	r8,-4
80003934:	80 00       	ld.sh	r0,r0[0x0]
80003936:	a1 88       	lsr	r8,0x0
80003938:	80 00       	ld.sh	r0,r0[0x0]
8000393a:	3e c0       	mov	r0,-20
8000393c:	00 00       	add	r0,r0
8000393e:	3a 54       	mov	r4,-91
80003940:	80 00       	ld.sh	r0,r0[0x0]
80003942:	34 80       	mov	r0,72
80003944:	80 00       	ld.sh	r0,r0[0x0]
80003946:	a1 98       	lsr	r8,0x1
80003948:	80 00       	ld.sh	r0,r0[0x0]
8000394a:	42 74       	lddsp	r4,sp[0x9c]
8000394c:	80 00       	ld.sh	r0,r0[0x0]
8000394e:	2d 84       	sub	r4,-40
80003950:	80 00       	ld.sh	r0,r0[0x0]
80003952:	39 54       	mov	r4,-107

80003954 <OSDebugInit>:
80003954:	5e fc       	retal	r12
80003956:	d7 03       	nop

80003958 <OS_FlagInit>:
80003958:	d4 21       	pushm	r4-r7,lr
8000395a:	49 07       	lddpc	r7,80003998 <OS_FlagInit+0x40>
8000395c:	35 0b       	mov	r11,80
8000395e:	0e 9c       	mov	r12,r7
80003960:	f0 1f 00 0f 	mcall	8000399c <OS_FlagInit+0x44>
80003964:	ee c8 ff b0 	sub	r8,r7,-80
80003968:	30 0a       	mov	r10,0
8000396a:	2f 07       	sub	r7,-16
8000396c:	48 d9       	lddpc	r9,800039a0 <OS_FlagInit+0x48>
8000396e:	ef 6a ff f0 	st.b	r7[-16],r10
80003972:	ef 47 ff f4 	st.w	r7[-12],r7
80003976:	ef 49 ff fc 	st.w	r7[-4],r9
8000397a:	2f 07       	sub	r7,-16
8000397c:	10 37       	cp.w	r7,r8
8000397e:	cf 81       	brne	8000396e <OS_FlagInit+0x16>
80003980:	48 68       	lddpc	r8,80003998 <OS_FlagInit+0x40>
80003982:	f1 6a 00 40 	st.b	r8[64],r10
80003986:	f1 49 00 4c 	st.w	r8[76],r9
8000398a:	30 09       	mov	r9,0
8000398c:	f1 49 00 44 	st.w	r8[68],r9
80003990:	48 59       	lddpc	r9,800039a4 <OS_FlagInit+0x4c>
80003992:	93 08       	st.w	r9[0x0],r8
80003994:	d8 22       	popm	r4-r7,pc
80003996:	00 00       	add	r0,r0
80003998:	00 00       	add	r0,r0
8000399a:	37 00       	mov	r0,112
8000399c:	80 00       	ld.sh	r0,r0[0x0]
8000399e:	31 20       	mov	r0,18
800039a0:	80 00       	ld.sh	r0,r0[0x0]
800039a2:	a1 84       	lsr	r4,0x0
800039a4:	00 00       	add	r0,r0
800039a6:	4b 30       	lddpc	r0,80003a70 <OSQPost+0x4c>

800039a8 <OS_MemInit>:
800039a8:	d4 21       	pushm	r4-r7,lr
800039aa:	48 d7       	lddpc	r7,800039dc <OS_MemInit+0x34>
800039ac:	37 8b       	mov	r11,120
800039ae:	0e 9c       	mov	r12,r7
800039b0:	f0 1f 00 0c 	mcall	800039e0 <OS_MemInit+0x38>
800039b4:	ee c8 ff 88 	sub	r8,r7,-120
800039b8:	48 b9       	lddpc	r9,800039e4 <OS_MemInit+0x3c>
800039ba:	2e 87       	sub	r7,-24
800039bc:	ef 47 ff ec 	st.w	r7[-20],r7
800039c0:	ef 49 ff fc 	st.w	r7[-4],r9
800039c4:	2e 87       	sub	r7,-24
800039c6:	10 37       	cp.w	r7,r8
800039c8:	cf a1       	brne	800039bc <OS_MemInit+0x14>
800039ca:	48 58       	lddpc	r8,800039dc <OS_MemInit+0x34>
800039cc:	f1 49 00 74 	st.w	r8[116],r9
800039d0:	30 09       	mov	r9,0
800039d2:	f1 49 00 64 	st.w	r8[100],r9
800039d6:	48 59       	lddpc	r9,800039e8 <OS_MemInit+0x40>
800039d8:	93 08       	st.w	r9[0x0],r8
800039da:	d8 22       	popm	r4-r7,pc
800039dc:	00 00       	add	r0,r0
800039de:	39 d8       	mov	r8,-99
800039e0:	80 00       	ld.sh	r0,r0[0x0]
800039e2:	31 20       	mov	r0,18
800039e4:	80 00       	ld.sh	r0,r0[0x0]
800039e6:	a1 84       	lsr	r4,0x0
800039e8:	00 00       	add	r0,r0
800039ea:	3c 68       	mov	r8,-58

800039ec <OS_QInit>:
800039ec:	d4 21       	pushm	r4-r7,lr
800039ee:	48 b7       	lddpc	r7,80003a18 <OS_QInit+0x2c>
800039f0:	36 0b       	mov	r11,96
800039f2:	0e 9c       	mov	r12,r7
800039f4:	f0 1f 00 0a 	mcall	80003a1c <OS_QInit+0x30>
800039f8:	ee c8 ff a0 	sub	r8,r7,-96
800039fc:	2e 87       	sub	r7,-24
800039fe:	ef 47 ff e8 	st.w	r7[-24],r7
80003a02:	2e 87       	sub	r7,-24
80003a04:	10 37       	cp.w	r7,r8
80003a06:	cf c1       	brne	800039fe <OS_QInit+0x12>
80003a08:	48 48       	lddpc	r8,80003a18 <OS_QInit+0x2c>
80003a0a:	30 09       	mov	r9,0
80003a0c:	f1 49 00 48 	st.w	r8[72],r9
80003a10:	48 49       	lddpc	r9,80003a20 <OS_QInit+0x34>
80003a12:	93 08       	st.w	r9[0x0],r8
80003a14:	d8 22       	popm	r4-r7,pc
80003a16:	00 00       	add	r0,r0
80003a18:	00 00       	add	r0,r0
80003a1a:	3c 6c       	mov	r12,-58
80003a1c:	80 00       	ld.sh	r0,r0[0x0]
80003a1e:	31 20       	mov	r0,18
80003a20:	00 00       	add	r0,r0
80003a22:	3c d0       	mov	r0,-51

80003a24 <OSQPost>:
80003a24:	d4 21       	pushm	r4-r7,lr
80003a26:	20 1d       	sub	sp,4
80003a28:	30 28       	mov	r8,2
80003a2a:	18 96       	mov	r6,r12
80003a2c:	19 89       	ld.ub	r9,r12[0x0]
80003a2e:	f0 09 18 00 	cp.b	r9,r8
80003a32:	c0 30       	breq	80003a38 <OSQPost+0x14>
80003a34:	30 1c       	mov	r12,1
80003a36:	c3 28       	rjmp	80003a9a <OSQPost+0x76>
80003a38:	50 0b       	stdsp	sp[0x0],r11
80003a3a:	f0 1f 00 1a 	mcall	80003aa0 <OSQPost+0x7c>
80003a3e:	ed 39 00 0a 	ld.ub	r9,r6[10]
80003a42:	18 97       	mov	r7,r12
80003a44:	30 08       	mov	r8,0
80003a46:	40 0b       	lddsp	r11,sp[0x0]
80003a48:	f0 09 18 00 	cp.b	r9,r8
80003a4c:	c0 c0       	breq	80003a64 <OSQPost+0x40>
80003a4e:	30 09       	mov	r9,0
80003a50:	30 4a       	mov	r10,4
80003a52:	0c 9c       	mov	r12,r6
80003a54:	f0 1f 00 14 	mcall	80003aa4 <OSQPost+0x80>
80003a58:	0e 9c       	mov	r12,r7
80003a5a:	f0 1f 00 14 	mcall	80003aa8 <OSQPost+0x84>
80003a5e:	f0 1f 00 14 	mcall	80003aac <OSQPost+0x88>
80003a62:	c1 b8       	rjmp	80003a98 <OSQPost+0x74>
80003a64:	6c 18       	ld.w	r8,r6[0x4]
80003a66:	f1 09 00 16 	ld.sh	r9,r8[22]
80003a6a:	f1 0a 00 14 	ld.sh	r10,r8[20]
80003a6e:	f4 09 19 00 	cp.h	r9,r10
80003a72:	c0 53       	brcs	80003a7c <OSQPost+0x58>
80003a74:	f0 1f 00 0d 	mcall	80003aa8 <OSQPost+0x84>
80003a78:	31 ec       	mov	r12,30
80003a7a:	c1 08       	rjmp	80003a9a <OSQPost+0x76>
80003a7c:	2f f9       	sub	r9,-1
80003a7e:	f1 59 00 16 	st.h	r8[22],r9
80003a82:	70 39       	ld.w	r9,r8[0xc]
80003a84:	12 ab       	st.w	r9++,r11
80003a86:	91 39       	st.w	r8[0xc],r9
80003a88:	70 2a       	ld.w	r10,r8[0x8]
80003a8a:	14 39       	cp.w	r9,r10
80003a8c:	f1 f9 00 01 	ld.weq	r9,r8[0x4]
80003a90:	f1 f9 0a 03 	st.weq	r8[0xc],r9
80003a94:	f0 1f 00 05 	mcall	80003aa8 <OSQPost+0x84>
80003a98:	30 0c       	mov	r12,0
80003a9a:	2f fd       	sub	sp,-4
80003a9c:	d8 22       	popm	r4-r7,pc
80003a9e:	00 00       	add	r0,r0
80003aa0:	80 00       	ld.sh	r0,r0[0x0]
80003aa2:	2b e4       	sub	r4,-66
80003aa4:	80 00       	ld.sh	r0,r0[0x0]
80003aa6:	2f 90       	sub	r0,-7
80003aa8:	80 00       	ld.sh	r0,r0[0x0]
80003aaa:	2b f0       	sub	r0,-65
80003aac:	80 00       	ld.sh	r0,r0[0x0]
80003aae:	31 30       	mov	r0,19

80003ab0 <OSQPend>:
80003ab0:	d4 31       	pushm	r0-r7,lr
80003ab2:	30 28       	mov	r8,2
80003ab4:	19 89       	ld.ub	r9,r12[0x0]
80003ab6:	18 97       	mov	r7,r12
80003ab8:	16 95       	mov	r5,r11
80003aba:	14 96       	mov	r6,r10
80003abc:	12 93       	mov	r3,r9
80003abe:	f0 09 18 00 	cp.b	r9,r8
80003ac2:	c0 30       	breq	80003ac8 <OSQPend+0x18>
80003ac4:	30 18       	mov	r8,1
80003ac6:	c1 08       	rjmp	80003ae6 <OSQPend+0x36>
80003ac8:	4b 58       	lddpc	r8,80003b9c <OSQPend+0xec>
80003aca:	30 0a       	mov	r10,0
80003acc:	11 88       	ld.ub	r8,r8[0x0]
80003ace:	f4 08 18 00 	cp.b	r8,r10
80003ad2:	c0 40       	breq	80003ada <OSQPend+0x2a>
80003ad4:	ac 89       	st.b	r6[0x0],r9
80003ad6:	30 07       	mov	r7,0
80003ad8:	c5 f8       	rjmp	80003b96 <OSQPend+0xe6>
80003ada:	4b 29       	lddpc	r9,80003ba0 <OSQPend+0xf0>
80003adc:	13 82       	ld.ub	r2,r9[0x0]
80003ade:	f0 02 18 00 	cp.b	r2,r8
80003ae2:	c0 40       	breq	80003aea <OSQPend+0x3a>
80003ae4:	30 d8       	mov	r8,13
80003ae6:	ac 88       	st.b	r6[0x0],r8
80003ae8:	cf 7b       	rjmp	80003ad6 <OSQPend+0x26>
80003aea:	f0 1f 00 2f 	mcall	80003ba4 <OSQPend+0xf4>
80003aee:	6e 18       	ld.w	r8,r7[0x4]
80003af0:	18 90       	mov	r0,r12
80003af2:	f1 04 00 16 	ld.sh	r4,r8[22]
80003af6:	30 09       	mov	r9,0
80003af8:	f2 04 19 00 	cp.h	r4,r9
80003afc:	c1 20       	breq	80003b20 <OSQPend+0x70>
80003afe:	70 49       	ld.w	r9,r8[0x10]
80003b00:	13 07       	ld.w	r7,r9++
80003b02:	91 49       	st.w	r8[0x10],r9
80003b04:	70 2a       	ld.w	r10,r8[0x8]
80003b06:	14 39       	cp.w	r9,r10
80003b08:	f1 f9 00 01 	ld.weq	r9,r8[0x4]
80003b0c:	f1 f9 0a 04 	st.weq	r8[0x10],r9
80003b10:	20 14       	sub	r4,1
80003b12:	f1 54 00 16 	st.h	r8[22],r4
80003b16:	f0 1f 00 25 	mcall	80003ba8 <OSQPend+0xf8>
80003b1a:	30 08       	mov	r8,0
80003b1c:	ac 88       	st.b	r6[0x0],r8
80003b1e:	c3 c8       	rjmp	80003b96 <OSQPend+0xe6>
80003b20:	4a 31       	lddpc	r1,80003bac <OSQPend+0xfc>
80003b22:	62 08       	ld.w	r8,r1[0x0]
80003b24:	f1 39 00 48 	ld.ub	r9,r8[72]
80003b28:	a3 a9       	sbr	r9,0x2
80003b2a:	f1 45 00 44 	st.w	r8[68],r5
80003b2e:	f1 64 00 49 	st.b	r8[73],r4
80003b32:	f1 69 00 48 	st.b	r8[72],r9
80003b36:	0e 9c       	mov	r12,r7
80003b38:	f0 1f 00 1e 	mcall	80003bb0 <OSQPend+0x100>
80003b3c:	00 9c       	mov	r12,r0
80003b3e:	f0 1f 00 1b 	mcall	80003ba8 <OSQPend+0xf8>
80003b42:	f0 1f 00 1d 	mcall	80003bb4 <OSQPend+0x104>
80003b46:	f0 1f 00 18 	mcall	80003ba4 <OSQPend+0xf4>
80003b4a:	18 95       	mov	r5,r12
80003b4c:	62 0c       	ld.w	r12,r1[0x0]
80003b4e:	f9 38 00 49 	ld.ub	r8,r12[73]
80003b52:	e4 08 18 00 	cp.b	r8,r2
80003b56:	c0 50       	breq	80003b60 <OSQPend+0xb0>
80003b58:	e6 08 18 00 	cp.b	r8,r3
80003b5c:	c0 91       	brne	80003b6e <OSQPend+0xbe>
80003b5e:	c0 48       	rjmp	80003b66 <OSQPend+0xb6>
80003b60:	78 e7       	ld.w	r7,r12[0x38]
80003b62:	ac 84       	st.b	r6[0x0],r4
80003b64:	c0 b8       	rjmp	80003b7a <OSQPend+0xca>
80003b66:	30 e8       	mov	r8,14
80003b68:	30 07       	mov	r7,0
80003b6a:	ac 88       	st.b	r6[0x0],r8
80003b6c:	c0 78       	rjmp	80003b7a <OSQPend+0xca>
80003b6e:	0e 9b       	mov	r11,r7
80003b70:	f0 1f 00 12 	mcall	80003bb8 <OSQPend+0x108>
80003b74:	30 a8       	mov	r8,10
80003b76:	30 07       	mov	r7,0
80003b78:	ac 88       	st.b	r6[0x0],r8
80003b7a:	30 09       	mov	r9,0
80003b7c:	30 0a       	mov	r10,0
80003b7e:	48 c8       	lddpc	r8,80003bac <OSQPend+0xfc>
80003b80:	70 08       	ld.w	r8,r8[0x0]
80003b82:	0a 9c       	mov	r12,r5
80003b84:	91 e9       	st.w	r8[0x38],r9
80003b86:	f1 6a 00 49 	st.b	r8[73],r10
80003b8a:	f1 6a 00 48 	st.b	r8[72],r10
80003b8e:	91 c9       	st.w	r8[0x30],r9
80003b90:	91 d9       	st.w	r8[0x34],r9
80003b92:	f0 1f 00 06 	mcall	80003ba8 <OSQPend+0xf8>
80003b96:	0e 9c       	mov	r12,r7
80003b98:	d8 32       	popm	r0-r7,pc
80003b9a:	00 00       	add	r0,r0
80003b9c:	00 00       	add	r0,r0
80003b9e:	3e e4       	mov	r4,-18
80003ba0:	00 00       	add	r0,r0
80003ba2:	36 ec       	mov	r12,110
80003ba4:	80 00       	ld.sh	r0,r0[0x0]
80003ba6:	2b e4       	sub	r4,-66
80003ba8:	80 00       	ld.sh	r0,r0[0x0]
80003baa:	2b f0       	sub	r0,-65
80003bac:	00 00       	add	r0,r0
80003bae:	3e e8       	mov	r8,-18
80003bb0:	80 00       	ld.sh	r0,r0[0x0]
80003bb2:	30 70       	mov	r0,7
80003bb4:	80 00       	ld.sh	r0,r0[0x0]
80003bb6:	31 30       	mov	r0,19
80003bb8:	80 00       	ld.sh	r0,r0[0x0]
80003bba:	30 d4       	mov	r4,13

80003bbc <OSQCreate>:
80003bbc:	d4 21       	pushm	r4-r7,lr
80003bbe:	4a 18       	lddpc	r8,80003c40 <OSQCreate+0x84>
80003bc0:	18 97       	mov	r7,r12
80003bc2:	11 89       	ld.ub	r9,r8[0x0]
80003bc4:	16 94       	mov	r4,r11
80003bc6:	30 08       	mov	r8,0
80003bc8:	f0 09 18 00 	cp.b	r9,r8
80003bcc:	c0 30       	breq	80003bd2 <OSQCreate+0x16>
80003bce:	30 06       	mov	r6,0
80003bd0:	c3 58       	rjmp	80003c3a <OSQCreate+0x7e>
80003bd2:	f0 1f 00 1d 	mcall	80003c44 <OSQCreate+0x88>
80003bd6:	49 d8       	lddpc	r8,80003c48 <OSQCreate+0x8c>
80003bd8:	70 06       	ld.w	r6,r8[0x0]
80003bda:	58 06       	cp.w	r6,0
80003bdc:	ed f9 10 01 	ld.wne	r9,r6[0x4]
80003be0:	f1 f9 1a 00 	st.wne	r8[0x0],r9
80003be4:	f0 1f 00 1a 	mcall	80003c4c <OSQCreate+0x90>
80003be8:	58 06       	cp.w	r6,0
80003bea:	c2 80       	breq	80003c3a <OSQCreate+0x7e>
80003bec:	f0 1f 00 16 	mcall	80003c44 <OSQCreate+0x88>
80003bf0:	49 88       	lddpc	r8,80003c50 <OSQCreate+0x94>
80003bf2:	70 05       	ld.w	r5,r8[0x0]
80003bf4:	58 05       	cp.w	r5,0
80003bf6:	c1 b0       	breq	80003c2c <OSQCreate+0x70>
80003bf8:	6a 09       	ld.w	r9,r5[0x0]
80003bfa:	91 09       	st.w	r8[0x0],r9
80003bfc:	f0 1f 00 14 	mcall	80003c4c <OSQCreate+0x90>
80003c00:	30 08       	mov	r8,0
80003c02:	eb 54 00 14 	st.h	r5[20],r4
80003c06:	eb 58 00 16 	st.h	r5[22],r8
80003c0a:	8b 47       	st.w	r5[0x10],r7
80003c0c:	8b 17       	st.w	r5[0x4],r7
80003c0e:	8b 37       	st.w	r5[0xc],r7
80003c10:	5c 74       	castu.h	r4
80003c12:	ac 48       	st.h	r6[0x8],r8
80003c14:	ee 04 00 27 	add	r7,r7,r4<<0x2
80003c18:	30 28       	mov	r8,2
80003c1a:	8b 27       	st.w	r5[0x8],r7
80003c1c:	ac 88       	st.b	r6[0x0],r8
80003c1e:	48 e8       	lddpc	r8,80003c54 <OSQCreate+0x98>
80003c20:	8d 15       	st.w	r6[0x4],r5
80003c22:	8d 58       	st.w	r6[0x14],r8
80003c24:	0c 9c       	mov	r12,r6
80003c26:	f0 1f 00 0d 	mcall	80003c58 <OSQCreate+0x9c>
80003c2a:	c0 88       	rjmp	80003c3a <OSQCreate+0x7e>
80003c2c:	48 78       	lddpc	r8,80003c48 <OSQCreate+0x8c>
80003c2e:	70 09       	ld.w	r9,r8[0x0]
80003c30:	91 06       	st.w	r8[0x0],r6
80003c32:	8d 19       	st.w	r6[0x4],r9
80003c34:	0a 96       	mov	r6,r5
80003c36:	f0 1f 00 06 	mcall	80003c4c <OSQCreate+0x90>
80003c3a:	0c 9c       	mov	r12,r6
80003c3c:	d8 22       	popm	r4-r7,pc
80003c3e:	00 00       	add	r0,r0
80003c40:	00 00       	add	r0,r0
80003c42:	3e e4       	mov	r4,-18
80003c44:	80 00       	ld.sh	r0,r0[0x0]
80003c46:	2b e4       	sub	r4,-66
80003c48:	00 00       	add	r0,r0
80003c4a:	3e e0       	mov	r0,-18
80003c4c:	80 00       	ld.sh	r0,r0[0x0]
80003c4e:	2b f0       	sub	r0,-65
80003c50:	00 00       	add	r0,r0
80003c52:	3c d0       	mov	r0,-51
80003c54:	80 00       	ld.sh	r0,r0[0x0]
80003c56:	a1 84       	lsr	r4,0x0
80003c58:	80 00       	ld.sh	r0,r0[0x0]
80003c5a:	31 02       	mov	r2,16

80003c5c <OSSemSet>:
80003c5c:	d4 21       	pushm	r4-r7,lr
80003c5e:	30 38       	mov	r8,3
80003c60:	18 97       	mov	r7,r12
80003c62:	16 96       	mov	r6,r11
80003c64:	14 95       	mov	r5,r10
80003c66:	19 89       	ld.ub	r9,r12[0x0]
80003c68:	f0 09 18 00 	cp.b	r9,r8
80003c6c:	c0 40       	breq	80003c74 <OSSemSet+0x18>
80003c6e:	30 18       	mov	r8,1
80003c70:	b4 88       	st.b	r10[0x0],r8
80003c72:	d8 22       	popm	r4-r7,pc
80003c74:	f0 1f 00 0b 	mcall	80003ca0 <OSSemSet+0x44>
80003c78:	30 08       	mov	r8,0
80003c7a:	aa 88       	st.b	r5[0x0],r8
80003c7c:	30 09       	mov	r9,0
80003c7e:	8e 4a       	ld.sh	r10,r7[0x8]
80003c80:	f2 0a 19 00 	cp.h	r10,r9
80003c84:	c0 61       	brne	80003c90 <OSSemSet+0x34>
80003c86:	ef 39 00 0a 	ld.ub	r9,r7[10]
80003c8a:	f0 09 18 00 	cp.b	r9,r8
80003c8e:	c0 31       	brne	80003c94 <OSSemSet+0x38>
80003c90:	ae 46       	st.h	r7[0x8],r6
80003c92:	c0 38       	rjmp	80003c98 <OSSemSet+0x3c>
80003c94:	34 98       	mov	r8,73
80003c96:	aa 88       	st.b	r5[0x0],r8
80003c98:	f0 1f 00 03 	mcall	80003ca4 <OSSemSet+0x48>
80003c9c:	d8 22       	popm	r4-r7,pc
80003c9e:	00 00       	add	r0,r0
80003ca0:	80 00       	ld.sh	r0,r0[0x0]
80003ca2:	2b e4       	sub	r4,-66
80003ca4:	80 00       	ld.sh	r0,r0[0x0]
80003ca6:	2b f0       	sub	r0,-65

80003ca8 <OSSemPost>:
80003ca8:	d4 21       	pushm	r4-r7,lr
80003caa:	30 38       	mov	r8,3
80003cac:	18 96       	mov	r6,r12
80003cae:	19 89       	ld.ub	r9,r12[0x0]
80003cb0:	f0 09 18 00 	cp.b	r9,r8
80003cb4:	c0 20       	breq	80003cb8 <OSSemPost+0x10>
80003cb6:	da 2a       	popm	r4-r7,pc,r12=1
80003cb8:	f0 1f 00 12 	mcall	80003d00 <OSSemPost+0x58>
80003cbc:	ed 39 00 0a 	ld.ub	r9,r6[10]
80003cc0:	18 97       	mov	r7,r12
80003cc2:	30 08       	mov	r8,0
80003cc4:	f0 09 18 00 	cp.b	r9,r8
80003cc8:	c0 d0       	breq	80003ce2 <OSSemPost+0x3a>
80003cca:	30 09       	mov	r9,0
80003ccc:	30 1a       	mov	r10,1
80003cce:	12 9b       	mov	r11,r9
80003cd0:	0c 9c       	mov	r12,r6
80003cd2:	f0 1f 00 0d 	mcall	80003d04 <OSSemPost+0x5c>
80003cd6:	0e 9c       	mov	r12,r7
80003cd8:	f0 1f 00 0c 	mcall	80003d08 <OSSemPost+0x60>
80003cdc:	f0 1f 00 0c 	mcall	80003d0c <OSSemPost+0x64>
80003ce0:	c0 a8       	rjmp	80003cf4 <OSSemPost+0x4c>
80003ce2:	8c 48       	ld.sh	r8,r6[0x8]
80003ce4:	3f f9       	mov	r9,-1
80003ce6:	f2 08 19 00 	cp.h	r8,r9
80003cea:	c0 60       	breq	80003cf6 <OSSemPost+0x4e>
80003cec:	2f f8       	sub	r8,-1
80003cee:	ac 48       	st.h	r6[0x8],r8
80003cf0:	f0 1f 00 06 	mcall	80003d08 <OSSemPost+0x60>
80003cf4:	d8 2a       	popm	r4-r7,pc,r12=0
80003cf6:	f0 1f 00 05 	mcall	80003d08 <OSSemPost+0x60>
80003cfa:	33 3c       	mov	r12,51
80003cfc:	d8 22       	popm	r4-r7,pc
80003cfe:	00 00       	add	r0,r0
80003d00:	80 00       	ld.sh	r0,r0[0x0]
80003d02:	2b e4       	sub	r4,-66
80003d04:	80 00       	ld.sh	r0,r0[0x0]
80003d06:	2f 90       	sub	r0,-7
80003d08:	80 00       	ld.sh	r0,r0[0x0]
80003d0a:	2b f0       	sub	r0,-65
80003d0c:	80 00       	ld.sh	r0,r0[0x0]
80003d0e:	31 30       	mov	r0,19

80003d10 <OSSemPend>:
80003d10:	d4 31       	pushm	r0-r7,lr
80003d12:	30 38       	mov	r8,3
80003d14:	18 97       	mov	r7,r12
80003d16:	16 95       	mov	r5,r11
80003d18:	14 96       	mov	r6,r10
80003d1a:	19 89       	ld.ub	r9,r12[0x0]
80003d1c:	f0 09 18 00 	cp.b	r9,r8
80003d20:	c0 30       	breq	80003d26 <OSSemPend+0x16>
80003d22:	30 18       	mov	r8,1
80003d24:	c1 08       	rjmp	80003d44 <OSSemPend+0x34>
80003d26:	4a a8       	lddpc	r8,80003dcc <OSSemPend+0xbc>
80003d28:	30 09       	mov	r9,0
80003d2a:	11 88       	ld.ub	r8,r8[0x0]
80003d2c:	f2 08 18 00 	cp.b	r8,r9
80003d30:	c0 30       	breq	80003d36 <OSSemPend+0x26>
80003d32:	30 28       	mov	r8,2
80003d34:	c0 88       	rjmp	80003d44 <OSSemPend+0x34>
80003d36:	4a 79       	lddpc	r9,80003dd0 <OSSemPend+0xc0>
80003d38:	13 83       	ld.ub	r3,r9[0x0]
80003d3a:	06 94       	mov	r4,r3
80003d3c:	f0 03 18 00 	cp.b	r3,r8
80003d40:	c0 40       	breq	80003d48 <OSSemPend+0x38>
80003d42:	30 d8       	mov	r8,13
80003d44:	ac 88       	st.b	r6[0x0],r8
80003d46:	d8 32       	popm	r0-r7,pc
80003d48:	f0 1f 00 23 	mcall	80003dd4 <OSSemPend+0xc4>
80003d4c:	8e 49       	ld.sh	r9,r7[0x8]
80003d4e:	18 92       	mov	r2,r12
80003d50:	58 09       	cp.w	r9,0
80003d52:	c0 70       	breq	80003d60 <OSSemPend+0x50>
80003d54:	20 19       	sub	r9,1
80003d56:	ae 49       	st.h	r7[0x8],r9
80003d58:	f0 1f 00 20 	mcall	80003dd8 <OSSemPend+0xc8>
80003d5c:	ac 83       	st.b	r6[0x0],r3
80003d5e:	d8 32       	popm	r0-r7,pc
80003d60:	49 f3       	lddpc	r3,80003ddc <OSSemPend+0xcc>
80003d62:	66 08       	ld.w	r8,r3[0x0]
80003d64:	f1 69 00 49 	st.b	r8[73],r9
80003d68:	f1 39 00 48 	ld.ub	r9,r8[72]
80003d6c:	a1 a9       	sbr	r9,0x0
80003d6e:	f1 45 00 44 	st.w	r8[68],r5
80003d72:	f1 69 00 48 	st.b	r8[72],r9
80003d76:	0e 9c       	mov	r12,r7
80003d78:	f0 1f 00 1a 	mcall	80003de0 <OSSemPend+0xd0>
80003d7c:	04 9c       	mov	r12,r2
80003d7e:	f0 1f 00 17 	mcall	80003dd8 <OSSemPend+0xc8>
80003d82:	f0 1f 00 19 	mcall	80003de4 <OSSemPend+0xd4>
80003d86:	f0 1f 00 14 	mcall	80003dd4 <OSSemPend+0xc4>
80003d8a:	18 95       	mov	r5,r12
80003d8c:	66 0c       	ld.w	r12,r3[0x0]
80003d8e:	f9 38 00 49 	ld.ub	r8,r12[73]
80003d92:	10 99       	mov	r9,r8
80003d94:	e8 08 18 00 	cp.b	r8,r4
80003d98:	c0 b0       	breq	80003dae <OSSemPend+0x9e>
80003d9a:	30 28       	mov	r8,2
80003d9c:	f0 09 18 00 	cp.b	r9,r8
80003da0:	c0 31       	brne	80003da6 <OSSemPend+0x96>
80003da2:	30 e8       	mov	r8,14
80003da4:	c0 58       	rjmp	80003dae <OSSemPend+0x9e>
80003da6:	0e 9b       	mov	r11,r7
80003da8:	f0 1f 00 10 	mcall	80003de8 <OSSemPend+0xd8>
80003dac:	30 a8       	mov	r8,10
80003dae:	ac 88       	st.b	r6[0x0],r8
80003db0:	30 0a       	mov	r10,0
80003db2:	30 09       	mov	r9,0
80003db4:	48 a8       	lddpc	r8,80003ddc <OSSemPend+0xcc>
80003db6:	70 08       	ld.w	r8,r8[0x0]
80003db8:	0a 9c       	mov	r12,r5
80003dba:	91 d9       	st.w	r8[0x34],r9
80003dbc:	f1 6a 00 49 	st.b	r8[73],r10
80003dc0:	f1 6a 00 48 	st.b	r8[72],r10
80003dc4:	91 c9       	st.w	r8[0x30],r9
80003dc6:	f0 1f 00 05 	mcall	80003dd8 <OSSemPend+0xc8>
80003dca:	d8 32       	popm	r0-r7,pc
80003dcc:	00 00       	add	r0,r0
80003dce:	3e e4       	mov	r4,-18
80003dd0:	00 00       	add	r0,r0
80003dd2:	36 ec       	mov	r12,110
80003dd4:	80 00       	ld.sh	r0,r0[0x0]
80003dd6:	2b e4       	sub	r4,-66
80003dd8:	80 00       	ld.sh	r0,r0[0x0]
80003dda:	2b f0       	sub	r0,-65
80003ddc:	00 00       	add	r0,r0
80003dde:	3e e8       	mov	r8,-18
80003de0:	80 00       	ld.sh	r0,r0[0x0]
80003de2:	30 70       	mov	r0,7
80003de4:	80 00       	ld.sh	r0,r0[0x0]
80003de6:	31 30       	mov	r0,19
80003de8:	80 00       	ld.sh	r0,r0[0x0]
80003dea:	30 d4       	mov	r4,13

80003dec <OSSemCreate>:
80003dec:	d4 21       	pushm	r4-r7,lr
80003dee:	49 28       	lddpc	r8,80003e34 <OSSemCreate+0x48>
80003df0:	18 96       	mov	r6,r12
80003df2:	11 89       	ld.ub	r9,r8[0x0]
80003df4:	30 08       	mov	r8,0
80003df6:	f0 09 18 00 	cp.b	r9,r8
80003dfa:	c0 30       	breq	80003e00 <OSSemCreate+0x14>
80003dfc:	30 07       	mov	r7,0
80003dfe:	c1 88       	rjmp	80003e2e <OSSemCreate+0x42>
80003e00:	f0 1f 00 0e 	mcall	80003e38 <OSSemCreate+0x4c>
80003e04:	48 e8       	lddpc	r8,80003e3c <OSSemCreate+0x50>
80003e06:	70 07       	ld.w	r7,r8[0x0]
80003e08:	58 07       	cp.w	r7,0
80003e0a:	ef f9 10 01 	ld.wne	r9,r7[0x4]
80003e0e:	f1 f9 1a 00 	st.wne	r8[0x0],r9
80003e12:	f0 1f 00 0c 	mcall	80003e40 <OSSemCreate+0x54>
80003e16:	58 07       	cp.w	r7,0
80003e18:	c0 b0       	breq	80003e2e <OSSemCreate+0x42>
80003e1a:	30 38       	mov	r8,3
80003e1c:	ae 88       	st.b	r7[0x0],r8
80003e1e:	30 08       	mov	r8,0
80003e20:	8f 18       	st.w	r7[0x4],r8
80003e22:	48 98       	lddpc	r8,80003e44 <OSSemCreate+0x58>
80003e24:	ae 46       	st.h	r7[0x8],r6
80003e26:	8f 58       	st.w	r7[0x14],r8
80003e28:	0e 9c       	mov	r12,r7
80003e2a:	f0 1f 00 08 	mcall	80003e48 <OSSemCreate+0x5c>
80003e2e:	0e 9c       	mov	r12,r7
80003e30:	d8 22       	popm	r4-r7,pc
80003e32:	00 00       	add	r0,r0
80003e34:	00 00       	add	r0,r0
80003e36:	3e e4       	mov	r4,-18
80003e38:	80 00       	ld.sh	r0,r0[0x0]
80003e3a:	2b e4       	sub	r4,-66
80003e3c:	00 00       	add	r0,r0
80003e3e:	3e e0       	mov	r0,-18
80003e40:	80 00       	ld.sh	r0,r0[0x0]
80003e42:	2b f0       	sub	r0,-65
80003e44:	80 00       	ld.sh	r0,r0[0x0]
80003e46:	a1 84       	lsr	r4,0x0
80003e48:	80 00       	ld.sh	r0,r0[0x0]
80003e4a:	31 02       	mov	r2,16

80003e4c <OSTaskStkChk>:
80003e4c:	d4 21       	pushm	r4-r7,lr
80003e4e:	30 08       	mov	r8,0
80003e50:	16 97       	mov	r7,r11
80003e52:	97 18       	st.w	r11[0x4],r8
80003e54:	97 08       	st.w	r11[0x0],r8
80003e56:	18 96       	mov	r6,r12
80003e58:	f0 1f 00 16 	mcall	80003eb0 <OSTaskStkChk+0x64>
80003e5c:	3f f8       	mov	r8,-1
80003e5e:	f0 06 18 00 	cp.b	r6,r8
80003e62:	c0 51       	brne	80003e6c <OSTaskStkChk+0x20>
80003e64:	49 48       	lddpc	r8,80003eb4 <OSTaskStkChk+0x68>
80003e66:	70 08       	ld.w	r8,r8[0x0]
80003e68:	f1 36 00 4a 	ld.ub	r6,r8[74]
80003e6c:	49 38       	lddpc	r8,80003eb8 <OSTaskStkChk+0x6c>
80003e6e:	f0 06 03 28 	ld.w	r8,r8[r6<<0x2]
80003e72:	58 08       	cp.w	r8,0
80003e74:	c0 30       	breq	80003e7a <OSTaskStkChk+0x2e>
80003e76:	58 18       	cp.w	r8,1
80003e78:	c0 51       	brne	80003e82 <OSTaskStkChk+0x36>
80003e7a:	f0 1f 00 11 	mcall	80003ebc <OSTaskStkChk+0x70>
80003e7e:	34 3c       	mov	r12,67
80003e80:	d8 22       	popm	r4-r7,pc
80003e82:	f1 19 00 10 	ld.uh	r9,r8[16]
80003e86:	ed b9 00 00 	bld	r9,0x0
80003e8a:	c0 50       	breq	80003e94 <OSTaskStkChk+0x48>
80003e8c:	f0 1f 00 0c 	mcall	80003ebc <OSTaskStkChk+0x70>
80003e90:	34 5c       	mov	r12,69
80003e92:	d8 22       	popm	r4-r7,pc
80003e94:	70 26       	ld.w	r6,r8[0x8]
80003e96:	70 35       	ld.w	r5,r8[0xc]
80003e98:	f0 1f 00 09 	mcall	80003ebc <OSTaskStkChk+0x70>
80003e9c:	30 08       	mov	r8,0
80003e9e:	c0 28       	rjmp	80003ea2 <OSTaskStkChk+0x56>
80003ea0:	2f f8       	sub	r8,-1
80003ea2:	0d 09       	ld.w	r9,r6++
80003ea4:	58 09       	cp.w	r9,0
80003ea6:	cf d0       	breq	80003ea0 <OSTaskStkChk+0x54>
80003ea8:	10 15       	sub	r5,r8
80003eaa:	8f 08       	st.w	r7[0x0],r8
80003eac:	8f 15       	st.w	r7[0x4],r5
80003eae:	d8 2a       	popm	r4-r7,pc,r12=0
80003eb0:	80 00       	ld.sh	r0,r0[0x0]
80003eb2:	2b e4       	sub	r4,-66
80003eb4:	00 00       	add	r0,r0
80003eb6:	3e e8       	mov	r8,-18
80003eb8:	00 00       	add	r0,r0
80003eba:	4b 38       	lddpc	r8,80003f84 <OSTaskSuspend+0x60>
80003ebc:	80 00       	ld.sh	r0,r0[0x0]
80003ebe:	2b f0       	sub	r0,-65

80003ec0 <OSTaskNameSet>:
80003ec0:	d4 21       	pushm	r4-r7,lr
80003ec2:	49 48       	lddpc	r8,80003f10 <OSTaskNameSet+0x50>
80003ec4:	18 97       	mov	r7,r12
80003ec6:	11 89       	ld.ub	r9,r8[0x0]
80003ec8:	16 96       	mov	r6,r11
80003eca:	14 95       	mov	r5,r10
80003ecc:	30 08       	mov	r8,0
80003ece:	f0 09 18 00 	cp.b	r9,r8
80003ed2:	c0 30       	breq	80003ed8 <OSTaskNameSet+0x18>
80003ed4:	31 28       	mov	r8,18
80003ed6:	c1 b8       	rjmp	80003f0c <OSTaskNameSet+0x4c>
80003ed8:	f0 1f 00 0f 	mcall	80003f14 <OSTaskNameSet+0x54>
80003edc:	3f f8       	mov	r8,-1
80003ede:	f0 07 18 00 	cp.b	r7,r8
80003ee2:	c0 51       	brne	80003eec <OSTaskNameSet+0x2c>
80003ee4:	48 d8       	lddpc	r8,80003f18 <OSTaskNameSet+0x58>
80003ee6:	70 08       	ld.w	r8,r8[0x0]
80003ee8:	f1 37 00 4a 	ld.ub	r7,r8[74]
80003eec:	48 c8       	lddpc	r8,80003f1c <OSTaskNameSet+0x5c>
80003eee:	f0 07 03 28 	ld.w	r8,r8[r7<<0x2]
80003ef2:	58 08       	cp.w	r8,0
80003ef4:	c0 30       	breq	80003efa <OSTaskNameSet+0x3a>
80003ef6:	58 18       	cp.w	r8,1
80003ef8:	c0 51       	brne	80003f02 <OSTaskNameSet+0x42>
80003efa:	f0 1f 00 0a 	mcall	80003f20 <OSTaskNameSet+0x60>
80003efe:	34 38       	mov	r8,67
80003f00:	c0 68       	rjmp	80003f0c <OSTaskNameSet+0x4c>
80003f02:	f1 46 00 64 	st.w	r8[100],r6
80003f06:	f0 1f 00 07 	mcall	80003f20 <OSTaskNameSet+0x60>
80003f0a:	30 08       	mov	r8,0
80003f0c:	aa 88       	st.b	r5[0x0],r8
80003f0e:	d8 22       	popm	r4-r7,pc
80003f10:	00 00       	add	r0,r0
80003f12:	3e e4       	mov	r4,-18
80003f14:	80 00       	ld.sh	r0,r0[0x0]
80003f16:	2b e4       	sub	r4,-66
80003f18:	00 00       	add	r0,r0
80003f1a:	3e e8       	mov	r8,-18
80003f1c:	00 00       	add	r0,r0
80003f1e:	4b 38       	lddpc	r8,80003fe8 <OSTaskCreateExt+0x20>
80003f20:	80 00       	ld.sh	r0,r0[0x0]
80003f22:	2b f0       	sub	r0,-65

80003f24 <OSTaskSuspend>:
80003f24:	d4 21       	pushm	r4-r7,lr
80003f26:	18 97       	mov	r7,r12
80003f28:	f0 1f 00 21 	mcall	80003fac <OSTaskSuspend+0x88>
80003f2c:	4a 18       	lddpc	r8,80003fb0 <OSTaskSuspend+0x8c>
80003f2e:	3f f9       	mov	r9,-1
80003f30:	f2 07 18 00 	cp.b	r7,r9
80003f34:	c0 61       	brne	80003f40 <OSTaskSuspend+0x1c>
80003f36:	70 08       	ld.w	r8,r8[0x0]
80003f38:	30 16       	mov	r6,1
80003f3a:	f1 37 00 4a 	ld.ub	r7,r8[74]
80003f3e:	c0 78       	rjmp	80003f4c <OSTaskSuspend+0x28>
80003f40:	70 08       	ld.w	r8,r8[0x0]
80003f42:	f1 38 00 4a 	ld.ub	r8,r8[74]
80003f46:	ee 08 18 00 	cp.b	r8,r7
80003f4a:	5f 06       	sreq	r6
80003f4c:	49 a8       	lddpc	r8,80003fb4 <OSTaskSuspend+0x90>
80003f4e:	f0 07 03 28 	ld.w	r8,r8[r7<<0x2]
80003f52:	58 08       	cp.w	r8,0
80003f54:	c0 51       	brne	80003f5e <OSTaskSuspend+0x3a>
80003f56:	f0 1f 00 19 	mcall	80003fb8 <OSTaskSuspend+0x94>
80003f5a:	34 8c       	mov	r12,72
80003f5c:	d8 22       	popm	r4-r7,pc
80003f5e:	58 18       	cp.w	r8,1
80003f60:	c0 51       	brne	80003f6a <OSTaskSuspend+0x46>
80003f62:	f0 1f 00 16 	mcall	80003fb8 <OSTaskSuspend+0x94>
80003f66:	34 3c       	mov	r12,67
80003f68:	d8 22       	popm	r4-r7,pc
80003f6a:	f1 3a 00 4c 	ld.ub	r10,r8[76]
80003f6e:	49 4b       	lddpc	r11,80003fbc <OSTaskSuspend+0x98>
80003f70:	f1 39 00 4d 	ld.ub	r9,r8[77]
80003f74:	f6 0a 07 07 	ld.ub	r7,r11[r10]
80003f78:	5c d9       	com	r9
80003f7a:	ef e9 00 09 	and	r9,r7,r9
80003f7e:	f6 0a 0b 09 	st.b	r11[r10],r9
80003f82:	c0 81       	brne	80003f92 <OSTaskSuspend+0x6e>
80003f84:	48 f9       	lddpc	r9,80003fc0 <OSTaskSuspend+0x9c>
80003f86:	f1 3a 00 4e 	ld.ub	r10,r8[78]
80003f8a:	13 8b       	ld.ub	r11,r9[0x0]
80003f8c:	5c da       	com	r10
80003f8e:	16 6a       	and	r10,r11
80003f90:	b2 8a       	st.b	r9[0x0],r10
80003f92:	f1 39 00 48 	ld.ub	r9,r8[72]
80003f96:	a3 b9       	sbr	r9,0x3
80003f98:	f1 69 00 48 	st.b	r8[72],r9
80003f9c:	f0 1f 00 07 	mcall	80003fb8 <OSTaskSuspend+0x94>
80003fa0:	58 06       	cp.w	r6,0
80003fa2:	c0 21       	brne	80003fa6 <OSTaskSuspend+0x82>
80003fa4:	d8 2a       	popm	r4-r7,pc,r12=0
80003fa6:	f0 1f 00 08 	mcall	80003fc4 <OSTaskSuspend+0xa0>
80003faa:	d8 2a       	popm	r4-r7,pc,r12=0
80003fac:	80 00       	ld.sh	r0,r0[0x0]
80003fae:	2b e4       	sub	r4,-66
80003fb0:	00 00       	add	r0,r0
80003fb2:	3e e8       	mov	r8,-18
80003fb4:	00 00       	add	r0,r0
80003fb6:	4b 38       	lddpc	r8,80004080 <OSTaskCreateExt+0xb8>
80003fb8:	80 00       	ld.sh	r0,r0[0x0]
80003fba:	2b f0       	sub	r0,-65
80003fbc:	00 00       	add	r0,r0
80003fbe:	3c d8       	mov	r8,-51
80003fc0:	00 00       	add	r0,r0
80003fc2:	3c d4       	mov	r4,-51
80003fc4:	80 00       	ld.sh	r0,r0[0x0]
80003fc6:	31 30       	mov	r0,19

80003fc8 <OSTaskCreateExt>:
80003fc8:	d4 31       	pushm	r0-r7,lr
80003fca:	20 2d       	sub	sp,8
80003fcc:	fa c4 ff d4 	sub	r4,sp,-44
80003fd0:	12 97       	mov	r7,r9
80003fd2:	10 91       	mov	r1,r8
80003fd4:	68 35       	ld.w	r5,r4[0xc]
80003fd6:	68 06       	ld.w	r6,r4[0x0]
80003fd8:	68 13       	ld.w	r3,r4[0x4]
80003fda:	50 1c       	stdsp	sp[0x4],r12
80003fdc:	16 90       	mov	r0,r11
80003fde:	14 92       	mov	r2,r10
80003fe0:	68 24       	ld.w	r4,r4[0x8]
80003fe2:	f0 1f 00 2a 	mcall	80004088 <OSTaskCreateExt+0xc0>
80003fe6:	4a a8       	lddpc	r8,8000408c <OSTaskCreateExt+0xc4>
80003fe8:	11 89       	ld.ub	r9,r8[0x0]
80003fea:	30 08       	mov	r8,0
80003fec:	f0 09 18 00 	cp.b	r9,r8
80003ff0:	c0 50       	breq	80003ffa <OSTaskCreateExt+0x32>
80003ff2:	f0 1f 00 28 	mcall	80004090 <OSTaskCreateExt+0xc8>
80003ff6:	33 c6       	mov	r6,60
80003ff8:	c4 48       	rjmp	80004080 <OSTaskCreateExt+0xb8>
80003ffa:	4a 79       	lddpc	r9,80004094 <OSTaskCreateExt+0xcc>
80003ffc:	f2 07 03 28 	ld.w	r8,r9[r7<<0x2]
80004000:	58 08       	cp.w	r8,0
80004002:	c3 c1       	brne	8000407a <OSTaskCreateExt+0xb2>
80004004:	30 1a       	mov	r10,1
80004006:	50 08       	stdsp	sp[0x0],r8
80004008:	f2 07 09 2a 	st.w	r9[r7<<0x2],r10
8000400c:	f0 1f 00 21 	mcall	80004090 <OSTaskCreateExt+0xc8>
80004010:	5c 75       	castu.h	r5
80004012:	40 08       	lddsp	r8,sp[0x0]
80004014:	f3 d5 c0 01 	bfextu	r9,r5,0x0,0x1
80004018:	c0 b0       	breq	8000402e <OSTaskCreateExt+0x66>
8000401a:	ed b5 00 01 	bld	r5,0x1
8000401e:	c0 81       	brne	8000402e <OSTaskCreateExt+0x66>
80004020:	06 99       	mov	r9,r3
80004022:	0c 9a       	mov	r10,r6
80004024:	c0 38       	rjmp	8000402a <OSTaskCreateExt+0x62>
80004026:	20 19       	sub	r9,1
80004028:	14 a8       	st.w	r10++,r8
8000402a:	58 09       	cp.w	r9,0
8000402c:	cf d1       	brne	80004026 <OSTaskCreateExt+0x5e>
8000402e:	40 1c       	lddsp	r12,sp[0x4]
80004030:	04 9a       	mov	r10,r2
80004032:	00 9b       	mov	r11,r0
80004034:	0a 99       	mov	r9,r5
80004036:	f0 1f 00 19 	mcall	80004098 <OSTaskCreateExt+0xd0>
8000403a:	0c 9a       	mov	r10,r6
8000403c:	1a d5       	st.w	--sp,r5
8000403e:	18 9b       	mov	r11,r12
80004040:	1a d4       	st.w	--sp,r4
80004042:	06 98       	mov	r8,r3
80004044:	f3 d1 c0 10 	bfextu	r9,r1,0x0,0x10
80004048:	0e 9c       	mov	r12,r7
8000404a:	f0 1f 00 15 	mcall	8000409c <OSTaskCreateExt+0xd4>
8000404e:	2f ed       	sub	sp,-8
80004050:	18 96       	mov	r6,r12
80004052:	58 0c       	cp.w	r12,0
80004054:	c0 a1       	brne	80004068 <OSTaskCreateExt+0xa0>
80004056:	49 38       	lddpc	r8,800040a0 <OSTaskCreateExt+0xd8>
80004058:	11 89       	ld.ub	r9,r8[0x0]
8000405a:	30 18       	mov	r8,1
8000405c:	f0 09 18 00 	cp.b	r9,r8
80004060:	c1 01       	brne	80004080 <OSTaskCreateExt+0xb8>
80004062:	f0 1f 00 11 	mcall	800040a4 <OSTaskCreateExt+0xdc>
80004066:	c0 d8       	rjmp	80004080 <OSTaskCreateExt+0xb8>
80004068:	f0 1f 00 08 	mcall	80004088 <OSTaskCreateExt+0xc0>
8000406c:	30 09       	mov	r9,0
8000406e:	48 a8       	lddpc	r8,80004094 <OSTaskCreateExt+0xcc>
80004070:	f0 07 09 29 	st.w	r8[r7<<0x2],r9
80004074:	f0 1f 00 07 	mcall	80004090 <OSTaskCreateExt+0xc8>
80004078:	c0 48       	rjmp	80004080 <OSTaskCreateExt+0xb8>
8000407a:	f0 1f 00 06 	mcall	80004090 <OSTaskCreateExt+0xc8>
8000407e:	32 86       	mov	r6,40
80004080:	0c 9c       	mov	r12,r6
80004082:	2f ed       	sub	sp,-8
80004084:	d8 32       	popm	r0-r7,pc
80004086:	00 00       	add	r0,r0
80004088:	80 00       	ld.sh	r0,r0[0x0]
8000408a:	2b e4       	sub	r4,-66
8000408c:	00 00       	add	r0,r0
8000408e:	3e e4       	mov	r4,-18
80004090:	80 00       	ld.sh	r0,r0[0x0]
80004092:	2b f0       	sub	r0,-65
80004094:	00 00       	add	r0,r0
80004096:	4b 38       	lddpc	r8,80004160 <OSTimeDly+0x14>
80004098:	80 00       	ld.sh	r0,r0[0x0]
8000409a:	2d 8c       	sub	r12,-40
8000409c:	80 00       	ld.sh	r0,r0[0x0]
8000409e:	32 b4       	mov	r4,43
800040a0:	00 00       	add	r0,r0
800040a2:	36 f5       	mov	r5,111
800040a4:	80 00       	ld.sh	r0,r0[0x0]
800040a6:	31 30       	mov	r0,19

800040a8 <OSTaskCreate>:
800040a8:	d4 31       	pushm	r0-r7,lr
800040aa:	12 96       	mov	r6,r9
800040ac:	18 93       	mov	r3,r12
800040ae:	16 92       	mov	r2,r11
800040b0:	14 91       	mov	r1,r10
800040b2:	f0 1f 00 1f 	mcall	8000412c <OSTaskCreate+0x84>
800040b6:	49 f8       	lddpc	r8,80004130 <OSTaskCreate+0x88>
800040b8:	11 89       	ld.ub	r9,r8[0x0]
800040ba:	30 08       	mov	r8,0
800040bc:	f0 09 18 00 	cp.b	r9,r8
800040c0:	c0 50       	breq	800040ca <OSTaskCreate+0x22>
800040c2:	f0 1f 00 1d 	mcall	80004134 <OSTaskCreate+0x8c>
800040c6:	33 c3       	mov	r3,60
800040c8:	c3 08       	rjmp	80004128 <OSTaskCreate+0x80>
800040ca:	49 c5       	lddpc	r5,80004138 <OSTaskCreate+0x90>
800040cc:	ea 06 03 27 	ld.w	r7,r5[r6<<0x2]
800040d0:	58 07       	cp.w	r7,0
800040d2:	c2 81       	brne	80004122 <OSTaskCreate+0x7a>
800040d4:	30 14       	mov	r4,1
800040d6:	ea 06 09 24 	st.w	r5[r6<<0x2],r4
800040da:	f0 1f 00 17 	mcall	80004134 <OSTaskCreate+0x8c>
800040de:	0e 99       	mov	r9,r7
800040e0:	02 9a       	mov	r10,r1
800040e2:	04 9b       	mov	r11,r2
800040e4:	06 9c       	mov	r12,r3
800040e6:	f0 1f 00 16 	mcall	8000413c <OSTaskCreate+0x94>
800040ea:	0e 98       	mov	r8,r7
800040ec:	1a d7       	st.w	--sp,r7
800040ee:	18 9b       	mov	r11,r12
800040f0:	1a d7       	st.w	--sp,r7
800040f2:	0e 99       	mov	r9,r7
800040f4:	0e 9a       	mov	r10,r7
800040f6:	0c 9c       	mov	r12,r6
800040f8:	f0 1f 00 12 	mcall	80004140 <OSTaskCreate+0x98>
800040fc:	2f ed       	sub	sp,-8
800040fe:	18 93       	mov	r3,r12
80004100:	58 0c       	cp.w	r12,0
80004102:	c0 91       	brne	80004114 <OSTaskCreate+0x6c>
80004104:	49 08       	lddpc	r8,80004144 <OSTaskCreate+0x9c>
80004106:	11 88       	ld.ub	r8,r8[0x0]
80004108:	e8 08 18 00 	cp.b	r8,r4
8000410c:	c0 e1       	brne	80004128 <OSTaskCreate+0x80>
8000410e:	f0 1f 00 0f 	mcall	80004148 <OSTaskCreate+0xa0>
80004112:	c0 b8       	rjmp	80004128 <OSTaskCreate+0x80>
80004114:	f0 1f 00 06 	mcall	8000412c <OSTaskCreate+0x84>
80004118:	ea 06 09 27 	st.w	r5[r6<<0x2],r7
8000411c:	f0 1f 00 06 	mcall	80004134 <OSTaskCreate+0x8c>
80004120:	c0 48       	rjmp	80004128 <OSTaskCreate+0x80>
80004122:	f0 1f 00 05 	mcall	80004134 <OSTaskCreate+0x8c>
80004126:	32 83       	mov	r3,40
80004128:	06 9c       	mov	r12,r3
8000412a:	d8 32       	popm	r0-r7,pc
8000412c:	80 00       	ld.sh	r0,r0[0x0]
8000412e:	2b e4       	sub	r4,-66
80004130:	00 00       	add	r0,r0
80004132:	3e e4       	mov	r4,-18
80004134:	80 00       	ld.sh	r0,r0[0x0]
80004136:	2b f0       	sub	r0,-65
80004138:	00 00       	add	r0,r0
8000413a:	4b 38       	lddpc	r8,80004204 <OSTmr_Link+0x3c>
8000413c:	80 00       	ld.sh	r0,r0[0x0]
8000413e:	2d 8c       	sub	r12,-40
80004140:	80 00       	ld.sh	r0,r0[0x0]
80004142:	32 b4       	mov	r4,43
80004144:	00 00       	add	r0,r0
80004146:	36 f5       	mov	r5,111
80004148:	80 00       	ld.sh	r0,r0[0x0]
8000414a:	31 30       	mov	r0,19

8000414c <OSTimeDly>:
8000414c:	d4 21       	pushm	r4-r7,lr
8000414e:	49 78       	lddpc	r8,800041a8 <OSTimeDly+0x5c>
80004150:	18 97       	mov	r7,r12
80004152:	11 88       	ld.ub	r8,r8[0x0]
80004154:	30 09       	mov	r9,0
80004156:	f2 08 18 00 	cp.b	r8,r9
8000415a:	c2 61       	brne	800041a6 <OSTimeDly+0x5a>
8000415c:	49 49       	lddpc	r9,800041ac <OSTimeDly+0x60>
8000415e:	13 89       	ld.ub	r9,r9[0x0]
80004160:	f0 09 18 00 	cp.b	r9,r8
80004164:	c2 11       	brne	800041a6 <OSTimeDly+0x5a>
80004166:	58 0c       	cp.w	r12,0
80004168:	c1 f0       	breq	800041a6 <OSTimeDly+0x5a>
8000416a:	f0 1f 00 12 	mcall	800041b0 <OSTimeDly+0x64>
8000416e:	49 2b       	lddpc	r11,800041b4 <OSTimeDly+0x68>
80004170:	49 28       	lddpc	r8,800041b8 <OSTimeDly+0x6c>
80004172:	70 08       	ld.w	r8,r8[0x0]
80004174:	f1 3a 00 4c 	ld.ub	r10,r8[76]
80004178:	f1 39 00 4d 	ld.ub	r9,r8[77]
8000417c:	f6 0a 07 0e 	ld.ub	lr,r11[r10]
80004180:	5c d9       	com	r9
80004182:	fd e9 00 09 	and	r9,lr,r9
80004186:	f6 0a 0b 09 	st.b	r11[r10],r9
8000418a:	c0 81       	brne	8000419a <OSTimeDly+0x4e>
8000418c:	48 c9       	lddpc	r9,800041bc <OSTimeDly+0x70>
8000418e:	f1 3a 00 4e 	ld.ub	r10,r8[78]
80004192:	13 8b       	ld.ub	r11,r9[0x0]
80004194:	5c da       	com	r10
80004196:	16 6a       	and	r10,r11
80004198:	b2 8a       	st.b	r9[0x0],r10
8000419a:	f1 47 00 44 	st.w	r8[68],r7
8000419e:	f0 1f 00 09 	mcall	800041c0 <OSTimeDly+0x74>
800041a2:	f0 1f 00 09 	mcall	800041c4 <OSTimeDly+0x78>
800041a6:	d8 22       	popm	r4-r7,pc
800041a8:	00 00       	add	r0,r0
800041aa:	3e e4       	mov	r4,-18
800041ac:	00 00       	add	r0,r0
800041ae:	36 ec       	mov	r12,110
800041b0:	80 00       	ld.sh	r0,r0[0x0]
800041b2:	2b e4       	sub	r4,-66
800041b4:	00 00       	add	r0,r0
800041b6:	3c d8       	mov	r8,-51
800041b8:	00 00       	add	r0,r0
800041ba:	3e e8       	mov	r8,-18
800041bc:	00 00       	add	r0,r0
800041be:	3c d4       	mov	r4,-51
800041c0:	80 00       	ld.sh	r0,r0[0x0]
800041c2:	2b f0       	sub	r0,-65
800041c4:	80 00       	ld.sh	r0,r0[0x0]
800041c6:	31 30       	mov	r0,19

800041c8 <OSTmr_Link>:
800041c8:	30 38       	mov	r8,3
800041ca:	f9 68 00 25 	st.b	r12[37],r8
800041ce:	30 18       	mov	r8,1
800041d0:	f0 0b 18 00 	cp.b	r11,r8
800041d4:	c0 41       	brne	800041dc <OSTmr_Link+0x14>
800041d6:	49 68       	lddpc	r8,8000422c <OSTmr_Link+0x64>
800041d8:	70 09       	ld.w	r9,r8[0x0]
800041da:	c0 68       	rjmp	800041e6 <OSTmr_Link+0x1e>
800041dc:	78 68       	ld.w	r8,r12[0x18]
800041de:	49 49       	lddpc	r9,8000422c <OSTmr_Link+0x64>
800041e0:	58 08       	cp.w	r8,0
800041e2:	c0 41       	brne	800041ea <OSTmr_Link+0x22>
800041e4:	72 09       	ld.w	r9,r9[0x0]
800041e6:	78 78       	ld.w	r8,r12[0x1c]
800041e8:	c0 28       	rjmp	800041ec <OSTmr_Link+0x24>
800041ea:	72 09       	ld.w	r9,r9[0x0]
800041ec:	f2 08 00 08 	add	r8,r9,r8
800041f0:	49 09       	lddpc	r9,80004230 <OSTmr_Link+0x68>
800041f2:	99 58       	st.w	r12[0x14],r8
800041f4:	78 58       	ld.w	r8,r12[0x14]
800041f6:	f1 d8 c0 03 	bfextu	r8,r8,0x0,0x3
800041fa:	f2 08 00 38 	add	r8,r9,r8<<0x3
800041fe:	70 09       	ld.w	r9,r8[0x0]
80004200:	58 09       	cp.w	r9,0
80004202:	f9 f9 0a 03 	st.weq	r12[0xc],r9
80004206:	f1 fc 0a 00 	st.weq	r8[0x0],r12
8000420a:	f9 b9 00 01 	moveq	r9,1
8000420e:	f3 fc 1a 04 	st.wne	r9[0x10],r12
80004212:	f1 fc 1a 00 	st.wne	r8[0x0],r12
80004216:	f9 f9 1a 03 	st.wne	r12[0xc],r9
8000421a:	f1 f9 12 02 	ld.shne	r9,r8[0x4]
8000421e:	f7 b9 01 ff 	subne	r9,-1
80004222:	b0 29       	st.h	r8[0x4],r9
80004224:	30 08       	mov	r8,0
80004226:	99 48       	st.w	r12[0x10],r8
80004228:	5e fc       	retal	r12
8000422a:	00 00       	add	r0,r0
8000422c:	00 00       	add	r0,r0
8000422e:	3e ec       	mov	r12,-18
80004230:	00 00       	add	r0,r0
80004232:	36 ac       	mov	r12,106

80004234 <OSTmr_Unlink>:
80004234:	48 f8       	lddpc	r8,80004270 <OSTmr_Unlink+0x3c>
80004236:	78 59       	ld.w	r9,r12[0x14]
80004238:	f3 d9 c0 03 	bfextu	r9,r9,0x0,0x3
8000423c:	f0 09 00 39 	add	r9,r8,r9<<0x3
80004240:	78 38       	ld.w	r8,r12[0xc]
80004242:	72 0a       	ld.w	r10,r9[0x0]
80004244:	18 3a       	cp.w	r10,r12
80004246:	c0 61       	brne	80004252 <OSTmr_Unlink+0x1e>
80004248:	93 08       	st.w	r9[0x0],r8
8000424a:	58 08       	cp.w	r8,0
8000424c:	c0 80       	breq	8000425c <OSTmr_Unlink+0x28>
8000424e:	30 0a       	mov	r10,0
80004250:	c0 58       	rjmp	8000425a <OSTmr_Unlink+0x26>
80004252:	78 4a       	ld.w	r10,r12[0x10]
80004254:	95 38       	st.w	r10[0xc],r8
80004256:	58 08       	cp.w	r8,0
80004258:	c0 20       	breq	8000425c <OSTmr_Unlink+0x28>
8000425a:	91 4a       	st.w	r8[0x10],r10
8000425c:	30 18       	mov	r8,1
8000425e:	f9 68 00 25 	st.b	r12[37],r8
80004262:	30 08       	mov	r8,0
80004264:	99 48       	st.w	r12[0x10],r8
80004266:	99 38       	st.w	r12[0xc],r8
80004268:	92 28       	ld.sh	r8,r9[0x4]
8000426a:	20 18       	sub	r8,1
8000426c:	b2 28       	st.h	r9[0x4],r8
8000426e:	5e fc       	retal	r12
80004270:	00 00       	add	r0,r0
80004272:	36 ac       	mov	r12,106

80004274 <OSTmr_Init>:
80004274:	d4 21       	pushm	r4-r7,lr
80004276:	20 1d       	sub	sp,4
80004278:	4a f7       	lddpc	r7,80004334 <OSTmr_Init+0xc0>
8000427a:	e0 6b 02 80 	mov	r11,640
8000427e:	0e 9c       	mov	r12,r7
80004280:	f0 1f 00 2e 	mcall	80004338 <OSTmr_Init+0xc4>
80004284:	34 0b       	mov	r11,64
80004286:	4a ec       	lddpc	r12,8000433c <OSTmr_Init+0xc8>
80004288:	f0 1f 00 2c 	mcall	80004338 <OSTmr_Init+0xc4>
8000428c:	ee c8 fd 80 	sub	r8,r7,-640
80004290:	36 4b       	mov	r11,100
80004292:	2d 87       	sub	r7,-40
80004294:	30 0a       	mov	r10,0
80004296:	4a b9       	lddpc	r9,80004340 <OSTmr_Init+0xcc>
80004298:	ef 6b ff d8 	st.b	r7[-40],r11
8000429c:	ef 6a ff fd 	st.b	r7[-3],r10
800042a0:	ef 47 ff e4 	st.w	r7[-28],r7
800042a4:	ef 49 ff f8 	st.w	r7[-8],r9
800042a8:	2d 87       	sub	r7,-40
800042aa:	10 37       	cp.w	r7,r8
800042ac:	cf 61       	brne	80004298 <OSTmr_Init+0x24>
800042ae:	4a 28       	lddpc	r8,80004334 <OSTmr_Init+0xc0>
800042b0:	f1 6b 02 58 	st.b	r8[600],r11
800042b4:	f1 6a 02 7d 	st.b	r8[637],r10
800042b8:	f1 49 02 78 	st.w	r8[632],r9
800042bc:	4a 29       	lddpc	r9,80004344 <OSTmr_Init+0xd0>
800042be:	30 07       	mov	r7,0
800042c0:	93 07       	st.w	r9[0x0],r7
800042c2:	4a 29       	lddpc	r9,80004348 <OSTmr_Init+0xd4>
800042c4:	b2 07       	st.h	r9[0x0],r7
800042c6:	4a 29       	lddpc	r9,8000434c <OSTmr_Init+0xd8>
800042c8:	31 0a       	mov	r10,16
800042ca:	b2 0a       	st.h	r9[0x0],r10
800042cc:	4a 19       	lddpc	r9,80004350 <OSTmr_Init+0xdc>
800042ce:	f1 47 02 64 	st.w	r8[612],r7
800042d2:	93 08       	st.w	r9[0x0],r8
800042d4:	30 1c       	mov	r12,1
800042d6:	f0 1f 00 20 	mcall	80004354 <OSTmr_Init+0xe0>
800042da:	4a 05       	lddpc	r5,80004358 <OSTmr_Init+0xe4>
800042dc:	8b 0c       	st.w	r5[0x0],r12
800042de:	0e 9c       	mov	r12,r7
800042e0:	f0 1f 00 1d 	mcall	80004354 <OSTmr_Init+0xe0>
800042e4:	49 e6       	lddpc	r6,8000435c <OSTmr_Init+0xe8>
800042e6:	49 fb       	lddpc	r11,80004360 <OSTmr_Init+0xec>
800042e8:	8d 0c       	st.w	r6[0x0],r12
800042ea:	6a 0c       	ld.w	r12,r5[0x0]
800042ec:	fa c5 ff fd 	sub	r5,sp,-3
800042f0:	0a 9a       	mov	r10,r5
800042f2:	f0 1f 00 1d 	mcall	80004364 <OSTmr_Init+0xf0>
800042f6:	6c 0c       	ld.w	r12,r6[0x0]
800042f8:	0a 9a       	mov	r10,r5
800042fa:	49 cb       	lddpc	r11,80004368 <OSTmr_Init+0xf4>
800042fc:	f0 1f 00 1a 	mcall	80004364 <OSTmr_Init+0xf0>
80004300:	49 bc       	lddpc	r12,8000436c <OSTmr_Init+0xf8>
80004302:	0e 9b       	mov	r11,r7
80004304:	f8 ca fe 04 	sub	r10,r12,-508
80004308:	e0 68 ff fd 	mov	r8,65533
8000430c:	31 c9       	mov	r9,28
8000430e:	30 36       	mov	r6,3
80004310:	1a d6       	st.w	--sp,r6
80004312:	1a d7       	st.w	--sp,r7
80004314:	e0 67 00 80 	mov	r7,128
80004318:	1a d7       	st.w	--sp,r7
8000431a:	1a dc       	st.w	--sp,r12
8000431c:	49 5c       	lddpc	r12,80004370 <OSTmr_Init+0xfc>
8000431e:	f0 1f 00 16 	mcall	80004374 <OSTmr_Init+0x100>
80004322:	fa ca ff ee 	sub	r10,sp,-18
80004326:	49 5b       	lddpc	r11,80004378 <OSTmr_Init+0x104>
80004328:	31 cc       	mov	r12,28
8000432a:	f0 1f 00 15 	mcall	8000437c <OSTmr_Init+0x108>
8000432e:	2f cd       	sub	sp,-16
80004330:	2f fd       	sub	sp,-4
80004332:	d8 22       	popm	r4-r7,pc
80004334:	00 00       	add	r0,r0
80004336:	37 50       	mov	r0,117
80004338:	80 00       	ld.sh	r0,r0[0x0]
8000433a:	31 20       	mov	r0,18
8000433c:	00 00       	add	r0,r0
8000433e:	36 ac       	mov	r12,106
80004340:	80 00       	ld.sh	r0,r0[0x0]
80004342:	a1 84       	lsr	r4,0x0
80004344:	00 00       	add	r0,r0
80004346:	3e ec       	mov	r12,-18
80004348:	00 00       	add	r0,r0
8000434a:	36 fc       	mov	r12,111
8000434c:	00 00       	add	r0,r0
8000434e:	3c 58       	mov	r8,-59
80004350:	00 00       	add	r0,r0
80004352:	36 a8       	mov	r8,106
80004354:	80 00       	ld.sh	r0,r0[0x0]
80004356:	3d ec       	mov	r12,-34
80004358:	00 00       	add	r0,r0
8000435a:	3e f4       	mov	r4,-17
8000435c:	00 00       	add	r0,r0
8000435e:	36 f0       	mov	r0,111
80004360:	80 00       	ld.sh	r0,r0[0x0]
80004362:	a1 a8       	sbr	r8,0x0
80004364:	80 00       	ld.sh	r0,r0[0x0]
80004366:	32 70       	mov	r0,39
80004368:	80 00       	ld.sh	r0,r0[0x0]
8000436a:	a1 bc       	sbr	r12,0x1
8000436c:	00 00       	add	r0,r0
8000436e:	3c e0       	mov	r0,-50
80004370:	80 00       	ld.sh	r0,r0[0x0]
80004372:	43 80       	lddsp	r0,sp[0xe0]
80004374:	80 00       	ld.sh	r0,r0[0x0]
80004376:	3f c8       	mov	r8,-4
80004378:	80 00       	ld.sh	r0,r0[0x0]
8000437a:	a1 d0       	cbr	r0,0x1
8000437c:	80 00       	ld.sh	r0,r0[0x0]
8000437e:	3e c0       	mov	r0,-20

80004380 <OSTmr_Task>:
80004380:	d4 31       	pushm	r0-r7,lr
80004382:	20 1d       	sub	sp,4
80004384:	49 b4       	lddpc	r4,800043f0 <OSTmr_Task+0x70>
80004386:	fa c3 ff fd 	sub	r3,sp,-3
8000438a:	49 b7       	lddpc	r7,800043f4 <OSTmr_Task+0x74>
8000438c:	49 b5       	lddpc	r5,800043f8 <OSTmr_Task+0x78>
8000438e:	30 26       	mov	r6,2
80004390:	06 9a       	mov	r10,r3
80004392:	30 0b       	mov	r11,0
80004394:	68 0c       	ld.w	r12,r4[0x0]
80004396:	f0 1f 00 1a 	mcall	800043fc <OSTmr_Task+0x7c>
8000439a:	f0 1f 00 1a 	mcall	80004400 <OSTmr_Task+0x80>
8000439e:	6e 08       	ld.w	r8,r7[0x0]
800043a0:	2f f8       	sub	r8,-1
800043a2:	f3 d8 c0 03 	bfextu	r9,r8,0x0,0x3
800043a6:	8f 08       	st.w	r7[0x0],r8
800043a8:	ea 09 03 32 	ld.w	r2,r5[r9<<0x3]
800043ac:	c1 c8       	rjmp	800043e4 <OSTmr_Task+0x64>
800043ae:	64 31       	ld.w	r1,r2[0xc]
800043b0:	64 58       	ld.w	r8,r2[0x14]
800043b2:	6e 09       	ld.w	r9,r7[0x0]
800043b4:	10 39       	cp.w	r9,r8
800043b6:	c1 61       	brne	800043e2 <OSTmr_Task+0x62>
800043b8:	04 9c       	mov	r12,r2
800043ba:	f0 1f 00 13 	mcall	80004404 <OSTmr_Task+0x84>
800043be:	e5 38 00 24 	ld.ub	r8,r2[36]
800043c2:	ec 08 18 00 	cp.b	r8,r6
800043c6:	c0 61       	brne	800043d2 <OSTmr_Task+0x52>
800043c8:	30 1b       	mov	r11,1
800043ca:	04 9c       	mov	r12,r2
800043cc:	f0 1f 00 0f 	mcall	80004408 <OSTmr_Task+0x88>
800043d0:	c0 38       	rjmp	800043d6 <OSTmr_Task+0x56>
800043d2:	e5 66 00 25 	st.b	r2[37],r6
800043d6:	04 9c       	mov	r12,r2
800043d8:	64 18       	ld.w	r8,r2[0x4]
800043da:	58 08       	cp.w	r8,0
800043dc:	c0 30       	breq	800043e2 <OSTmr_Task+0x62>
800043de:	64 2b       	ld.w	r11,r2[0x8]
800043e0:	5d 18       	icall	r8
800043e2:	02 92       	mov	r2,r1
800043e4:	58 02       	cp.w	r2,0
800043e6:	ce 41       	brne	800043ae <OSTmr_Task+0x2e>
800043e8:	f0 1f 00 09 	mcall	8000440c <OSTmr_Task+0x8c>
800043ec:	cd 2b       	rjmp	80004390 <OSTmr_Task+0x10>
800043ee:	00 00       	add	r0,r0
800043f0:	00 00       	add	r0,r0
800043f2:	36 f0       	mov	r0,111
800043f4:	00 00       	add	r0,r0
800043f6:	3e ec       	mov	r12,-18
800043f8:	00 00       	add	r0,r0
800043fa:	36 ac       	mov	r12,106
800043fc:	80 00       	ld.sh	r0,r0[0x0]
800043fe:	3d 10       	mov	r0,-47
80004400:	80 00       	ld.sh	r0,r0[0x0]
80004402:	32 24       	mov	r4,34
80004404:	80 00       	ld.sh	r0,r0[0x0]
80004406:	42 34       	lddsp	r4,sp[0x8c]
80004408:	80 00       	ld.sh	r0,r0[0x0]
8000440a:	41 c8       	lddsp	r8,sp[0x70]
8000440c:	80 00       	ld.sh	r0,r0[0x0]
8000440e:	31 c8       	mov	r8,28

80004410 <OSTmrSignal>:
80004410:	d4 01       	pushm	lr
80004412:	48 38       	lddpc	r8,8000441c <OSTmrSignal+0xc>
80004414:	70 0c       	ld.w	r12,r8[0x0]
80004416:	f0 1f 00 03 	mcall	80004420 <OSTmrSignal+0x10>
8000441a:	d8 02       	popm	pc
8000441c:	00 00       	add	r0,r0
8000441e:	36 f0       	mov	r0,111
80004420:	80 00       	ld.sh	r0,r0[0x0]
80004422:	3c a8       	mov	r8,-54

80004424 <snprintf>:
80004424:	d4 21       	pushm	r4-r7,lr
80004426:	21 7d       	sub	sp,92
80004428:	49 68       	lddpc	r8,80004480 <snprintf+0x5c>
8000442a:	fa c9 ff 90 	sub	r9,sp,-112
8000442e:	16 97       	mov	r7,r11
80004430:	70 06       	ld.w	r6,r8[0x0]
80004432:	58 0b       	cp.w	r11,0
80004434:	c0 64       	brge	80004440 <snprintf+0x1c>
80004436:	e0 68 00 8b 	mov	r8,139
8000443a:	3f fc       	mov	r12,-1
8000443c:	8d 38       	st.w	r6[0xc],r8
8000443e:	c1 f8       	rjmp	8000447c <snprintf+0x58>
80004440:	f6 c8 00 01 	sub	r8,r11,1
80004444:	58 0b       	cp.w	r11,0
80004446:	f6 08 17 00 	moveq	r8,r11
8000444a:	50 58       	stdsp	sp[0x14],r8
8000444c:	50 28       	stdsp	sp[0x8],r8
8000444e:	e0 68 02 08 	mov	r8,520
80004452:	ba 68       	st.h	sp[0xc],r8
80004454:	3f f8       	mov	r8,-1
80004456:	50 4c       	stdsp	sp[0x10],r12
80004458:	50 0c       	stdsp	sp[0x0],r12
8000445a:	ba 78       	st.h	sp[0xe],r8
8000445c:	1a 9b       	mov	r11,sp
8000445e:	0c 9c       	mov	r12,r6
80004460:	f0 1f 00 09 	mcall	80004484 <snprintf+0x60>
80004464:	5b fc       	cp.w	r12,-1
80004466:	c0 44       	brge	8000446e <snprintf+0x4a>
80004468:	e0 68 00 8b 	mov	r8,139
8000446c:	8d 38       	st.w	r6[0xc],r8
8000446e:	58 07       	cp.w	r7,0
80004470:	f9 b9 01 00 	movne	r9,0
80004474:	fb f8 10 00 	ld.wne	r8,sp[0x0]
80004478:	f1 f9 1e 00 	st.bne	r8[0x0],r9
8000447c:	2e 9d       	sub	sp,-92
8000447e:	d8 22       	popm	r4-r7,pc
80004480:	00 00       	add	r0,r0
80004482:	00 f4       	st.b	--r0,r4
80004484:	80 00       	ld.sh	r0,r0[0x0]
80004486:	47 cc       	lddsp	r12,sp[0x1f0]

80004488 <get_arg>:
80004488:	d4 31       	pushm	r0-r7,lr
8000448a:	20 8d       	sub	sp,32
8000448c:	fa c4 ff bc 	sub	r4,sp,-68
80004490:	50 4b       	stdsp	sp[0x10],r11
80004492:	68 2e       	ld.w	lr,r4[0x8]
80004494:	50 58       	stdsp	sp[0x14],r8
80004496:	12 96       	mov	r6,r9
80004498:	7c 0b       	ld.w	r11,lr[0x0]
8000449a:	70 05       	ld.w	r5,r8[0x0]
8000449c:	50 6e       	stdsp	sp[0x18],lr
8000449e:	58 0b       	cp.w	r11,0
800044a0:	f4 0b 17 00 	moveq	r11,r10
800044a4:	68 03       	ld.w	r3,r4[0x0]
800044a6:	68 11       	ld.w	r1,r4[0x4]
800044a8:	40 49       	lddsp	r9,sp[0x10]
800044aa:	30 08       	mov	r8,0
800044ac:	c2 e9       	rjmp	80004708 <get_arg+0x280>
800044ae:	2f fb       	sub	r11,-1
800044b0:	32 5c       	mov	r12,37
800044b2:	17 8a       	ld.ub	r10,r11[0x0]
800044b4:	f8 0a 18 00 	cp.b	r10,r12
800044b8:	5f 1e       	srne	lr
800044ba:	f0 0a 18 00 	cp.b	r10,r8
800044be:	5f 1c       	srne	r12
800044c0:	fd ec 00 0c 	and	r12,lr,r12
800044c4:	f0 0c 18 00 	cp.b	r12,r8
800044c8:	cf 31       	brne	800044ae <get_arg+0x26>
800044ca:	58 0a       	cp.w	r10,0
800044cc:	e0 80 01 2b 	breq	80004722 <get_arg+0x29a>
800044d0:	30 0c       	mov	r12,0
800044d2:	3f fa       	mov	r10,-1
800044d4:	18 90       	mov	r0,r12
800044d6:	50 3a       	stdsp	sp[0xc],r10
800044d8:	18 94       	mov	r4,r12
800044da:	18 92       	mov	r2,r12
800044dc:	f8 0c 00 3c 	add	r12,r12,r12<<0x3
800044e0:	16 97       	mov	r7,r11
800044e2:	50 7c       	stdsp	sp[0x1c],r12
800044e4:	4c ec       	lddpc	r12,8000461c <get_arg+0x194>
800044e6:	0f 3a       	ld.ub	r10,r7++
800044e8:	f8 0a 07 0e 	ld.ub	lr,r12[r10]
800044ec:	40 7c       	lddsp	r12,sp[0x1c]
800044ee:	1c 0c       	add	r12,lr
800044f0:	4c ce       	lddpc	lr,80004620 <get_arg+0x198>
800044f2:	fc 0c 07 0e 	ld.ub	lr,lr[r12]
800044f6:	20 1e       	sub	lr,1
800044f8:	50 0e       	stdsp	sp[0x0],lr
800044fa:	4c be       	lddpc	lr,80004624 <get_arg+0x19c>
800044fc:	fc 0c 07 0c 	ld.ub	r12,lr[r12]
80004500:	50 7c       	stdsp	sp[0x1c],r12
80004502:	40 0c       	lddsp	r12,sp[0x0]
80004504:	58 7c       	cp.w	r12,7
80004506:	e0 8b 00 fa 	brhi	800046fa <get_arg+0x272>
8000450a:	4c 8e       	lddpc	lr,80004628 <get_arg+0x1a0>
8000450c:	fc 0c 03 2f 	ld.w	pc,lr[r12<<0x2]
80004510:	36 8b       	mov	r11,104
80004512:	f6 0a 18 00 	cp.b	r10,r11
80004516:	e0 80 00 f2 	breq	800046fa <get_arg+0x272>
8000451a:	37 1b       	mov	r11,113
8000451c:	f6 0a 18 00 	cp.b	r10,r11
80004520:	c0 70       	breq	8000452e <get_arg+0xa6>
80004522:	34 cb       	mov	r11,76
80004524:	f6 0a 18 00 	cp.b	r10,r11
80004528:	c0 51       	brne	80004532 <get_arg+0xaa>
8000452a:	a3 b4       	sbr	r4,0x3
8000452c:	ce 78       	rjmp	800046fa <get_arg+0x272>
8000452e:	a5 b4       	sbr	r4,0x5
80004530:	ce 58       	rjmp	800046fa <get_arg+0x272>
80004532:	08 9a       	mov	r10,r4
80004534:	0e 9b       	mov	r11,r7
80004536:	a5 aa       	sbr	r10,0x4
80004538:	17 3c       	ld.ub	r12,r11++
8000453a:	a5 b4       	sbr	r4,0x5
8000453c:	36 ce       	mov	lr,108
8000453e:	fc 0c 18 00 	cp.b	r12,lr
80004542:	e0 80 00 dd 	breq	800046fc <get_arg+0x274>
80004546:	14 94       	mov	r4,r10
80004548:	cd 98       	rjmp	800046fa <get_arg+0x272>
8000454a:	eb d5 c0 05 	bfextu	r5,r5,0x0,0x5
8000454e:	36 7c       	mov	r12,103
80004550:	f8 0a 18 00 	cp.b	r10,r12
80004554:	e0 8b 00 27 	brhi	800045a2 <get_arg+0x11a>
80004558:	36 5b       	mov	r11,101
8000455a:	f6 0a 18 00 	cp.b	r10,r11
8000455e:	c4 82       	brcc	800045ee <get_arg+0x166>
80004560:	34 fb       	mov	r11,79
80004562:	f6 0a 18 00 	cp.b	r10,r11
80004566:	c4 80       	breq	800045f6 <get_arg+0x16e>
80004568:	e0 8b 00 0c 	brhi	80004580 <get_arg+0xf8>
8000456c:	34 5b       	mov	r11,69
8000456e:	f6 0a 18 00 	cp.b	r10,r11
80004572:	c3 e0       	breq	800045ee <get_arg+0x166>
80004574:	34 7b       	mov	r11,71
80004576:	f6 0a 18 00 	cp.b	r10,r11
8000457a:	c3 a0       	breq	800045ee <get_arg+0x166>
8000457c:	34 4b       	mov	r11,68
8000457e:	c0 88       	rjmp	8000458e <get_arg+0x106>
80004580:	35 8b       	mov	r11,88
80004582:	f6 0a 18 00 	cp.b	r10,r11
80004586:	c2 c0       	breq	800045de <get_arg+0x156>
80004588:	e0 8b 00 07 	brhi	80004596 <get_arg+0x10e>
8000458c:	35 5b       	mov	r11,85
8000458e:	f6 0a 18 00 	cp.b	r10,r11
80004592:	c3 51       	brne	800045fc <get_arg+0x174>
80004594:	c3 18       	rjmp	800045f6 <get_arg+0x16e>
80004596:	36 3b       	mov	r11,99
80004598:	f6 0a 18 00 	cp.b	r10,r11
8000459c:	c2 f0       	breq	800045fa <get_arg+0x172>
8000459e:	36 4b       	mov	r11,100
800045a0:	c0 e8       	rjmp	800045bc <get_arg+0x134>
800045a2:	37 0b       	mov	r11,112
800045a4:	f6 0a 18 00 	cp.b	r10,r11
800045a8:	c2 50       	breq	800045f2 <get_arg+0x16a>
800045aa:	e0 8b 00 0d 	brhi	800045c4 <get_arg+0x13c>
800045ae:	36 eb       	mov	r11,110
800045b0:	f6 0a 18 00 	cp.b	r10,r11
800045b4:	c1 f0       	breq	800045f2 <get_arg+0x16a>
800045b6:	e0 8b 00 14 	brhi	800045de <get_arg+0x156>
800045ba:	36 9b       	mov	r11,105
800045bc:	f6 0a 18 00 	cp.b	r10,r11
800045c0:	c1 e1       	brne	800045fc <get_arg+0x174>
800045c2:	c0 e8       	rjmp	800045de <get_arg+0x156>
800045c4:	37 5b       	mov	r11,117
800045c6:	f6 0a 18 00 	cp.b	r10,r11
800045ca:	c0 a0       	breq	800045de <get_arg+0x156>
800045cc:	37 8b       	mov	r11,120
800045ce:	f6 0a 18 00 	cp.b	r10,r11
800045d2:	c0 60       	breq	800045de <get_arg+0x156>
800045d4:	37 3b       	mov	r11,115
800045d6:	f6 0a 18 00 	cp.b	r10,r11
800045da:	c1 11       	brne	800045fc <get_arg+0x174>
800045dc:	c0 b8       	rjmp	800045f2 <get_arg+0x16a>
800045de:	ed b4 00 04 	bld	r4,0x4
800045e2:	c0 a0       	breq	800045f6 <get_arg+0x16e>
800045e4:	ed b4 00 05 	bld	r4,0x5
800045e8:	c0 91       	brne	800045fa <get_arg+0x172>
800045ea:	30 20       	mov	r0,2
800045ec:	c0 88       	rjmp	800045fc <get_arg+0x174>
800045ee:	30 40       	mov	r0,4
800045f0:	c0 68       	rjmp	800045fc <get_arg+0x174>
800045f2:	30 30       	mov	r0,3
800045f4:	c0 48       	rjmp	800045fc <get_arg+0x174>
800045f6:	30 10       	mov	r0,1
800045f8:	c0 28       	rjmp	800045fc <get_arg+0x174>
800045fa:	30 00       	mov	r0,0
800045fc:	40 3b       	lddsp	r11,sp[0xc]
800045fe:	5b fb       	cp.w	r11,-1
80004600:	c0 40       	breq	80004608 <get_arg+0x180>
80004602:	e2 0b 09 20 	st.w	r1[r11<<0x2],r0
80004606:	c7 a8       	rjmp	800046fa <get_arg+0x272>
80004608:	58 60       	cp.w	r0,6
8000460a:	e0 8b 00 78 	brhi	800046fa <get_arg+0x272>
8000460e:	6c 0a       	ld.w	r10,r6[0x0]
80004610:	ea cc ff ff 	sub	r12,r5,-1
80004614:	48 6e       	lddpc	lr,8000462c <get_arg+0x1a4>
80004616:	fc 00 03 2f 	ld.w	pc,lr[r0<<0x2]
8000461a:	00 00       	add	r0,r0
8000461c:	80 00       	ld.sh	r0,r0[0x0]
8000461e:	a4 b4       	st.b	r2[0x3],r4
80004620:	80 00       	ld.sh	r0,r0[0x0]
80004622:	a3 ec       	*unknown*
80004624:	80 00       	ld.sh	r0,r0[0x0]
80004626:	a3 80       	lsr	r0,0x2
80004628:	80 00       	ld.sh	r0,r0[0x0]
8000462a:	a1 e0       	*unknown*
8000462c:	80 00       	ld.sh	r0,r0[0x0]
8000462e:	a2 00       	st.h	r1[0x0],r0
80004630:	f4 cb ff f8 	sub	r11,r10,-8
80004634:	8d 0b       	st.w	r6[0x0],r11
80004636:	f4 ea 00 00 	ld.d	r10,r10[0]
8000463a:	e6 05 08 3a 	st.d	r3[r5<<0x3],r10
8000463e:	c0 f8       	rjmp	8000465c <get_arg+0x1d4>
80004640:	f4 cb ff fc 	sub	r11,r10,-4
80004644:	8d 0b       	st.w	r6[0x0],r11
80004646:	74 0a       	ld.w	r10,r10[0x0]
80004648:	e6 05 09 3a 	st.w	r3[r5<<0x3],r10
8000464c:	c0 88       	rjmp	8000465c <get_arg+0x1d4>
8000464e:	f4 cb ff f8 	sub	r11,r10,-8
80004652:	8d 0b       	st.w	r6[0x0],r11
80004654:	f4 ea 00 00 	ld.d	r10,r10[0]
80004658:	e6 05 08 3a 	st.d	r3[r5<<0x3],r10
8000465c:	0e 9b       	mov	r11,r7
8000465e:	18 95       	mov	r5,r12
80004660:	c4 e8       	rjmp	800046fc <get_arg+0x274>
80004662:	62 0a       	ld.w	r10,r1[0x0]
80004664:	5b fa       	cp.w	r10,-1
80004666:	c0 b1       	brne	8000467c <get_arg+0x1f4>
80004668:	50 19       	stdsp	sp[0x4],r9
8000466a:	50 28       	stdsp	sp[0x8],r8
8000466c:	e0 6a 00 80 	mov	r10,128
80004670:	30 0b       	mov	r11,0
80004672:	02 9c       	mov	r12,r1
80004674:	f0 1f 00 4d 	mcall	800047a8 <get_arg+0x320>
80004678:	40 28       	lddsp	r8,sp[0x8]
8000467a:	40 19       	lddsp	r9,sp[0x4]
8000467c:	e4 cc 00 01 	sub	r12,r2,1
80004680:	0e 9b       	mov	r11,r7
80004682:	50 3c       	stdsp	sp[0xc],r12
80004684:	f2 0c 0c 49 	max	r9,r9,r12
80004688:	c3 a8       	rjmp	800046fc <get_arg+0x274>
8000468a:	62 0a       	ld.w	r10,r1[0x0]
8000468c:	5b fa       	cp.w	r10,-1
8000468e:	c0 b1       	brne	800046a4 <get_arg+0x21c>
80004690:	50 19       	stdsp	sp[0x4],r9
80004692:	50 28       	stdsp	sp[0x8],r8
80004694:	e0 6a 00 80 	mov	r10,128
80004698:	30 0b       	mov	r11,0
8000469a:	02 9c       	mov	r12,r1
8000469c:	f0 1f 00 43 	mcall	800047a8 <get_arg+0x320>
800046a0:	40 28       	lddsp	r8,sp[0x8]
800046a2:	40 19       	lddsp	r9,sp[0x4]
800046a4:	20 12       	sub	r2,1
800046a6:	30 0a       	mov	r10,0
800046a8:	0e 9b       	mov	r11,r7
800046aa:	e2 02 09 2a 	st.w	r1[r2<<0x2],r10
800046ae:	f2 02 0c 49 	max	r9,r9,r2
800046b2:	c2 58       	rjmp	800046fc <get_arg+0x274>
800046b4:	16 97       	mov	r7,r11
800046b6:	6c 0a       	ld.w	r10,r6[0x0]
800046b8:	f4 cb ff fc 	sub	r11,r10,-4
800046bc:	8d 0b       	st.w	r6[0x0],r11
800046be:	74 0a       	ld.w	r10,r10[0x0]
800046c0:	0e 9b       	mov	r11,r7
800046c2:	e6 05 09 3a 	st.w	r3[r5<<0x3],r10
800046c6:	2f f5       	sub	r5,-1
800046c8:	c1 a8       	rjmp	800046fc <get_arg+0x274>
800046ca:	f4 c2 00 30 	sub	r2,r10,48
800046ce:	c0 68       	rjmp	800046da <get_arg+0x252>
800046d0:	e4 02 00 22 	add	r2,r2,r2<<0x2
800046d4:	2f f7       	sub	r7,-1
800046d6:	f4 02 00 12 	add	r2,r10,r2<<0x1
800046da:	0f 8a       	ld.ub	r10,r7[0x0]
800046dc:	58 0a       	cp.w	r10,0
800046de:	c0 e0       	breq	800046fa <get_arg+0x272>
800046e0:	23 0a       	sub	r10,48
800046e2:	58 9a       	cp.w	r10,9
800046e4:	fe 98 ff f6 	brls	800046d0 <get_arg+0x248>
800046e8:	c0 98       	rjmp	800046fa <get_arg+0x272>
800046ea:	2f f7       	sub	r7,-1
800046ec:	0f 8a       	ld.ub	r10,r7[0x0]
800046ee:	58 0a       	cp.w	r10,0
800046f0:	c0 50       	breq	800046fa <get_arg+0x272>
800046f2:	23 0a       	sub	r10,48
800046f4:	58 9a       	cp.w	r10,9
800046f6:	fe 98 ff fa 	brls	800046ea <get_arg+0x262>
800046fa:	0e 9b       	mov	r11,r7
800046fc:	40 7c       	lddsp	r12,sp[0x1c]
800046fe:	30 ba       	mov	r10,11
80004700:	f4 0c 18 00 	cp.b	r12,r10
80004704:	fe 91 fe ec 	brne	800044dc <get_arg+0x54>
80004708:	40 42       	lddsp	r2,sp[0x10]
8000470a:	17 8c       	ld.ub	r12,r11[0x0]
8000470c:	0a 32       	cp.w	r2,r5
8000470e:	5f 4a       	srge	r10
80004710:	f0 0c 18 00 	cp.b	r12,r8
80004714:	5f 1c       	srne	r12
80004716:	f9 ea 00 0a 	and	r10,r12,r10
8000471a:	f0 0a 18 00 	cp.b	r10,r8
8000471e:	fe 91 fe c9 	brne	800044b0 <get_arg+0x28>
80004722:	30 08       	mov	r8,0
80004724:	40 4e       	lddsp	lr,sp[0x10]
80004726:	17 8a       	ld.ub	r10,r11[0x0]
80004728:	e2 05 00 21 	add	r1,r1,r5<<0x2
8000472c:	f0 0a 18 00 	cp.b	r10,r8
80004730:	fc 09 17 10 	movne	r9,lr
80004734:	e6 05 00 38 	add	r8,r3,r5<<0x3
80004738:	06 9e       	mov	lr,r3
8000473a:	c2 a8       	rjmp	8000478e <get_arg+0x306>
8000473c:	62 0a       	ld.w	r10,r1[0x0]
8000473e:	58 3a       	cp.w	r10,3
80004740:	c1 e0       	breq	8000477c <get_arg+0x2f4>
80004742:	e0 89 00 07 	brgt	80004750 <get_arg+0x2c8>
80004746:	58 1a       	cp.w	r10,1
80004748:	c1 a0       	breq	8000477c <get_arg+0x2f4>
8000474a:	58 2a       	cp.w	r10,2
8000474c:	c1 81       	brne	8000477c <get_arg+0x2f4>
8000474e:	c0 58       	rjmp	80004758 <get_arg+0x2d0>
80004750:	58 5a       	cp.w	r10,5
80004752:	c0 c0       	breq	8000476a <get_arg+0x2e2>
80004754:	c0 b5       	brlt	8000476a <get_arg+0x2e2>
80004756:	c1 38       	rjmp	8000477c <get_arg+0x2f4>
80004758:	6c 0a       	ld.w	r10,r6[0x0]
8000475a:	f4 cc ff f8 	sub	r12,r10,-8
8000475e:	8d 0c       	st.w	r6[0x0],r12
80004760:	f4 e2 00 00 	ld.d	r2,r10[0]
80004764:	f0 e3 00 00 	st.d	r8[0],r2
80004768:	c1 08       	rjmp	80004788 <get_arg+0x300>
8000476a:	6c 0a       	ld.w	r10,r6[0x0]
8000476c:	f4 cc ff f8 	sub	r12,r10,-8
80004770:	8d 0c       	st.w	r6[0x0],r12
80004772:	f4 e2 00 00 	ld.d	r2,r10[0]
80004776:	f0 e3 00 00 	st.d	r8[0],r2
8000477a:	c0 78       	rjmp	80004788 <get_arg+0x300>
8000477c:	6c 0a       	ld.w	r10,r6[0x0]
8000477e:	f4 cc ff fc 	sub	r12,r10,-4
80004782:	8d 0c       	st.w	r6[0x0],r12
80004784:	74 0a       	ld.w	r10,r10[0x0]
80004786:	91 0a       	st.w	r8[0x0],r10
80004788:	2f f5       	sub	r5,-1
8000478a:	2f 88       	sub	r8,-8
8000478c:	2f c1       	sub	r1,-4
8000478e:	12 35       	cp.w	r5,r9
80004790:	fe 9a ff d6 	brle	8000473c <get_arg+0x2b4>
80004794:	1c 93       	mov	r3,lr
80004796:	40 52       	lddsp	r2,sp[0x14]
80004798:	40 6e       	lddsp	lr,sp[0x18]
8000479a:	85 05       	st.w	r2[0x0],r5
8000479c:	9d 0b       	st.w	lr[0x0],r11
8000479e:	40 4b       	lddsp	r11,sp[0x10]
800047a0:	e6 0b 00 3c 	add	r12,r3,r11<<0x3
800047a4:	2f 8d       	sub	sp,-32
800047a6:	d8 32       	popm	r0-r7,pc
800047a8:	80 00       	ld.sh	r0,r0[0x0]
800047aa:	85 40       	st.w	r2[0x10],r0

800047ac <__sprint_r>:
800047ac:	d4 21       	pushm	r4-r7,lr
800047ae:	14 97       	mov	r7,r10
800047b0:	74 28       	ld.w	r8,r10[0x8]
800047b2:	58 08       	cp.w	r8,0
800047b4:	c0 41       	brne	800047bc <__sprint_r+0x10>
800047b6:	95 18       	st.w	r10[0x4],r8
800047b8:	10 9c       	mov	r12,r8
800047ba:	d8 22       	popm	r4-r7,pc
800047bc:	f0 1f 00 03 	mcall	800047c8 <__sprint_r+0x1c>
800047c0:	30 08       	mov	r8,0
800047c2:	8f 18       	st.w	r7[0x4],r8
800047c4:	8f 28       	st.w	r7[0x8],r8
800047c6:	d8 22       	popm	r4-r7,pc
800047c8:	80 00       	ld.sh	r0,r0[0x0]
800047ca:	7b 50       	ld.w	r0,sp[0x54]

800047cc <_vfprintf_r>:
800047cc:	d4 31       	pushm	r0-r7,lr
800047ce:	fa cd 06 bc 	sub	sp,sp,1724
800047d2:	51 09       	stdsp	sp[0x40],r9
800047d4:	16 91       	mov	r1,r11
800047d6:	14 97       	mov	r7,r10
800047d8:	18 95       	mov	r5,r12
800047da:	f0 1f 00 56 	mcall	80004930 <_vfprintf_r+0x164>
800047de:	78 0c       	ld.w	r12,r12[0x0]
800047e0:	50 cc       	stdsp	sp[0x30],r12
800047e2:	58 05       	cp.w	r5,0
800047e4:	c0 70       	breq	800047f2 <_vfprintf_r+0x26>
800047e6:	6a 68       	ld.w	r8,r5[0x18]
800047e8:	58 08       	cp.w	r8,0
800047ea:	c0 41       	brne	800047f2 <_vfprintf_r+0x26>
800047ec:	0a 9c       	mov	r12,r5
800047ee:	f0 1f 00 52 	mcall	80004934 <_vfprintf_r+0x168>
800047f2:	4d 28       	lddpc	r8,80004938 <_vfprintf_r+0x16c>
800047f4:	10 31       	cp.w	r1,r8
800047f6:	c0 31       	brne	800047fc <_vfprintf_r+0x30>
800047f8:	6a 01       	ld.w	r1,r5[0x0]
800047fa:	c0 a8       	rjmp	8000480e <_vfprintf_r+0x42>
800047fc:	4d 08       	lddpc	r8,8000493c <_vfprintf_r+0x170>
800047fe:	10 31       	cp.w	r1,r8
80004800:	c0 31       	brne	80004806 <_vfprintf_r+0x3a>
80004802:	6a 11       	ld.w	r1,r5[0x4]
80004804:	c0 58       	rjmp	8000480e <_vfprintf_r+0x42>
80004806:	4c f8       	lddpc	r8,80004940 <_vfprintf_r+0x174>
80004808:	10 31       	cp.w	r1,r8
8000480a:	eb f1 00 02 	ld.weq	r1,r5[0x8]
8000480e:	82 68       	ld.sh	r8,r1[0xc]
80004810:	ed b8 00 03 	bld	r8,0x3
80004814:	c0 41       	brne	8000481c <_vfprintf_r+0x50>
80004816:	62 48       	ld.w	r8,r1[0x10]
80004818:	58 08       	cp.w	r8,0
8000481a:	c0 71       	brne	80004828 <_vfprintf_r+0x5c>
8000481c:	02 9b       	mov	r11,r1
8000481e:	0a 9c       	mov	r12,r5
80004820:	f0 1f 00 49 	mcall	80004944 <_vfprintf_r+0x178>
80004824:	e0 81 0f 99 	brne	80006756 <_vfprintf_r+0x1f8a>
80004828:	82 68       	ld.sh	r8,r1[0xc]
8000482a:	10 99       	mov	r9,r8
8000482c:	e2 19 00 1a 	andl	r9,0x1a,COH
80004830:	58 a9       	cp.w	r9,10
80004832:	c3 d1       	brne	800048ac <_vfprintf_r+0xe0>
80004834:	82 79       	ld.sh	r9,r1[0xe]
80004836:	30 0a       	mov	r10,0
80004838:	f4 09 19 00 	cp.h	r9,r10
8000483c:	c3 85       	brlt	800048ac <_vfprintf_r+0xe0>
8000483e:	a1 d8       	cbr	r8,0x1
80004840:	fb 58 05 d0 	st.h	sp[1488],r8
80004844:	62 88       	ld.w	r8,r1[0x20]
80004846:	fb 48 05 e4 	st.w	sp[1508],r8
8000484a:	62 a8       	ld.w	r8,r1[0x28]
8000484c:	fb 48 05 ec 	st.w	sp[1516],r8
80004850:	fa c8 ff bc 	sub	r8,sp,-68
80004854:	fb 48 05 d4 	st.w	sp[1492],r8
80004858:	fb 48 05 c4 	st.w	sp[1476],r8
8000485c:	e0 68 04 00 	mov	r8,1024
80004860:	fb 48 05 d8 	st.w	sp[1496],r8
80004864:	fb 48 05 cc 	st.w	sp[1484],r8
80004868:	30 08       	mov	r8,0
8000486a:	fb 59 05 d2 	st.h	sp[1490],r9
8000486e:	0e 9a       	mov	r10,r7
80004870:	41 09       	lddsp	r9,sp[0x40]
80004872:	fa c7 fa 3c 	sub	r7,sp,-1476
80004876:	fb 48 05 dc 	st.w	sp[1500],r8
8000487a:	0a 9c       	mov	r12,r5
8000487c:	0e 9b       	mov	r11,r7
8000487e:	f0 1f 00 33 	mcall	80004948 <_vfprintf_r+0x17c>
80004882:	50 bc       	stdsp	sp[0x2c],r12
80004884:	c0 95       	brlt	80004896 <_vfprintf_r+0xca>
80004886:	0e 9b       	mov	r11,r7
80004888:	0a 9c       	mov	r12,r5
8000488a:	f0 1f 00 31 	mcall	8000494c <_vfprintf_r+0x180>
8000488e:	40 be       	lddsp	lr,sp[0x2c]
80004890:	f9 be 01 ff 	movne	lr,-1
80004894:	50 be       	stdsp	sp[0x2c],lr
80004896:	fb 08 05 d0 	ld.sh	r8,sp[1488]
8000489a:	ed b8 00 06 	bld	r8,0x6
8000489e:	e0 81 0f 5e 	brne	8000675a <_vfprintf_r+0x1f8e>
800048a2:	82 68       	ld.sh	r8,r1[0xc]
800048a4:	a7 a8       	sbr	r8,0x6
800048a6:	a2 68       	st.h	r1[0xc],r8
800048a8:	e0 8f 0f 59 	bral	8000675a <_vfprintf_r+0x1f8e>
800048ac:	30 08       	mov	r8,0
800048ae:	fb 48 06 b4 	st.w	sp[1716],r8
800048b2:	fb 48 06 90 	st.w	sp[1680],r8
800048b6:	fb 48 06 8c 	st.w	sp[1676],r8
800048ba:	fb 48 06 b0 	st.w	sp[1712],r8
800048be:	30 08       	mov	r8,0
800048c0:	30 09       	mov	r9,0
800048c2:	50 a7       	stdsp	sp[0x28],r7
800048c4:	50 78       	stdsp	sp[0x1c],r8
800048c6:	fa c3 f9 e0 	sub	r3,sp,-1568
800048ca:	3f f8       	mov	r8,-1
800048cc:	50 59       	stdsp	sp[0x14],r9
800048ce:	fb 43 06 88 	st.w	sp[1672],r3
800048d2:	fb 48 05 44 	st.w	sp[1348],r8
800048d6:	12 9c       	mov	r12,r9
800048d8:	50 69       	stdsp	sp[0x18],r9
800048da:	50 d9       	stdsp	sp[0x34],r9
800048dc:	50 e9       	stdsp	sp[0x38],r9
800048de:	50 b9       	stdsp	sp[0x2c],r9
800048e0:	12 97       	mov	r7,r9
800048e2:	0a 94       	mov	r4,r5
800048e4:	40 a2       	lddsp	r2,sp[0x28]
800048e6:	32 5a       	mov	r10,37
800048e8:	30 08       	mov	r8,0
800048ea:	c0 28       	rjmp	800048ee <_vfprintf_r+0x122>
800048ec:	2f f2       	sub	r2,-1
800048ee:	05 89       	ld.ub	r9,r2[0x0]
800048f0:	f0 09 18 00 	cp.b	r9,r8
800048f4:	5f 1b       	srne	r11
800048f6:	f4 09 18 00 	cp.b	r9,r10
800048fa:	5f 19       	srne	r9
800048fc:	f3 eb 00 0b 	and	r11,r9,r11
80004900:	f0 0b 18 00 	cp.b	r11,r8
80004904:	cf 41       	brne	800048ec <_vfprintf_r+0x120>
80004906:	40 ab       	lddsp	r11,sp[0x28]
80004908:	e4 0b 01 06 	sub	r6,r2,r11
8000490c:	c2 f0       	breq	8000496a <_vfprintf_r+0x19e>
8000490e:	fa f8 06 90 	ld.w	r8,sp[1680]
80004912:	0c 08       	add	r8,r6
80004914:	87 0b       	st.w	r3[0x0],r11
80004916:	fb 48 06 90 	st.w	sp[1680],r8
8000491a:	87 16       	st.w	r3[0x4],r6
8000491c:	fa f8 06 8c 	ld.w	r8,sp[1676]
80004920:	2f f8       	sub	r8,-1
80004922:	fb 48 06 8c 	st.w	sp[1676],r8
80004926:	58 78       	cp.w	r8,7
80004928:	e0 89 00 14 	brgt	80004950 <_vfprintf_r+0x184>
8000492c:	2f 83       	sub	r3,-8
8000492e:	c1 b8       	rjmp	80004964 <_vfprintf_r+0x198>
80004930:	80 00       	ld.sh	r0,r0[0x0]
80004932:	7e 68       	ld.w	r8,pc[0x18]
80004934:	80 00       	ld.sh	r0,r0[0x0]
80004936:	78 58       	ld.w	r8,r12[0x14]
80004938:	80 00       	ld.sh	r0,r0[0x0]
8000493a:	a5 c4       	cbr	r4,0x4
8000493c:	80 00       	ld.sh	r0,r0[0x0]
8000493e:	a5 e4       	*unknown*
80004940:	80 00       	ld.sh	r0,r0[0x0]
80004942:	a6 04       	st.h	r3[0x0],r4
80004944:	80 00       	ld.sh	r0,r0[0x0]
80004946:	67 e0       	ld.w	r0,r3[0x78]
80004948:	80 00       	ld.sh	r0,r0[0x0]
8000494a:	47 cc       	lddsp	r12,sp[0x1f0]
8000494c:	80 00       	ld.sh	r0,r0[0x0]
8000494e:	76 7c       	ld.w	r12,r11[0x1c]
80004950:	fa ca f9 78 	sub	r10,sp,-1672
80004954:	02 9b       	mov	r11,r1
80004956:	08 9c       	mov	r12,r4
80004958:	f0 1f 00 71 	mcall	80004b1c <_vfprintf_r+0x350>
8000495c:	e0 81 0e f9 	brne	8000674e <_vfprintf_r+0x1f82>
80004960:	fa c3 f9 e0 	sub	r3,sp,-1568
80004964:	40 ba       	lddsp	r10,sp[0x2c]
80004966:	0c 0a       	add	r10,r6
80004968:	50 ba       	stdsp	sp[0x2c],r10
8000496a:	05 89       	ld.ub	r9,r2[0x0]
8000496c:	30 08       	mov	r8,0
8000496e:	f0 09 18 00 	cp.b	r9,r8
80004972:	e0 80 0e dd 	breq	8000672c <_vfprintf_r+0x1f60>
80004976:	30 09       	mov	r9,0
80004978:	fb 68 06 bb 	st.b	sp[1723],r8
8000497c:	0e 96       	mov	r6,r7
8000497e:	e4 c8 ff ff 	sub	r8,r2,-1
80004982:	3f fe       	mov	lr,-1
80004984:	50 93       	stdsp	sp[0x24],r3
80004986:	50 41       	stdsp	sp[0x10],r1
80004988:	0e 93       	mov	r3,r7
8000498a:	04 91       	mov	r1,r2
8000498c:	50 89       	stdsp	sp[0x20],r9
8000498e:	50 a8       	stdsp	sp[0x28],r8
80004990:	50 2e       	stdsp	sp[0x8],lr
80004992:	50 39       	stdsp	sp[0xc],r9
80004994:	12 95       	mov	r5,r9
80004996:	12 90       	mov	r0,r9
80004998:	10 97       	mov	r7,r8
8000499a:	08 92       	mov	r2,r4
8000499c:	c0 78       	rjmp	800049aa <_vfprintf_r+0x1de>
8000499e:	3f fc       	mov	r12,-1
800049a0:	08 97       	mov	r7,r4
800049a2:	50 2c       	stdsp	sp[0x8],r12
800049a4:	c0 38       	rjmp	800049aa <_vfprintf_r+0x1de>
800049a6:	30 0b       	mov	r11,0
800049a8:	50 3b       	stdsp	sp[0xc],r11
800049aa:	0f 38       	ld.ub	r8,r7++
800049ac:	c0 28       	rjmp	800049b0 <_vfprintf_r+0x1e4>
800049ae:	12 90       	mov	r0,r9
800049b0:	f0 c9 00 20 	sub	r9,r8,32
800049b4:	e0 49 00 58 	cp.w	r9,88
800049b8:	e0 8b 0a 4d 	brhi	80005e52 <_vfprintf_r+0x1686>
800049bc:	4d 9a       	lddpc	r10,80004b20 <_vfprintf_r+0x354>
800049be:	f4 09 03 2f 	ld.w	pc,r10[r9<<0x2]
800049c2:	50 a7       	stdsp	sp[0x28],r7
800049c4:	50 80       	stdsp	sp[0x20],r0
800049c6:	0c 97       	mov	r7,r6
800049c8:	04 94       	mov	r4,r2
800049ca:	06 96       	mov	r6,r3
800049cc:	02 92       	mov	r2,r1
800049ce:	4d 69       	lddpc	r9,80004b24 <_vfprintf_r+0x358>
800049d0:	40 93       	lddsp	r3,sp[0x24]
800049d2:	10 90       	mov	r0,r8
800049d4:	40 41       	lddsp	r1,sp[0x10]
800049d6:	50 d9       	stdsp	sp[0x34],r9
800049d8:	e0 8f 08 aa 	bral	80005b2c <_vfprintf_r+0x1360>
800049dc:	30 08       	mov	r8,0
800049de:	fb 39 06 bb 	ld.ub	r9,sp[1723]
800049e2:	f0 09 18 00 	cp.b	r9,r8
800049e6:	ce 21       	brne	800049aa <_vfprintf_r+0x1de>
800049e8:	32 08       	mov	r8,32
800049ea:	c6 e8       	rjmp	80004ac6 <_vfprintf_r+0x2fa>
800049ec:	a1 a5       	sbr	r5,0x0
800049ee:	cd eb       	rjmp	800049aa <_vfprintf_r+0x1de>
800049f0:	0f 89       	ld.ub	r9,r7[0x0]
800049f2:	f2 c8 00 30 	sub	r8,r9,48
800049f6:	58 98       	cp.w	r8,9
800049f8:	e0 8b 00 1d 	brhi	80004a32 <_vfprintf_r+0x266>
800049fc:	ee c8 ff ff 	sub	r8,r7,-1
80004a00:	30 0b       	mov	r11,0
80004a02:	23 09       	sub	r9,48
80004a04:	f6 0b 00 2b 	add	r11,r11,r11<<0x2
80004a08:	f2 0b 00 1b 	add	r11,r9,r11<<0x1
80004a0c:	11 39       	ld.ub	r9,r8++
80004a0e:	f2 ca 00 30 	sub	r10,r9,48
80004a12:	58 9a       	cp.w	r10,9
80004a14:	fe 98 ff f7 	brls	80004a02 <_vfprintf_r+0x236>
80004a18:	e0 49 00 24 	cp.w	r9,36
80004a1c:	cc 51       	brne	800049a6 <_vfprintf_r+0x1da>
80004a1e:	e0 4b 00 20 	cp.w	r11,32
80004a22:	e0 89 0e 95 	brgt	8000674c <_vfprintf_r+0x1f80>
80004a26:	20 1b       	sub	r11,1
80004a28:	fa f9 06 b4 	ld.w	r9,sp[1716]
80004a2c:	12 3b       	cp.w	r11,r9
80004a2e:	c0 95       	brlt	80004a40 <_vfprintf_r+0x274>
80004a30:	c1 08       	rjmp	80004a50 <_vfprintf_r+0x284>
80004a32:	fa f9 06 b4 	ld.w	r9,sp[1716]
80004a36:	ec ca ff ff 	sub	r10,r6,-1
80004a3a:	12 36       	cp.w	r6,r9
80004a3c:	c1 f5       	brlt	80004a7a <_vfprintf_r+0x2ae>
80004a3e:	c2 68       	rjmp	80004a8a <_vfprintf_r+0x2be>
80004a40:	fa ce f9 44 	sub	lr,sp,-1724
80004a44:	10 97       	mov	r7,r8
80004a46:	fc 0b 00 3b 	add	r11,lr,r11<<0x3
80004a4a:	f6 f0 fd 88 	ld.w	r0,r11[-632]
80004a4e:	c3 58       	rjmp	80004ab8 <_vfprintf_r+0x2ec>
80004a50:	10 97       	mov	r7,r8
80004a52:	fa c8 f9 50 	sub	r8,sp,-1712
80004a56:	1a d8       	st.w	--sp,r8
80004a58:	fa c8 fa b8 	sub	r8,sp,-1352
80004a5c:	1a d8       	st.w	--sp,r8
80004a5e:	fa c8 fb b4 	sub	r8,sp,-1100
80004a62:	02 9a       	mov	r10,r1
80004a64:	1a d8       	st.w	--sp,r8
80004a66:	04 9c       	mov	r12,r2
80004a68:	fa c8 f9 40 	sub	r8,sp,-1728
80004a6c:	fa c9 ff b4 	sub	r9,sp,-76
80004a70:	f0 1f 00 2e 	mcall	80004b28 <_vfprintf_r+0x35c>
80004a74:	2f dd       	sub	sp,-12
80004a76:	78 00       	ld.w	r0,r12[0x0]
80004a78:	c2 08       	rjmp	80004ab8 <_vfprintf_r+0x2ec>
80004a7a:	fa cc f9 44 	sub	r12,sp,-1724
80004a7e:	14 96       	mov	r6,r10
80004a80:	f8 03 00 38 	add	r8,r12,r3<<0x3
80004a84:	f0 f0 fd 88 	ld.w	r0,r8[-632]
80004a88:	c1 88       	rjmp	80004ab8 <_vfprintf_r+0x2ec>
80004a8a:	41 08       	lddsp	r8,sp[0x40]
80004a8c:	59 f9       	cp.w	r9,31
80004a8e:	e0 89 00 11 	brgt	80004ab0 <_vfprintf_r+0x2e4>
80004a92:	f0 cb ff fc 	sub	r11,r8,-4
80004a96:	51 0b       	stdsp	sp[0x40],r11
80004a98:	70 00       	ld.w	r0,r8[0x0]
80004a9a:	fa cb f9 44 	sub	r11,sp,-1724
80004a9e:	f6 09 00 38 	add	r8,r11,r9<<0x3
80004aa2:	f1 40 fd 88 	st.w	r8[-632],r0
80004aa6:	2f f9       	sub	r9,-1
80004aa8:	14 96       	mov	r6,r10
80004aaa:	fb 49 06 b4 	st.w	sp[1716],r9
80004aae:	c0 58       	rjmp	80004ab8 <_vfprintf_r+0x2ec>
80004ab0:	70 00       	ld.w	r0,r8[0x0]
80004ab2:	14 96       	mov	r6,r10
80004ab4:	2f c8       	sub	r8,-4
80004ab6:	51 08       	stdsp	sp[0x40],r8
80004ab8:	58 00       	cp.w	r0,0
80004aba:	fe 94 ff 78 	brge	800049aa <_vfprintf_r+0x1de>
80004abe:	5c 30       	neg	r0
80004ac0:	a3 a5       	sbr	r5,0x2
80004ac2:	c7 4b       	rjmp	800049aa <_vfprintf_r+0x1de>
80004ac4:	32 b8       	mov	r8,43
80004ac6:	fb 68 06 bb 	st.b	sp[1723],r8
80004aca:	c7 0b       	rjmp	800049aa <_vfprintf_r+0x1de>
80004acc:	0f 38       	ld.ub	r8,r7++
80004ace:	e0 48 00 2a 	cp.w	r8,42
80004ad2:	c0 30       	breq	80004ad8 <_vfprintf_r+0x30c>
80004ad4:	30 09       	mov	r9,0
80004ad6:	c8 08       	rjmp	80004bd6 <_vfprintf_r+0x40a>
80004ad8:	0f 88       	ld.ub	r8,r7[0x0]
80004ada:	f0 c9 00 30 	sub	r9,r8,48
80004ade:	58 99       	cp.w	r9,9
80004ae0:	e0 8b 00 26 	brhi	80004b2c <_vfprintf_r+0x360>
80004ae4:	ee c4 ff ff 	sub	r4,r7,-1
80004ae8:	30 0b       	mov	r11,0
80004aea:	23 08       	sub	r8,48
80004aec:	f6 0b 00 2b 	add	r11,r11,r11<<0x2
80004af0:	f0 0b 00 1b 	add	r11,r8,r11<<0x1
80004af4:	09 38       	ld.ub	r8,r4++
80004af6:	f0 c9 00 30 	sub	r9,r8,48
80004afa:	58 99       	cp.w	r9,9
80004afc:	fe 98 ff f7 	brls	80004aea <_vfprintf_r+0x31e>
80004b00:	e0 48 00 24 	cp.w	r8,36
80004b04:	fe 91 ff 51 	brne	800049a6 <_vfprintf_r+0x1da>
80004b08:	e0 4b 00 20 	cp.w	r11,32
80004b0c:	e0 89 0e 20 	brgt	8000674c <_vfprintf_r+0x1f80>
80004b10:	20 1b       	sub	r11,1
80004b12:	fa f8 06 b4 	ld.w	r8,sp[1716]
80004b16:	10 3b       	cp.w	r11,r8
80004b18:	c1 15       	brlt	80004b3a <_vfprintf_r+0x36e>
80004b1a:	c1 88       	rjmp	80004b4a <_vfprintf_r+0x37e>
80004b1c:	80 00       	ld.sh	r0,r0[0x0]
80004b1e:	47 ac       	lddsp	r12,sp[0x1e8]
80004b20:	80 00       	ld.sh	r0,r0[0x0]
80004b22:	a2 1c       	st.h	r1[0x2],r12
80004b24:	80 00       	ld.sh	r0,r0[0x0]
80004b26:	a4 58       	st.h	r2[0xa],r8
80004b28:	80 00       	ld.sh	r0,r0[0x0]
80004b2a:	44 88       	lddsp	r8,sp[0x120]
80004b2c:	fa fa 06 b4 	ld.w	r10,sp[1716]
80004b30:	ec c9 ff ff 	sub	r9,r6,-1
80004b34:	14 36       	cp.w	r6,r10
80004b36:	c1 f5       	brlt	80004b74 <_vfprintf_r+0x3a8>
80004b38:	c2 88       	rjmp	80004b88 <_vfprintf_r+0x3bc>
80004b3a:	fa ca f9 44 	sub	r10,sp,-1724
80004b3e:	f4 0b 00 3b 	add	r11,r10,r11<<0x3
80004b42:	f6 fb fd 88 	ld.w	r11,r11[-632]
80004b46:	50 2b       	stdsp	sp[0x8],r11
80004b48:	c3 c8       	rjmp	80004bc0 <_vfprintf_r+0x3f4>
80004b4a:	fa c8 f9 50 	sub	r8,sp,-1712
80004b4e:	1a d8       	st.w	--sp,r8
80004b50:	fa c8 fa b8 	sub	r8,sp,-1352
80004b54:	1a d8       	st.w	--sp,r8
80004b56:	fa c8 fb b4 	sub	r8,sp,-1100
80004b5a:	02 9a       	mov	r10,r1
80004b5c:	1a d8       	st.w	--sp,r8
80004b5e:	04 9c       	mov	r12,r2
80004b60:	fa c8 f9 40 	sub	r8,sp,-1728
80004b64:	fa c9 ff b4 	sub	r9,sp,-76
80004b68:	f0 1f 01 9e 	mcall	800051e0 <_vfprintf_r+0xa14>
80004b6c:	2f dd       	sub	sp,-12
80004b6e:	78 0c       	ld.w	r12,r12[0x0]
80004b70:	50 2c       	stdsp	sp[0x8],r12
80004b72:	c2 78       	rjmp	80004bc0 <_vfprintf_r+0x3f4>
80004b74:	12 96       	mov	r6,r9
80004b76:	0e 94       	mov	r4,r7
80004b78:	fa c9 f9 44 	sub	r9,sp,-1724
80004b7c:	f2 03 00 38 	add	r8,r9,r3<<0x3
80004b80:	f0 f8 fd 88 	ld.w	r8,r8[-632]
80004b84:	50 28       	stdsp	sp[0x8],r8
80004b86:	c1 d8       	rjmp	80004bc0 <_vfprintf_r+0x3f4>
80004b88:	41 08       	lddsp	r8,sp[0x40]
80004b8a:	59 fa       	cp.w	r10,31
80004b8c:	e0 89 00 14 	brgt	80004bb4 <_vfprintf_r+0x3e8>
80004b90:	f0 cb ff fc 	sub	r11,r8,-4
80004b94:	70 08       	ld.w	r8,r8[0x0]
80004b96:	51 0b       	stdsp	sp[0x40],r11
80004b98:	50 28       	stdsp	sp[0x8],r8
80004b9a:	fa c6 f9 44 	sub	r6,sp,-1724
80004b9e:	40 2e       	lddsp	lr,sp[0x8]
80004ba0:	ec 0a 00 38 	add	r8,r6,r10<<0x3
80004ba4:	f1 4e fd 88 	st.w	r8[-632],lr
80004ba8:	2f fa       	sub	r10,-1
80004baa:	0e 94       	mov	r4,r7
80004bac:	fb 4a 06 b4 	st.w	sp[1716],r10
80004bb0:	12 96       	mov	r6,r9
80004bb2:	c0 78       	rjmp	80004bc0 <_vfprintf_r+0x3f4>
80004bb4:	70 0c       	ld.w	r12,r8[0x0]
80004bb6:	0e 94       	mov	r4,r7
80004bb8:	2f c8       	sub	r8,-4
80004bba:	50 2c       	stdsp	sp[0x8],r12
80004bbc:	12 96       	mov	r6,r9
80004bbe:	51 08       	stdsp	sp[0x40],r8
80004bc0:	40 2b       	lddsp	r11,sp[0x8]
80004bc2:	58 0b       	cp.w	r11,0
80004bc4:	fe 95 fe ed 	brlt	8000499e <_vfprintf_r+0x1d2>
80004bc8:	08 97       	mov	r7,r4
80004bca:	cf 0a       	rjmp	800049aa <_vfprintf_r+0x1de>
80004bcc:	f2 09 00 29 	add	r9,r9,r9<<0x2
80004bd0:	0f 38       	ld.ub	r8,r7++
80004bd2:	f4 09 00 19 	add	r9,r10,r9<<0x1
80004bd6:	f0 ca 00 30 	sub	r10,r8,48
80004bda:	58 9a       	cp.w	r10,9
80004bdc:	fe 98 ff f8 	brls	80004bcc <_vfprintf_r+0x400>
80004be0:	3f fa       	mov	r10,-1
80004be2:	f2 0a 0c 49 	max	r9,r9,r10
80004be6:	50 29       	stdsp	sp[0x8],r9
80004be8:	ce 4a       	rjmp	800049b0 <_vfprintf_r+0x1e4>
80004bea:	a7 b5       	sbr	r5,0x7
80004bec:	cd fa       	rjmp	800049aa <_vfprintf_r+0x1de>
80004bee:	30 09       	mov	r9,0
80004bf0:	23 08       	sub	r8,48
80004bf2:	f2 09 00 29 	add	r9,r9,r9<<0x2
80004bf6:	f0 09 00 19 	add	r9,r8,r9<<0x1
80004bfa:	0f 38       	ld.ub	r8,r7++
80004bfc:	f0 ca 00 30 	sub	r10,r8,48
80004c00:	58 9a       	cp.w	r10,9
80004c02:	fe 98 ff f7 	brls	80004bf0 <_vfprintf_r+0x424>
80004c06:	e0 48 00 24 	cp.w	r8,36
80004c0a:	fe 91 fe d2 	brne	800049ae <_vfprintf_r+0x1e2>
80004c0e:	e0 49 00 20 	cp.w	r9,32
80004c12:	e0 89 0d 9d 	brgt	8000674c <_vfprintf_r+0x1f80>
80004c16:	f2 c3 00 01 	sub	r3,r9,1
80004c1a:	30 19       	mov	r9,1
80004c1c:	50 39       	stdsp	sp[0xc],r9
80004c1e:	cc 6a       	rjmp	800049aa <_vfprintf_r+0x1de>
80004c20:	a3 b5       	sbr	r5,0x3
80004c22:	cc 4a       	rjmp	800049aa <_vfprintf_r+0x1de>
80004c24:	a7 a5       	sbr	r5,0x6
80004c26:	cc 2a       	rjmp	800049aa <_vfprintf_r+0x1de>
80004c28:	0a 98       	mov	r8,r5
80004c2a:	a5 b5       	sbr	r5,0x5
80004c2c:	a5 a8       	sbr	r8,0x4
80004c2e:	0f 89       	ld.ub	r9,r7[0x0]
80004c30:	36 ce       	mov	lr,108
80004c32:	fc 09 18 00 	cp.b	r9,lr
80004c36:	f7 b7 00 ff 	subeq	r7,-1
80004c3a:	f0 05 17 10 	movne	r5,r8
80004c3e:	cb 6a       	rjmp	800049aa <_vfprintf_r+0x1de>
80004c40:	a5 b5       	sbr	r5,0x5
80004c42:	cb 4a       	rjmp	800049aa <_vfprintf_r+0x1de>
80004c44:	50 a7       	stdsp	sp[0x28],r7
80004c46:	50 80       	stdsp	sp[0x20],r0
80004c48:	0c 97       	mov	r7,r6
80004c4a:	10 90       	mov	r0,r8
80004c4c:	06 96       	mov	r6,r3
80004c4e:	04 94       	mov	r4,r2
80004c50:	40 93       	lddsp	r3,sp[0x24]
80004c52:	02 92       	mov	r2,r1
80004c54:	0e 99       	mov	r9,r7
80004c56:	40 41       	lddsp	r1,sp[0x10]
80004c58:	fa f8 06 b4 	ld.w	r8,sp[1716]
80004c5c:	40 3c       	lddsp	r12,sp[0xc]
80004c5e:	58 0c       	cp.w	r12,0
80004c60:	c1 d0       	breq	80004c9a <_vfprintf_r+0x4ce>
80004c62:	10 36       	cp.w	r6,r8
80004c64:	c0 64       	brge	80004c70 <_vfprintf_r+0x4a4>
80004c66:	fa cb f9 44 	sub	r11,sp,-1724
80004c6a:	f6 06 00 36 	add	r6,r11,r6<<0x3
80004c6e:	c1 d8       	rjmp	80004ca8 <_vfprintf_r+0x4dc>
80004c70:	fa c8 f9 50 	sub	r8,sp,-1712
80004c74:	1a d8       	st.w	--sp,r8
80004c76:	fa c8 fa b8 	sub	r8,sp,-1352
80004c7a:	1a d8       	st.w	--sp,r8
80004c7c:	fa c8 fb b4 	sub	r8,sp,-1100
80004c80:	1a d8       	st.w	--sp,r8
80004c82:	fa c8 f9 40 	sub	r8,sp,-1728
80004c86:	fa c9 ff b4 	sub	r9,sp,-76
80004c8a:	04 9a       	mov	r10,r2
80004c8c:	0c 9b       	mov	r11,r6
80004c8e:	08 9c       	mov	r12,r4
80004c90:	f0 1f 01 54 	mcall	800051e0 <_vfprintf_r+0xa14>
80004c94:	2f dd       	sub	sp,-12
80004c96:	19 b8       	ld.ub	r8,r12[0x3]
80004c98:	c2 28       	rjmp	80004cdc <_vfprintf_r+0x510>
80004c9a:	2f f7       	sub	r7,-1
80004c9c:	10 39       	cp.w	r9,r8
80004c9e:	c0 84       	brge	80004cae <_vfprintf_r+0x4e2>
80004ca0:	fa ca f9 44 	sub	r10,sp,-1724
80004ca4:	f4 06 00 36 	add	r6,r10,r6<<0x3
80004ca8:	ed 38 fd 8b 	ld.ub	r8,r6[-629]
80004cac:	c1 88       	rjmp	80004cdc <_vfprintf_r+0x510>
80004cae:	41 09       	lddsp	r9,sp[0x40]
80004cb0:	59 f8       	cp.w	r8,31
80004cb2:	e0 89 00 12 	brgt	80004cd6 <_vfprintf_r+0x50a>
80004cb6:	f2 ca ff fc 	sub	r10,r9,-4
80004cba:	51 0a       	stdsp	sp[0x40],r10
80004cbc:	72 09       	ld.w	r9,r9[0x0]
80004cbe:	fa c6 f9 44 	sub	r6,sp,-1724
80004cc2:	ec 08 00 3a 	add	r10,r6,r8<<0x3
80004cc6:	2f f8       	sub	r8,-1
80004cc8:	f5 49 fd 88 	st.w	r10[-632],r9
80004ccc:	fb 48 06 b4 	st.w	sp[1716],r8
80004cd0:	f1 d9 c0 08 	bfextu	r8,r9,0x0,0x8
80004cd4:	c0 48       	rjmp	80004cdc <_vfprintf_r+0x510>
80004cd6:	13 b8       	ld.ub	r8,r9[0x3]
80004cd8:	2f c9       	sub	r9,-4
80004cda:	51 09       	stdsp	sp[0x40],r9
80004cdc:	fb 68 06 60 	st.b	sp[1632],r8
80004ce0:	30 0e       	mov	lr,0
80004ce2:	30 08       	mov	r8,0
80004ce4:	30 12       	mov	r2,1
80004ce6:	fb 68 06 bb 	st.b	sp[1723],r8
80004cea:	50 2e       	stdsp	sp[0x8],lr
80004cec:	e0 8f 08 c5 	bral	80005e76 <_vfprintf_r+0x16aa>
80004cf0:	50 a7       	stdsp	sp[0x28],r7
80004cf2:	50 80       	stdsp	sp[0x20],r0
80004cf4:	0c 97       	mov	r7,r6
80004cf6:	04 94       	mov	r4,r2
80004cf8:	06 96       	mov	r6,r3
80004cfa:	02 92       	mov	r2,r1
80004cfc:	40 93       	lddsp	r3,sp[0x24]
80004cfe:	10 90       	mov	r0,r8
80004d00:	40 41       	lddsp	r1,sp[0x10]
80004d02:	a5 a5       	sbr	r5,0x4
80004d04:	c0 a8       	rjmp	80004d18 <_vfprintf_r+0x54c>
80004d06:	50 a7       	stdsp	sp[0x28],r7
80004d08:	50 80       	stdsp	sp[0x20],r0
80004d0a:	0c 97       	mov	r7,r6
80004d0c:	04 94       	mov	r4,r2
80004d0e:	06 96       	mov	r6,r3
80004d10:	02 92       	mov	r2,r1
80004d12:	40 93       	lddsp	r3,sp[0x24]
80004d14:	10 90       	mov	r0,r8
80004d16:	40 41       	lddsp	r1,sp[0x10]
80004d18:	ed b5 00 05 	bld	r5,0x5
80004d1c:	c5 11       	brne	80004dbe <_vfprintf_r+0x5f2>
80004d1e:	fa f8 06 b4 	ld.w	r8,sp[1716]
80004d22:	40 3c       	lddsp	r12,sp[0xc]
80004d24:	58 0c       	cp.w	r12,0
80004d26:	c1 e0       	breq	80004d62 <_vfprintf_r+0x596>
80004d28:	10 36       	cp.w	r6,r8
80004d2a:	c0 64       	brge	80004d36 <_vfprintf_r+0x56a>
80004d2c:	fa cb f9 44 	sub	r11,sp,-1724
80004d30:	f6 06 00 36 	add	r6,r11,r6<<0x3
80004d34:	c2 08       	rjmp	80004d74 <_vfprintf_r+0x5a8>
80004d36:	fa c8 f9 50 	sub	r8,sp,-1712
80004d3a:	1a d8       	st.w	--sp,r8
80004d3c:	fa c8 fa b8 	sub	r8,sp,-1352
80004d40:	0c 9b       	mov	r11,r6
80004d42:	1a d8       	st.w	--sp,r8
80004d44:	fa c8 fb b4 	sub	r8,sp,-1100
80004d48:	1a d8       	st.w	--sp,r8
80004d4a:	fa c9 ff b4 	sub	r9,sp,-76
80004d4e:	fa c8 f9 40 	sub	r8,sp,-1728
80004d52:	04 9a       	mov	r10,r2
80004d54:	08 9c       	mov	r12,r4
80004d56:	f0 1f 01 23 	mcall	800051e0 <_vfprintf_r+0xa14>
80004d5a:	2f dd       	sub	sp,-12
80004d5c:	78 1b       	ld.w	r11,r12[0x4]
80004d5e:	78 09       	ld.w	r9,r12[0x0]
80004d60:	c2 b8       	rjmp	80004db6 <_vfprintf_r+0x5ea>
80004d62:	ee ca ff ff 	sub	r10,r7,-1
80004d66:	10 37       	cp.w	r7,r8
80004d68:	c0 b4       	brge	80004d7e <_vfprintf_r+0x5b2>
80004d6a:	fa c9 f9 44 	sub	r9,sp,-1724
80004d6e:	14 97       	mov	r7,r10
80004d70:	f2 06 00 36 	add	r6,r9,r6<<0x3
80004d74:	ec fb fd 8c 	ld.w	r11,r6[-628]
80004d78:	ec f9 fd 88 	ld.w	r9,r6[-632]
80004d7c:	c1 d8       	rjmp	80004db6 <_vfprintf_r+0x5ea>
80004d7e:	41 09       	lddsp	r9,sp[0x40]
80004d80:	59 f8       	cp.w	r8,31
80004d82:	e0 89 00 14 	brgt	80004daa <_vfprintf_r+0x5de>
80004d86:	f2 cb ff f8 	sub	r11,r9,-8
80004d8a:	51 0b       	stdsp	sp[0x40],r11
80004d8c:	fa c6 f9 44 	sub	r6,sp,-1724
80004d90:	72 1b       	ld.w	r11,r9[0x4]
80004d92:	ec 08 00 3c 	add	r12,r6,r8<<0x3
80004d96:	72 09       	ld.w	r9,r9[0x0]
80004d98:	f9 4b fd 8c 	st.w	r12[-628],r11
80004d9c:	f9 49 fd 88 	st.w	r12[-632],r9
80004da0:	2f f8       	sub	r8,-1
80004da2:	14 97       	mov	r7,r10
80004da4:	fb 48 06 b4 	st.w	sp[1716],r8
80004da8:	c0 78       	rjmp	80004db6 <_vfprintf_r+0x5ea>
80004daa:	f2 c8 ff f8 	sub	r8,r9,-8
80004dae:	72 1b       	ld.w	r11,r9[0x4]
80004db0:	14 97       	mov	r7,r10
80004db2:	51 08       	stdsp	sp[0x40],r8
80004db4:	72 09       	ld.w	r9,r9[0x0]
80004db6:	16 98       	mov	r8,r11
80004db8:	fa e9 00 00 	st.d	sp[0],r8
80004dbc:	ca e8       	rjmp	80004f18 <_vfprintf_r+0x74c>
80004dbe:	ed b5 00 04 	bld	r5,0x4
80004dc2:	c1 71       	brne	80004df0 <_vfprintf_r+0x624>
80004dc4:	fa f8 06 b4 	ld.w	r8,sp[1716]
80004dc8:	40 3e       	lddsp	lr,sp[0xc]
80004dca:	58 0e       	cp.w	lr,0
80004dcc:	c0 80       	breq	80004ddc <_vfprintf_r+0x610>
80004dce:	10 36       	cp.w	r6,r8
80004dd0:	c6 94       	brge	80004ea2 <_vfprintf_r+0x6d6>
80004dd2:	fa cc f9 44 	sub	r12,sp,-1724
80004dd6:	f8 06 00 36 	add	r6,r12,r6<<0x3
80004dda:	c8 28       	rjmp	80004ede <_vfprintf_r+0x712>
80004ddc:	ee ca ff ff 	sub	r10,r7,-1
80004de0:	10 37       	cp.w	r7,r8
80004de2:	e0 84 00 81 	brge	80004ee4 <_vfprintf_r+0x718>
80004de6:	fa cb f9 44 	sub	r11,sp,-1724
80004dea:	f6 06 00 36 	add	r6,r11,r6<<0x3
80004dee:	c7 78       	rjmp	80004edc <_vfprintf_r+0x710>
80004df0:	ed b5 00 06 	bld	r5,0x6
80004df4:	c4 b1       	brne	80004e8a <_vfprintf_r+0x6be>
80004df6:	fa f8 06 b4 	ld.w	r8,sp[1716]
80004dfa:	40 3c       	lddsp	r12,sp[0xc]
80004dfc:	58 0c       	cp.w	r12,0
80004dfe:	c1 d0       	breq	80004e38 <_vfprintf_r+0x66c>
80004e00:	10 36       	cp.w	r6,r8
80004e02:	c0 64       	brge	80004e0e <_vfprintf_r+0x642>
80004e04:	fa cb f9 44 	sub	r11,sp,-1724
80004e08:	f6 06 00 36 	add	r6,r11,r6<<0x3
80004e0c:	c1 f8       	rjmp	80004e4a <_vfprintf_r+0x67e>
80004e0e:	fa c8 f9 50 	sub	r8,sp,-1712
80004e12:	1a d8       	st.w	--sp,r8
80004e14:	fa c8 fa b8 	sub	r8,sp,-1352
80004e18:	1a d8       	st.w	--sp,r8
80004e1a:	fa c8 fb b4 	sub	r8,sp,-1100
80004e1e:	1a d8       	st.w	--sp,r8
80004e20:	fa c8 f9 40 	sub	r8,sp,-1728
80004e24:	fa c9 ff b4 	sub	r9,sp,-76
80004e28:	04 9a       	mov	r10,r2
80004e2a:	0c 9b       	mov	r11,r6
80004e2c:	08 9c       	mov	r12,r4
80004e2e:	f0 1f 00 ed 	mcall	800051e0 <_vfprintf_r+0xa14>
80004e32:	2f dd       	sub	sp,-12
80004e34:	98 18       	ld.sh	r8,r12[0x2]
80004e36:	c2 68       	rjmp	80004e82 <_vfprintf_r+0x6b6>
80004e38:	ee ca ff ff 	sub	r10,r7,-1
80004e3c:	10 37       	cp.w	r7,r8
80004e3e:	c0 94       	brge	80004e50 <_vfprintf_r+0x684>
80004e40:	fa c9 f9 44 	sub	r9,sp,-1724
80004e44:	14 97       	mov	r7,r10
80004e46:	f2 06 00 36 	add	r6,r9,r6<<0x3
80004e4a:	ed 08 fd 8a 	ld.sh	r8,r6[-630]
80004e4e:	c1 a8       	rjmp	80004e82 <_vfprintf_r+0x6b6>
80004e50:	41 09       	lddsp	r9,sp[0x40]
80004e52:	59 f8       	cp.w	r8,31
80004e54:	e0 89 00 13 	brgt	80004e7a <_vfprintf_r+0x6ae>
80004e58:	f2 cb ff fc 	sub	r11,r9,-4
80004e5c:	51 0b       	stdsp	sp[0x40],r11
80004e5e:	72 09       	ld.w	r9,r9[0x0]
80004e60:	fa c6 f9 44 	sub	r6,sp,-1724
80004e64:	ec 08 00 3b 	add	r11,r6,r8<<0x3
80004e68:	2f f8       	sub	r8,-1
80004e6a:	f7 49 fd 88 	st.w	r11[-632],r9
80004e6e:	fb 48 06 b4 	st.w	sp[1716],r8
80004e72:	14 97       	mov	r7,r10
80004e74:	f1 d9 b0 10 	bfexts	r8,r9,0x0,0x10
80004e78:	c0 58       	rjmp	80004e82 <_vfprintf_r+0x6b6>
80004e7a:	92 18       	ld.sh	r8,r9[0x2]
80004e7c:	14 97       	mov	r7,r10
80004e7e:	2f c9       	sub	r9,-4
80004e80:	51 09       	stdsp	sp[0x40],r9
80004e82:	50 18       	stdsp	sp[0x4],r8
80004e84:	bf 58       	asr	r8,0x1f
80004e86:	50 08       	stdsp	sp[0x0],r8
80004e88:	c4 88       	rjmp	80004f18 <_vfprintf_r+0x74c>
80004e8a:	fa f8 06 b4 	ld.w	r8,sp[1716]
80004e8e:	40 3c       	lddsp	r12,sp[0xc]
80004e90:	58 0c       	cp.w	r12,0
80004e92:	c1 d0       	breq	80004ecc <_vfprintf_r+0x700>
80004e94:	10 36       	cp.w	r6,r8
80004e96:	c0 64       	brge	80004ea2 <_vfprintf_r+0x6d6>
80004e98:	fa cb f9 44 	sub	r11,sp,-1724
80004e9c:	f6 06 00 36 	add	r6,r11,r6<<0x3
80004ea0:	c1 f8       	rjmp	80004ede <_vfprintf_r+0x712>
80004ea2:	fa c8 f9 50 	sub	r8,sp,-1712
80004ea6:	1a d8       	st.w	--sp,r8
80004ea8:	fa c8 fa b8 	sub	r8,sp,-1352
80004eac:	0c 9b       	mov	r11,r6
80004eae:	1a d8       	st.w	--sp,r8
80004eb0:	fa c8 fb b4 	sub	r8,sp,-1100
80004eb4:	04 9a       	mov	r10,r2
80004eb6:	1a d8       	st.w	--sp,r8
80004eb8:	08 9c       	mov	r12,r4
80004eba:	fa c8 f9 40 	sub	r8,sp,-1728
80004ebe:	fa c9 ff b4 	sub	r9,sp,-76
80004ec2:	f0 1f 00 c8 	mcall	800051e0 <_vfprintf_r+0xa14>
80004ec6:	2f dd       	sub	sp,-12
80004ec8:	78 0b       	ld.w	r11,r12[0x0]
80004eca:	c2 48       	rjmp	80004f12 <_vfprintf_r+0x746>
80004ecc:	ee ca ff ff 	sub	r10,r7,-1
80004ed0:	10 37       	cp.w	r7,r8
80004ed2:	c0 94       	brge	80004ee4 <_vfprintf_r+0x718>
80004ed4:	fa c9 f9 44 	sub	r9,sp,-1724
80004ed8:	f2 06 00 36 	add	r6,r9,r6<<0x3
80004edc:	14 97       	mov	r7,r10
80004ede:	ec fb fd 88 	ld.w	r11,r6[-632]
80004ee2:	c1 88       	rjmp	80004f12 <_vfprintf_r+0x746>
80004ee4:	41 09       	lddsp	r9,sp[0x40]
80004ee6:	59 f8       	cp.w	r8,31
80004ee8:	e0 89 00 11 	brgt	80004f0a <_vfprintf_r+0x73e>
80004eec:	f2 cb ff fc 	sub	r11,r9,-4
80004ef0:	51 0b       	stdsp	sp[0x40],r11
80004ef2:	fa c6 f9 44 	sub	r6,sp,-1724
80004ef6:	72 0b       	ld.w	r11,r9[0x0]
80004ef8:	ec 08 00 39 	add	r9,r6,r8<<0x3
80004efc:	f3 4b fd 88 	st.w	r9[-632],r11
80004f00:	2f f8       	sub	r8,-1
80004f02:	14 97       	mov	r7,r10
80004f04:	fb 48 06 b4 	st.w	sp[1716],r8
80004f08:	c0 58       	rjmp	80004f12 <_vfprintf_r+0x746>
80004f0a:	72 0b       	ld.w	r11,r9[0x0]
80004f0c:	14 97       	mov	r7,r10
80004f0e:	2f c9       	sub	r9,-4
80004f10:	51 09       	stdsp	sp[0x40],r9
80004f12:	50 1b       	stdsp	sp[0x4],r11
80004f14:	bf 5b       	asr	r11,0x1f
80004f16:	50 0b       	stdsp	sp[0x0],r11
80004f18:	fa ea 00 00 	ld.d	r10,sp[0]
80004f1c:	58 0a       	cp.w	r10,0
80004f1e:	5c 2b       	cpc	r11
80004f20:	c0 e4       	brge	80004f3c <_vfprintf_r+0x770>
80004f22:	30 08       	mov	r8,0
80004f24:	fa ea 00 00 	ld.d	r10,sp[0]
80004f28:	30 09       	mov	r9,0
80004f2a:	f0 0a 01 0a 	sub	r10,r8,r10
80004f2e:	f2 0b 01 4b 	sbc	r11,r9,r11
80004f32:	32 d8       	mov	r8,45
80004f34:	fa eb 00 00 	st.d	sp[0],r10
80004f38:	fb 68 06 bb 	st.b	sp[1723],r8
80004f3c:	30 18       	mov	r8,1
80004f3e:	e0 8f 07 12 	bral	80005d62 <_vfprintf_r+0x1596>
80004f42:	50 a7       	stdsp	sp[0x28],r7
80004f44:	50 80       	stdsp	sp[0x20],r0
80004f46:	0c 97       	mov	r7,r6
80004f48:	04 94       	mov	r4,r2
80004f4a:	06 96       	mov	r6,r3
80004f4c:	02 92       	mov	r2,r1
80004f4e:	40 93       	lddsp	r3,sp[0x24]
80004f50:	10 90       	mov	r0,r8
80004f52:	40 41       	lddsp	r1,sp[0x10]
80004f54:	0e 99       	mov	r9,r7
80004f56:	ed b5 00 03 	bld	r5,0x3
80004f5a:	c4 11       	brne	80004fdc <_vfprintf_r+0x810>
80004f5c:	fa f8 06 b4 	ld.w	r8,sp[1716]
80004f60:	40 3a       	lddsp	r10,sp[0xc]
80004f62:	58 0a       	cp.w	r10,0
80004f64:	c1 90       	breq	80004f96 <_vfprintf_r+0x7ca>
80004f66:	10 36       	cp.w	r6,r8
80004f68:	c6 45       	brlt	80005030 <_vfprintf_r+0x864>
80004f6a:	fa c8 f9 50 	sub	r8,sp,-1712
80004f6e:	1a d8       	st.w	--sp,r8
80004f70:	fa c8 fa b8 	sub	r8,sp,-1352
80004f74:	1a d8       	st.w	--sp,r8
80004f76:	fa c8 fb b4 	sub	r8,sp,-1100
80004f7a:	0c 9b       	mov	r11,r6
80004f7c:	1a d8       	st.w	--sp,r8
80004f7e:	04 9a       	mov	r10,r2
80004f80:	fa c8 f9 40 	sub	r8,sp,-1728
80004f84:	fa c9 ff b4 	sub	r9,sp,-76
80004f88:	08 9c       	mov	r12,r4
80004f8a:	f0 1f 00 96 	mcall	800051e0 <_vfprintf_r+0xa14>
80004f8e:	2f dd       	sub	sp,-12
80004f90:	78 16       	ld.w	r6,r12[0x4]
80004f92:	50 76       	stdsp	sp[0x1c],r6
80004f94:	c4 88       	rjmp	80005024 <_vfprintf_r+0x858>
80004f96:	2f f7       	sub	r7,-1
80004f98:	10 39       	cp.w	r9,r8
80004f9a:	c0 c4       	brge	80004fb2 <_vfprintf_r+0x7e6>
80004f9c:	fa ce f9 44 	sub	lr,sp,-1724
80004fa0:	fc 06 00 36 	add	r6,lr,r6<<0x3
80004fa4:	ec fc fd 8c 	ld.w	r12,r6[-628]
80004fa8:	50 7c       	stdsp	sp[0x1c],r12
80004faa:	ec f6 fd 88 	ld.w	r6,r6[-632]
80004fae:	50 56       	stdsp	sp[0x14],r6
80004fb0:	c6 68       	rjmp	8000507c <_vfprintf_r+0x8b0>
80004fb2:	41 09       	lddsp	r9,sp[0x40]
80004fb4:	59 f8       	cp.w	r8,31
80004fb6:	e0 89 00 10 	brgt	80004fd6 <_vfprintf_r+0x80a>
80004fba:	f2 ca ff f8 	sub	r10,r9,-8
80004fbe:	72 1b       	ld.w	r11,r9[0x4]
80004fc0:	51 0a       	stdsp	sp[0x40],r10
80004fc2:	72 09       	ld.w	r9,r9[0x0]
80004fc4:	fa ca f9 44 	sub	r10,sp,-1724
80004fc8:	50 7b       	stdsp	sp[0x1c],r11
80004fca:	50 59       	stdsp	sp[0x14],r9
80004fcc:	f4 08 00 39 	add	r9,r10,r8<<0x3
80004fd0:	40 5b       	lddsp	r11,sp[0x14]
80004fd2:	40 7a       	lddsp	r10,sp[0x1c]
80004fd4:	c4 78       	rjmp	80005062 <_vfprintf_r+0x896>
80004fd6:	72 18       	ld.w	r8,r9[0x4]
80004fd8:	50 78       	stdsp	sp[0x1c],r8
80004fda:	c4 c8       	rjmp	80005072 <_vfprintf_r+0x8a6>
80004fdc:	fa f8 06 b4 	ld.w	r8,sp[1716]
80004fe0:	40 3e       	lddsp	lr,sp[0xc]
80004fe2:	58 0e       	cp.w	lr,0
80004fe4:	c2 30       	breq	8000502a <_vfprintf_r+0x85e>
80004fe6:	10 36       	cp.w	r6,r8
80004fe8:	c0 94       	brge	80004ffa <_vfprintf_r+0x82e>
80004fea:	fa cc f9 44 	sub	r12,sp,-1724
80004fee:	f8 06 00 36 	add	r6,r12,r6<<0x3
80004ff2:	ec fb fd 8c 	ld.w	r11,r6[-628]
80004ff6:	50 7b       	stdsp	sp[0x1c],r11
80004ff8:	cd 9b       	rjmp	80004faa <_vfprintf_r+0x7de>
80004ffa:	fa c8 f9 50 	sub	r8,sp,-1712
80004ffe:	1a d8       	st.w	--sp,r8
80005000:	fa c8 fa b8 	sub	r8,sp,-1352
80005004:	04 9a       	mov	r10,r2
80005006:	1a d8       	st.w	--sp,r8
80005008:	fa c8 fb b4 	sub	r8,sp,-1100
8000500c:	0c 9b       	mov	r11,r6
8000500e:	1a d8       	st.w	--sp,r8
80005010:	08 9c       	mov	r12,r4
80005012:	fa c8 f9 40 	sub	r8,sp,-1728
80005016:	fa c9 ff b4 	sub	r9,sp,-76
8000501a:	f0 1f 00 72 	mcall	800051e0 <_vfprintf_r+0xa14>
8000501e:	2f dd       	sub	sp,-12
80005020:	78 1a       	ld.w	r10,r12[0x4]
80005022:	50 7a       	stdsp	sp[0x1c],r10
80005024:	78 0c       	ld.w	r12,r12[0x0]
80005026:	50 5c       	stdsp	sp[0x14],r12
80005028:	c2 a8       	rjmp	8000507c <_vfprintf_r+0x8b0>
8000502a:	2f f7       	sub	r7,-1
8000502c:	10 39       	cp.w	r9,r8
8000502e:	c0 94       	brge	80005040 <_vfprintf_r+0x874>
80005030:	fa c9 f9 44 	sub	r9,sp,-1724
80005034:	f2 06 00 36 	add	r6,r9,r6<<0x3
80005038:	ec f8 fd 8c 	ld.w	r8,r6[-628]
8000503c:	50 78       	stdsp	sp[0x1c],r8
8000503e:	cb 6b       	rjmp	80004faa <_vfprintf_r+0x7de>
80005040:	41 09       	lddsp	r9,sp[0x40]
80005042:	59 f8       	cp.w	r8,31
80005044:	e0 89 00 15 	brgt	8000506e <_vfprintf_r+0x8a2>
80005048:	f2 ca ff f8 	sub	r10,r9,-8
8000504c:	72 16       	ld.w	r6,r9[0x4]
8000504e:	72 09       	ld.w	r9,r9[0x0]
80005050:	51 0a       	stdsp	sp[0x40],r10
80005052:	50 59       	stdsp	sp[0x14],r9
80005054:	fa ce f9 44 	sub	lr,sp,-1724
80005058:	50 76       	stdsp	sp[0x1c],r6
8000505a:	fc 08 00 39 	add	r9,lr,r8<<0x3
8000505e:	40 5b       	lddsp	r11,sp[0x14]
80005060:	0c 9a       	mov	r10,r6
80005062:	f2 eb fd 88 	st.d	r9[-632],r10
80005066:	2f f8       	sub	r8,-1
80005068:	fb 48 06 b4 	st.w	sp[1716],r8
8000506c:	c0 88       	rjmp	8000507c <_vfprintf_r+0x8b0>
8000506e:	72 1c       	ld.w	r12,r9[0x4]
80005070:	50 7c       	stdsp	sp[0x1c],r12
80005072:	f2 c8 ff f8 	sub	r8,r9,-8
80005076:	51 08       	stdsp	sp[0x40],r8
80005078:	72 09       	ld.w	r9,r9[0x0]
8000507a:	50 59       	stdsp	sp[0x14],r9
8000507c:	40 5b       	lddsp	r11,sp[0x14]
8000507e:	40 7a       	lddsp	r10,sp[0x1c]
80005080:	f0 1f 00 59 	mcall	800051e4 <_vfprintf_r+0xa18>
80005084:	18 96       	mov	r6,r12
80005086:	c1 50       	breq	800050b0 <_vfprintf_r+0x8e4>
80005088:	30 08       	mov	r8,0
8000508a:	30 09       	mov	r9,0
8000508c:	40 5b       	lddsp	r11,sp[0x14]
8000508e:	40 7a       	lddsp	r10,sp[0x1c]
80005090:	f0 1f 00 56 	mcall	800051e8 <_vfprintf_r+0xa1c>
80005094:	c0 40       	breq	8000509c <_vfprintf_r+0x8d0>
80005096:	32 d8       	mov	r8,45
80005098:	fb 68 06 bb 	st.b	sp[1723],r8
8000509c:	4d 48       	lddpc	r8,800051ec <_vfprintf_r+0xa20>
8000509e:	4d 56       	lddpc	r6,800051f0 <_vfprintf_r+0xa24>
800050a0:	a7 d5       	cbr	r5,0x7
800050a2:	e0 40 00 47 	cp.w	r0,71
800050a6:	f0 06 17 a0 	movle	r6,r8
800050aa:	30 32       	mov	r2,3
800050ac:	e0 8f 06 e8 	bral	80005e7c <_vfprintf_r+0x16b0>
800050b0:	40 5b       	lddsp	r11,sp[0x14]
800050b2:	40 7a       	lddsp	r10,sp[0x1c]
800050b4:	f0 1f 00 50 	mcall	800051f4 <_vfprintf_r+0xa28>
800050b8:	c0 c0       	breq	800050d0 <_vfprintf_r+0x904>
800050ba:	50 26       	stdsp	sp[0x8],r6
800050bc:	4c f8       	lddpc	r8,800051f8 <_vfprintf_r+0xa2c>
800050be:	4d 06       	lddpc	r6,800051fc <_vfprintf_r+0xa30>
800050c0:	a7 d5       	cbr	r5,0x7
800050c2:	e0 40 00 47 	cp.w	r0,71
800050c6:	f0 06 17 a0 	movle	r6,r8
800050ca:	30 32       	mov	r2,3
800050cc:	e0 8f 06 de 	bral	80005e88 <_vfprintf_r+0x16bc>
800050d0:	40 2a       	lddsp	r10,sp[0x8]
800050d2:	5b fa       	cp.w	r10,-1
800050d4:	c0 41       	brne	800050dc <_vfprintf_r+0x910>
800050d6:	30 69       	mov	r9,6
800050d8:	50 29       	stdsp	sp[0x8],r9
800050da:	c1 18       	rjmp	800050fc <_vfprintf_r+0x930>
800050dc:	e0 40 00 47 	cp.w	r0,71
800050e0:	5f 09       	sreq	r9
800050e2:	e0 40 00 67 	cp.w	r0,103
800050e6:	5f 08       	sreq	r8
800050e8:	f3 e8 10 08 	or	r8,r9,r8
800050ec:	f8 08 18 00 	cp.b	r8,r12
800050f0:	c0 60       	breq	800050fc <_vfprintf_r+0x930>
800050f2:	40 28       	lddsp	r8,sp[0x8]
800050f4:	58 08       	cp.w	r8,0
800050f6:	f9 b8 00 01 	moveq	r8,1
800050fa:	50 28       	stdsp	sp[0x8],r8
800050fc:	40 78       	lddsp	r8,sp[0x1c]
800050fe:	40 59       	lddsp	r9,sp[0x14]
80005100:	fa e9 06 94 	st.d	sp[1684],r8
80005104:	a9 a5       	sbr	r5,0x8
80005106:	fa f8 06 94 	ld.w	r8,sp[1684]
8000510a:	58 08       	cp.w	r8,0
8000510c:	c0 65       	brlt	80005118 <_vfprintf_r+0x94c>
8000510e:	40 5e       	lddsp	lr,sp[0x14]
80005110:	30 0c       	mov	r12,0
80005112:	50 6e       	stdsp	sp[0x18],lr
80005114:	50 9c       	stdsp	sp[0x24],r12
80005116:	c0 78       	rjmp	80005124 <_vfprintf_r+0x958>
80005118:	40 5b       	lddsp	r11,sp[0x14]
8000511a:	32 da       	mov	r10,45
8000511c:	ee 1b 80 00 	eorh	r11,0x8000
80005120:	50 9a       	stdsp	sp[0x24],r10
80005122:	50 6b       	stdsp	sp[0x18],r11
80005124:	e0 40 00 46 	cp.w	r0,70
80005128:	5f 09       	sreq	r9
8000512a:	e0 40 00 66 	cp.w	r0,102
8000512e:	5f 08       	sreq	r8
80005130:	f3 e8 10 08 	or	r8,r9,r8
80005134:	50 48       	stdsp	sp[0x10],r8
80005136:	c0 40       	breq	8000513e <_vfprintf_r+0x972>
80005138:	40 22       	lddsp	r2,sp[0x8]
8000513a:	30 39       	mov	r9,3
8000513c:	c1 08       	rjmp	8000515c <_vfprintf_r+0x990>
8000513e:	e0 40 00 45 	cp.w	r0,69
80005142:	5f 09       	sreq	r9
80005144:	e0 40 00 65 	cp.w	r0,101
80005148:	5f 08       	sreq	r8
8000514a:	40 22       	lddsp	r2,sp[0x8]
8000514c:	10 49       	or	r9,r8
8000514e:	2f f2       	sub	r2,-1
80005150:	40 46       	lddsp	r6,sp[0x10]
80005152:	ec 09 18 00 	cp.b	r9,r6
80005156:	fb f2 00 02 	ld.weq	r2,sp[0x8]
8000515a:	30 29       	mov	r9,2
8000515c:	fa c8 f9 5c 	sub	r8,sp,-1700
80005160:	1a d8       	st.w	--sp,r8
80005162:	fa c8 f9 54 	sub	r8,sp,-1708
80005166:	1a d8       	st.w	--sp,r8
80005168:	fa c8 f9 4c 	sub	r8,sp,-1716
8000516c:	08 9c       	mov	r12,r4
8000516e:	1a d8       	st.w	--sp,r8
80005170:	04 98       	mov	r8,r2
80005172:	40 9b       	lddsp	r11,sp[0x24]
80005174:	40 aa       	lddsp	r10,sp[0x28]
80005176:	f0 1f 00 23 	mcall	80005200 <_vfprintf_r+0xa34>
8000517a:	e0 40 00 47 	cp.w	r0,71
8000517e:	5f 19       	srne	r9
80005180:	e0 40 00 67 	cp.w	r0,103
80005184:	5f 18       	srne	r8
80005186:	18 96       	mov	r6,r12
80005188:	2f dd       	sub	sp,-12
8000518a:	f3 e8 00 08 	and	r8,r9,r8
8000518e:	c0 41       	brne	80005196 <_vfprintf_r+0x9ca>
80005190:	ed b5 00 00 	bld	r5,0x0
80005194:	c4 41       	brne	8000521c <_vfprintf_r+0xa50>
80005196:	ec 02 00 0e 	add	lr,r6,r2
8000519a:	50 3e       	stdsp	sp[0xc],lr
8000519c:	40 4c       	lddsp	r12,sp[0x10]
8000519e:	58 0c       	cp.w	r12,0
800051a0:	c1 50       	breq	800051ca <_vfprintf_r+0x9fe>
800051a2:	0d 89       	ld.ub	r9,r6[0x0]
800051a4:	33 08       	mov	r8,48
800051a6:	f0 09 18 00 	cp.b	r9,r8
800051aa:	c0 b1       	brne	800051c0 <_vfprintf_r+0x9f4>
800051ac:	30 08       	mov	r8,0
800051ae:	30 09       	mov	r9,0
800051b0:	40 6b       	lddsp	r11,sp[0x18]
800051b2:	40 7a       	lddsp	r10,sp[0x1c]
800051b4:	f0 1f 00 14 	mcall	80005204 <_vfprintf_r+0xa38>
800051b8:	fb b2 00 01 	rsubeq	r2,1
800051bc:	fb f2 0b ab 	st.weq	sp[0x6ac],r2
800051c0:	40 3b       	lddsp	r11,sp[0xc]
800051c2:	fa f8 06 ac 	ld.w	r8,sp[1708]
800051c6:	10 0b       	add	r11,r8
800051c8:	50 3b       	stdsp	sp[0xc],r11
800051ca:	40 6b       	lddsp	r11,sp[0x18]
800051cc:	30 08       	mov	r8,0
800051ce:	30 09       	mov	r9,0
800051d0:	40 7a       	lddsp	r10,sp[0x1c]
800051d2:	f0 1f 00 0d 	mcall	80005204 <_vfprintf_r+0xa38>
800051d6:	c1 d0       	breq	80005210 <_vfprintf_r+0xa44>
800051d8:	40 3a       	lddsp	r10,sp[0xc]
800051da:	fb 4a 06 a4 	st.w	sp[1700],r10
800051de:	c1 98       	rjmp	80005210 <_vfprintf_r+0xa44>
800051e0:	80 00       	ld.sh	r0,r0[0x0]
800051e2:	44 88       	lddsp	r8,sp[0x120]
800051e4:	80 00       	ld.sh	r0,r0[0x0]
800051e6:	8e 78       	ld.sh	r8,r7[0xe]
800051e8:	80 00       	ld.sh	r0,r0[0x0]
800051ea:	99 04       	st.w	r12[0x0],r4
800051ec:	80 00       	ld.sh	r0,r0[0x0]
800051ee:	a4 6c       	st.h	r2[0xc],r12
800051f0:	80 00       	ld.sh	r0,r0[0x0]
800051f2:	a4 70       	st.h	r2[0xe],r0
800051f4:	80 00       	ld.sh	r0,r0[0x0]
800051f6:	8e a2       	ld.uh	r2,r7[0x4]
800051f8:	80 00       	ld.sh	r0,r0[0x0]
800051fa:	a4 74       	st.h	r2[0xe],r4
800051fc:	80 00       	ld.sh	r0,r0[0x0]
800051fe:	a4 78       	st.h	r2[0xe],r8
80005200:	80 00       	ld.sh	r0,r0[0x0]
80005202:	69 ec       	ld.w	r12,r4[0x78]
80005204:	80 00       	ld.sh	r0,r0[0x0]
80005206:	98 76       	ld.sh	r6,r12[0xe]
80005208:	10 c9       	st.b	r8++,r9
8000520a:	fb 48 06 a4 	st.w	sp[1700],r8
8000520e:	c0 28       	rjmp	80005212 <_vfprintf_r+0xa46>
80005210:	33 09       	mov	r9,48
80005212:	fa f8 06 a4 	ld.w	r8,sp[1700]
80005216:	40 3e       	lddsp	lr,sp[0xc]
80005218:	1c 38       	cp.w	r8,lr
8000521a:	cf 73       	brcs	80005208 <_vfprintf_r+0xa3c>
8000521c:	e0 40 00 47 	cp.w	r0,71
80005220:	5f 09       	sreq	r9
80005222:	e0 40 00 67 	cp.w	r0,103
80005226:	5f 08       	sreq	r8
80005228:	f3 e8 10 08 	or	r8,r9,r8
8000522c:	fa f9 06 a4 	ld.w	r9,sp[1700]
80005230:	0c 19       	sub	r9,r6
80005232:	50 69       	stdsp	sp[0x18],r9
80005234:	58 08       	cp.w	r8,0
80005236:	c0 b0       	breq	8000524c <_vfprintf_r+0xa80>
80005238:	fa f8 06 ac 	ld.w	r8,sp[1708]
8000523c:	5b d8       	cp.w	r8,-3
8000523e:	c0 55       	brlt	80005248 <_vfprintf_r+0xa7c>
80005240:	40 2c       	lddsp	r12,sp[0x8]
80005242:	18 38       	cp.w	r8,r12
80005244:	e0 8a 00 6a 	brle	80005318 <_vfprintf_r+0xb4c>
80005248:	20 20       	sub	r0,2
8000524a:	c0 58       	rjmp	80005254 <_vfprintf_r+0xa88>
8000524c:	e0 40 00 65 	cp.w	r0,101
80005250:	e0 89 00 46 	brgt	800052dc <_vfprintf_r+0xb10>
80005254:	fa fb 06 ac 	ld.w	r11,sp[1708]
80005258:	fb 60 06 9c 	st.b	sp[1692],r0
8000525c:	20 1b       	sub	r11,1
8000525e:	fb 4b 06 ac 	st.w	sp[1708],r11
80005262:	c0 47       	brpl	8000526a <_vfprintf_r+0xa9e>
80005264:	5c 3b       	neg	r11
80005266:	32 d8       	mov	r8,45
80005268:	c0 28       	rjmp	8000526c <_vfprintf_r+0xaa0>
8000526a:	32 b8       	mov	r8,43
8000526c:	fb 68 06 9d 	st.b	sp[1693],r8
80005270:	58 9b       	cp.w	r11,9
80005272:	e0 8a 00 1d 	brle	800052ac <_vfprintf_r+0xae0>
80005276:	fa c9 fa 35 	sub	r9,sp,-1483
8000527a:	30 aa       	mov	r10,10
8000527c:	12 98       	mov	r8,r9
8000527e:	0e 9c       	mov	r12,r7
80005280:	0c 92       	mov	r2,r6
80005282:	f6 0a 0c 06 	divs	r6,r11,r10
80005286:	0e 9b       	mov	r11,r7
80005288:	2d 0b       	sub	r11,-48
8000528a:	10 fb       	st.b	--r8,r11
8000528c:	0c 9b       	mov	r11,r6
8000528e:	58 96       	cp.w	r6,9
80005290:	fe 99 ff f9 	brgt	80005282 <_vfprintf_r+0xab6>
80005294:	2d 0b       	sub	r11,-48
80005296:	18 97       	mov	r7,r12
80005298:	04 96       	mov	r6,r2
8000529a:	10 fb       	st.b	--r8,r11
8000529c:	fa ca f9 62 	sub	r10,sp,-1694
800052a0:	c0 38       	rjmp	800052a6 <_vfprintf_r+0xada>
800052a2:	11 3b       	ld.ub	r11,r8++
800052a4:	14 cb       	st.b	r10++,r11
800052a6:	12 38       	cp.w	r8,r9
800052a8:	cf d3       	brcs	800052a2 <_vfprintf_r+0xad6>
800052aa:	c0 98       	rjmp	800052bc <_vfprintf_r+0xaf0>
800052ac:	2d 0b       	sub	r11,-48
800052ae:	33 08       	mov	r8,48
800052b0:	fb 6b 06 9f 	st.b	sp[1695],r11
800052b4:	fb 68 06 9e 	st.b	sp[1694],r8
800052b8:	fa ca f9 60 	sub	r10,sp,-1696
800052bc:	fa c8 f9 64 	sub	r8,sp,-1692
800052c0:	f4 08 01 08 	sub	r8,r10,r8
800052c4:	50 e8       	stdsp	sp[0x38],r8
800052c6:	10 92       	mov	r2,r8
800052c8:	40 6b       	lddsp	r11,sp[0x18]
800052ca:	16 02       	add	r2,r11
800052cc:	58 1b       	cp.w	r11,1
800052ce:	e0 89 00 05 	brgt	800052d8 <_vfprintf_r+0xb0c>
800052d2:	ed b5 00 00 	bld	r5,0x0
800052d6:	c3 51       	brne	80005340 <_vfprintf_r+0xb74>
800052d8:	2f f2       	sub	r2,-1
800052da:	c3 38       	rjmp	80005340 <_vfprintf_r+0xb74>
800052dc:	e0 40 00 66 	cp.w	r0,102
800052e0:	c1 c1       	brne	80005318 <_vfprintf_r+0xb4c>
800052e2:	fa f2 06 ac 	ld.w	r2,sp[1708]
800052e6:	58 02       	cp.w	r2,0
800052e8:	e0 8a 00 0c 	brle	80005300 <_vfprintf_r+0xb34>
800052ec:	40 2a       	lddsp	r10,sp[0x8]
800052ee:	58 0a       	cp.w	r10,0
800052f0:	c0 41       	brne	800052f8 <_vfprintf_r+0xb2c>
800052f2:	ed b5 00 00 	bld	r5,0x0
800052f6:	c2 51       	brne	80005340 <_vfprintf_r+0xb74>
800052f8:	2f f2       	sub	r2,-1
800052fa:	40 29       	lddsp	r9,sp[0x8]
800052fc:	12 02       	add	r2,r9
800052fe:	c0 b8       	rjmp	80005314 <_vfprintf_r+0xb48>
80005300:	40 28       	lddsp	r8,sp[0x8]
80005302:	58 08       	cp.w	r8,0
80005304:	c0 61       	brne	80005310 <_vfprintf_r+0xb44>
80005306:	ed b5 00 00 	bld	r5,0x0
8000530a:	c0 30       	breq	80005310 <_vfprintf_r+0xb44>
8000530c:	30 12       	mov	r2,1
8000530e:	c1 98       	rjmp	80005340 <_vfprintf_r+0xb74>
80005310:	40 22       	lddsp	r2,sp[0x8]
80005312:	2f e2       	sub	r2,-2
80005314:	36 60       	mov	r0,102
80005316:	c1 58       	rjmp	80005340 <_vfprintf_r+0xb74>
80005318:	fa f2 06 ac 	ld.w	r2,sp[1708]
8000531c:	40 6e       	lddsp	lr,sp[0x18]
8000531e:	1c 32       	cp.w	r2,lr
80005320:	c0 65       	brlt	8000532c <_vfprintf_r+0xb60>
80005322:	ed b5 00 00 	bld	r5,0x0
80005326:	f7 b2 00 ff 	subeq	r2,-1
8000532a:	c0 a8       	rjmp	8000533e <_vfprintf_r+0xb72>
8000532c:	e4 08 11 02 	rsub	r8,r2,2
80005330:	40 6c       	lddsp	r12,sp[0x18]
80005332:	58 02       	cp.w	r2,0
80005334:	f0 02 17 a0 	movle	r2,r8
80005338:	f9 b2 09 01 	movgt	r2,1
8000533c:	18 02       	add	r2,r12
8000533e:	36 70       	mov	r0,103
80005340:	40 9b       	lddsp	r11,sp[0x24]
80005342:	58 0b       	cp.w	r11,0
80005344:	e0 80 05 9c 	breq	80005e7c <_vfprintf_r+0x16b0>
80005348:	32 d8       	mov	r8,45
8000534a:	fb 68 06 bb 	st.b	sp[1723],r8
8000534e:	e0 8f 05 9b 	bral	80005e84 <_vfprintf_r+0x16b8>
80005352:	50 a7       	stdsp	sp[0x28],r7
80005354:	04 94       	mov	r4,r2
80005356:	0c 97       	mov	r7,r6
80005358:	02 92       	mov	r2,r1
8000535a:	06 96       	mov	r6,r3
8000535c:	40 41       	lddsp	r1,sp[0x10]
8000535e:	40 93       	lddsp	r3,sp[0x24]
80005360:	0e 99       	mov	r9,r7
80005362:	ed b5 00 05 	bld	r5,0x5
80005366:	c4 81       	brne	800053f6 <_vfprintf_r+0xc2a>
80005368:	fa f8 06 b4 	ld.w	r8,sp[1716]
8000536c:	40 3e       	lddsp	lr,sp[0xc]
8000536e:	58 0e       	cp.w	lr,0
80005370:	c1 d0       	breq	800053aa <_vfprintf_r+0xbde>
80005372:	10 36       	cp.w	r6,r8
80005374:	c0 64       	brge	80005380 <_vfprintf_r+0xbb4>
80005376:	fa cc f9 44 	sub	r12,sp,-1724
8000537a:	f8 06 00 36 	add	r6,r12,r6<<0x3
8000537e:	c1 d8       	rjmp	800053b8 <_vfprintf_r+0xbec>
80005380:	fa c8 f9 50 	sub	r8,sp,-1712
80005384:	1a d8       	st.w	--sp,r8
80005386:	fa c8 fa b8 	sub	r8,sp,-1352
8000538a:	04 9a       	mov	r10,r2
8000538c:	1a d8       	st.w	--sp,r8
8000538e:	fa c8 fb b4 	sub	r8,sp,-1100
80005392:	0c 9b       	mov	r11,r6
80005394:	1a d8       	st.w	--sp,r8
80005396:	08 9c       	mov	r12,r4
80005398:	fa c8 f9 40 	sub	r8,sp,-1728
8000539c:	fa c9 ff b4 	sub	r9,sp,-76
800053a0:	f0 1f 01 5f 	mcall	8000591c <_vfprintf_r+0x1150>
800053a4:	2f dd       	sub	sp,-12
800053a6:	78 0a       	ld.w	r10,r12[0x0]
800053a8:	c2 08       	rjmp	800053e8 <_vfprintf_r+0xc1c>
800053aa:	2f f7       	sub	r7,-1
800053ac:	10 39       	cp.w	r9,r8
800053ae:	c0 84       	brge	800053be <_vfprintf_r+0xbf2>
800053b0:	fa cb f9 44 	sub	r11,sp,-1724
800053b4:	f6 06 00 36 	add	r6,r11,r6<<0x3
800053b8:	ec fa fd 88 	ld.w	r10,r6[-632]
800053bc:	c1 68       	rjmp	800053e8 <_vfprintf_r+0xc1c>
800053be:	41 09       	lddsp	r9,sp[0x40]
800053c0:	59 f8       	cp.w	r8,31
800053c2:	e0 89 00 10 	brgt	800053e2 <_vfprintf_r+0xc16>
800053c6:	f2 ca ff fc 	sub	r10,r9,-4
800053ca:	51 0a       	stdsp	sp[0x40],r10
800053cc:	fa c6 f9 44 	sub	r6,sp,-1724
800053d0:	72 0a       	ld.w	r10,r9[0x0]
800053d2:	ec 08 00 39 	add	r9,r6,r8<<0x3
800053d6:	f3 4a fd 88 	st.w	r9[-632],r10
800053da:	2f f8       	sub	r8,-1
800053dc:	fb 48 06 b4 	st.w	sp[1716],r8
800053e0:	c0 48       	rjmp	800053e8 <_vfprintf_r+0xc1c>
800053e2:	72 0a       	ld.w	r10,r9[0x0]
800053e4:	2f c9       	sub	r9,-4
800053e6:	51 09       	stdsp	sp[0x40],r9
800053e8:	40 be       	lddsp	lr,sp[0x2c]
800053ea:	1c 98       	mov	r8,lr
800053ec:	95 1e       	st.w	r10[0x4],lr
800053ee:	bf 58       	asr	r8,0x1f
800053f0:	95 08       	st.w	r10[0x0],r8
800053f2:	fe 9f fa 79 	bral	800048e4 <_vfprintf_r+0x118>
800053f6:	ed b5 00 04 	bld	r5,0x4
800053fa:	c4 80       	breq	8000548a <_vfprintf_r+0xcbe>
800053fc:	e2 15 00 40 	andl	r5,0x40,COH
80005400:	c4 50       	breq	8000548a <_vfprintf_r+0xcbe>
80005402:	fa f8 06 b4 	ld.w	r8,sp[1716]
80005406:	40 3c       	lddsp	r12,sp[0xc]
80005408:	58 0c       	cp.w	r12,0
8000540a:	c1 d0       	breq	80005444 <_vfprintf_r+0xc78>
8000540c:	10 36       	cp.w	r6,r8
8000540e:	c0 64       	brge	8000541a <_vfprintf_r+0xc4e>
80005410:	fa cb f9 44 	sub	r11,sp,-1724
80005414:	f6 06 00 36 	add	r6,r11,r6<<0x3
80005418:	c1 d8       	rjmp	80005452 <_vfprintf_r+0xc86>
8000541a:	fa c8 f9 50 	sub	r8,sp,-1712
8000541e:	1a d8       	st.w	--sp,r8
80005420:	fa c8 fa b8 	sub	r8,sp,-1352
80005424:	04 9a       	mov	r10,r2
80005426:	1a d8       	st.w	--sp,r8
80005428:	fa c8 fb b4 	sub	r8,sp,-1100
8000542c:	0c 9b       	mov	r11,r6
8000542e:	1a d8       	st.w	--sp,r8
80005430:	08 9c       	mov	r12,r4
80005432:	fa c8 f9 40 	sub	r8,sp,-1728
80005436:	fa c9 ff b4 	sub	r9,sp,-76
8000543a:	f0 1f 01 39 	mcall	8000591c <_vfprintf_r+0x1150>
8000543e:	2f dd       	sub	sp,-12
80005440:	78 0a       	ld.w	r10,r12[0x0]
80005442:	c2 08       	rjmp	80005482 <_vfprintf_r+0xcb6>
80005444:	2f f7       	sub	r7,-1
80005446:	10 39       	cp.w	r9,r8
80005448:	c0 84       	brge	80005458 <_vfprintf_r+0xc8c>
8000544a:	fa ca f9 44 	sub	r10,sp,-1724
8000544e:	f4 06 00 36 	add	r6,r10,r6<<0x3
80005452:	ec fa fd 88 	ld.w	r10,r6[-632]
80005456:	c1 68       	rjmp	80005482 <_vfprintf_r+0xcb6>
80005458:	41 09       	lddsp	r9,sp[0x40]
8000545a:	59 f8       	cp.w	r8,31
8000545c:	e0 89 00 10 	brgt	8000547c <_vfprintf_r+0xcb0>
80005460:	f2 ca ff fc 	sub	r10,r9,-4
80005464:	51 0a       	stdsp	sp[0x40],r10
80005466:	fa c6 f9 44 	sub	r6,sp,-1724
8000546a:	72 0a       	ld.w	r10,r9[0x0]
8000546c:	ec 08 00 39 	add	r9,r6,r8<<0x3
80005470:	f3 4a fd 88 	st.w	r9[-632],r10
80005474:	2f f8       	sub	r8,-1
80005476:	fb 48 06 b4 	st.w	sp[1716],r8
8000547a:	c0 48       	rjmp	80005482 <_vfprintf_r+0xcb6>
8000547c:	72 0a       	ld.w	r10,r9[0x0]
8000547e:	2f c9       	sub	r9,-4
80005480:	51 09       	stdsp	sp[0x40],r9
80005482:	40 be       	lddsp	lr,sp[0x2c]
80005484:	b4 0e       	st.h	r10[0x0],lr
80005486:	fe 9f fa 2f 	bral	800048e4 <_vfprintf_r+0x118>
8000548a:	fa f8 06 b4 	ld.w	r8,sp[1716]
8000548e:	40 3c       	lddsp	r12,sp[0xc]
80005490:	58 0c       	cp.w	r12,0
80005492:	c1 d0       	breq	800054cc <_vfprintf_r+0xd00>
80005494:	10 36       	cp.w	r6,r8
80005496:	c0 64       	brge	800054a2 <_vfprintf_r+0xcd6>
80005498:	fa cb f9 44 	sub	r11,sp,-1724
8000549c:	f6 06 00 36 	add	r6,r11,r6<<0x3
800054a0:	c1 d8       	rjmp	800054da <_vfprintf_r+0xd0e>
800054a2:	fa c8 f9 50 	sub	r8,sp,-1712
800054a6:	1a d8       	st.w	--sp,r8
800054a8:	fa c8 fa b8 	sub	r8,sp,-1352
800054ac:	04 9a       	mov	r10,r2
800054ae:	1a d8       	st.w	--sp,r8
800054b0:	fa c8 fb b4 	sub	r8,sp,-1100
800054b4:	0c 9b       	mov	r11,r6
800054b6:	1a d8       	st.w	--sp,r8
800054b8:	08 9c       	mov	r12,r4
800054ba:	fa c8 f9 40 	sub	r8,sp,-1728
800054be:	fa c9 ff b4 	sub	r9,sp,-76
800054c2:	f0 1f 01 17 	mcall	8000591c <_vfprintf_r+0x1150>
800054c6:	2f dd       	sub	sp,-12
800054c8:	78 0a       	ld.w	r10,r12[0x0]
800054ca:	c2 08       	rjmp	8000550a <_vfprintf_r+0xd3e>
800054cc:	2f f7       	sub	r7,-1
800054ce:	10 39       	cp.w	r9,r8
800054d0:	c0 84       	brge	800054e0 <_vfprintf_r+0xd14>
800054d2:	fa ca f9 44 	sub	r10,sp,-1724
800054d6:	f4 06 00 36 	add	r6,r10,r6<<0x3
800054da:	ec fa fd 88 	ld.w	r10,r6[-632]
800054de:	c1 68       	rjmp	8000550a <_vfprintf_r+0xd3e>
800054e0:	41 09       	lddsp	r9,sp[0x40]
800054e2:	59 f8       	cp.w	r8,31
800054e4:	e0 89 00 10 	brgt	80005504 <_vfprintf_r+0xd38>
800054e8:	f2 ca ff fc 	sub	r10,r9,-4
800054ec:	51 0a       	stdsp	sp[0x40],r10
800054ee:	fa c6 f9 44 	sub	r6,sp,-1724
800054f2:	72 0a       	ld.w	r10,r9[0x0]
800054f4:	ec 08 00 39 	add	r9,r6,r8<<0x3
800054f8:	f3 4a fd 88 	st.w	r9[-632],r10
800054fc:	2f f8       	sub	r8,-1
800054fe:	fb 48 06 b4 	st.w	sp[1716],r8
80005502:	c0 48       	rjmp	8000550a <_vfprintf_r+0xd3e>
80005504:	72 0a       	ld.w	r10,r9[0x0]
80005506:	2f c9       	sub	r9,-4
80005508:	51 09       	stdsp	sp[0x40],r9
8000550a:	40 be       	lddsp	lr,sp[0x2c]
8000550c:	95 0e       	st.w	r10[0x0],lr
8000550e:	fe 9f f9 eb 	bral	800048e4 <_vfprintf_r+0x118>
80005512:	50 a7       	stdsp	sp[0x28],r7
80005514:	50 80       	stdsp	sp[0x20],r0
80005516:	0c 97       	mov	r7,r6
80005518:	04 94       	mov	r4,r2
8000551a:	06 96       	mov	r6,r3
8000551c:	02 92       	mov	r2,r1
8000551e:	40 93       	lddsp	r3,sp[0x24]
80005520:	10 90       	mov	r0,r8
80005522:	40 41       	lddsp	r1,sp[0x10]
80005524:	a5 a5       	sbr	r5,0x4
80005526:	c0 a8       	rjmp	8000553a <_vfprintf_r+0xd6e>
80005528:	50 a7       	stdsp	sp[0x28],r7
8000552a:	50 80       	stdsp	sp[0x20],r0
8000552c:	0c 97       	mov	r7,r6
8000552e:	04 94       	mov	r4,r2
80005530:	06 96       	mov	r6,r3
80005532:	02 92       	mov	r2,r1
80005534:	40 93       	lddsp	r3,sp[0x24]
80005536:	10 90       	mov	r0,r8
80005538:	40 41       	lddsp	r1,sp[0x10]
8000553a:	ed b5 00 05 	bld	r5,0x5
8000553e:	c5 d1       	brne	800055f8 <_vfprintf_r+0xe2c>
80005540:	fa f8 06 b4 	ld.w	r8,sp[1716]
80005544:	40 3c       	lddsp	r12,sp[0xc]
80005546:	58 0c       	cp.w	r12,0
80005548:	c2 60       	breq	80005594 <_vfprintf_r+0xdc8>
8000554a:	10 36       	cp.w	r6,r8
8000554c:	c0 a4       	brge	80005560 <_vfprintf_r+0xd94>
8000554e:	fa cb f9 44 	sub	r11,sp,-1724
80005552:	f6 06 00 36 	add	r6,r11,r6<<0x3
80005556:	ec e8 fd 88 	ld.d	r8,r6[-632]
8000555a:	fa e9 00 00 	st.d	sp[0],r8
8000555e:	c1 88       	rjmp	8000558e <_vfprintf_r+0xdc2>
80005560:	fa c8 f9 50 	sub	r8,sp,-1712
80005564:	1a d8       	st.w	--sp,r8
80005566:	fa c8 fa b8 	sub	r8,sp,-1352
8000556a:	04 9a       	mov	r10,r2
8000556c:	1a d8       	st.w	--sp,r8
8000556e:	0c 9b       	mov	r11,r6
80005570:	fa c8 fb b4 	sub	r8,sp,-1100
80005574:	08 9c       	mov	r12,r4
80005576:	1a d8       	st.w	--sp,r8
80005578:	fa c8 f9 40 	sub	r8,sp,-1728
8000557c:	fa c9 ff b4 	sub	r9,sp,-76
80005580:	f0 1f 00 e7 	mcall	8000591c <_vfprintf_r+0x1150>
80005584:	2f dd       	sub	sp,-12
80005586:	f8 ea 00 00 	ld.d	r10,r12[0]
8000558a:	fa eb 00 00 	st.d	sp[0],r10
8000558e:	30 08       	mov	r8,0
80005590:	e0 8f 03 e6 	bral	80005d5c <_vfprintf_r+0x1590>
80005594:	ee ca ff ff 	sub	r10,r7,-1
80005598:	10 37       	cp.w	r7,r8
8000559a:	c0 b4       	brge	800055b0 <_vfprintf_r+0xde4>
8000559c:	fa c9 f9 44 	sub	r9,sp,-1724
800055a0:	14 97       	mov	r7,r10
800055a2:	f2 06 00 36 	add	r6,r9,r6<<0x3
800055a6:	ec ea fd 88 	ld.d	r10,r6[-632]
800055aa:	fa eb 00 00 	st.d	sp[0],r10
800055ae:	c1 88       	rjmp	800055de <_vfprintf_r+0xe12>
800055b0:	41 09       	lddsp	r9,sp[0x40]
800055b2:	59 f8       	cp.w	r8,31
800055b4:	e0 89 00 18 	brgt	800055e4 <_vfprintf_r+0xe18>
800055b8:	f2 e6 00 00 	ld.d	r6,r9[0]
800055bc:	f2 cb ff f8 	sub	r11,r9,-8
800055c0:	fa e7 00 00 	st.d	sp[0],r6
800055c4:	51 0b       	stdsp	sp[0x40],r11
800055c6:	fa c6 f9 44 	sub	r6,sp,-1724
800055ca:	ec 08 00 39 	add	r9,r6,r8<<0x3
800055ce:	fa e6 00 00 	ld.d	r6,sp[0]
800055d2:	f2 e7 fd 88 	st.d	r9[-632],r6
800055d6:	2f f8       	sub	r8,-1
800055d8:	14 97       	mov	r7,r10
800055da:	fb 48 06 b4 	st.w	sp[1716],r8
800055de:	40 38       	lddsp	r8,sp[0xc]
800055e0:	e0 8f 03 be 	bral	80005d5c <_vfprintf_r+0x1590>
800055e4:	f2 e6 00 00 	ld.d	r6,r9[0]
800055e8:	40 38       	lddsp	r8,sp[0xc]
800055ea:	fa e7 00 00 	st.d	sp[0],r6
800055ee:	2f 89       	sub	r9,-8
800055f0:	14 97       	mov	r7,r10
800055f2:	51 09       	stdsp	sp[0x40],r9
800055f4:	e0 8f 03 b4 	bral	80005d5c <_vfprintf_r+0x1590>
800055f8:	ed b5 00 04 	bld	r5,0x4
800055fc:	c1 61       	brne	80005628 <_vfprintf_r+0xe5c>
800055fe:	fa f8 06 b4 	ld.w	r8,sp[1716]
80005602:	40 3e       	lddsp	lr,sp[0xc]
80005604:	58 0e       	cp.w	lr,0
80005606:	c0 80       	breq	80005616 <_vfprintf_r+0xe4a>
80005608:	10 36       	cp.w	r6,r8
8000560a:	c6 74       	brge	800056d8 <_vfprintf_r+0xf0c>
8000560c:	fa cc f9 44 	sub	r12,sp,-1724
80005610:	f8 06 00 36 	add	r6,r12,r6<<0x3
80005614:	c8 08       	rjmp	80005714 <_vfprintf_r+0xf48>
80005616:	ee ca ff ff 	sub	r10,r7,-1
8000561a:	10 37       	cp.w	r7,r8
8000561c:	c7 f4       	brge	8000571a <_vfprintf_r+0xf4e>
8000561e:	fa cb f9 44 	sub	r11,sp,-1724
80005622:	f6 06 00 36 	add	r6,r11,r6<<0x3
80005626:	c7 68       	rjmp	80005712 <_vfprintf_r+0xf46>
80005628:	ed b5 00 06 	bld	r5,0x6
8000562c:	c4 a1       	brne	800056c0 <_vfprintf_r+0xef4>
8000562e:	fa f8 06 b4 	ld.w	r8,sp[1716]
80005632:	40 3c       	lddsp	r12,sp[0xc]
80005634:	58 0c       	cp.w	r12,0
80005636:	c1 d0       	breq	80005670 <_vfprintf_r+0xea4>
80005638:	10 36       	cp.w	r6,r8
8000563a:	c0 64       	brge	80005646 <_vfprintf_r+0xe7a>
8000563c:	fa cb f9 44 	sub	r11,sp,-1724
80005640:	f6 06 00 36 	add	r6,r11,r6<<0x3
80005644:	c1 f8       	rjmp	80005682 <_vfprintf_r+0xeb6>
80005646:	fa c8 f9 50 	sub	r8,sp,-1712
8000564a:	1a d8       	st.w	--sp,r8
8000564c:	fa c8 fa b8 	sub	r8,sp,-1352
80005650:	1a d8       	st.w	--sp,r8
80005652:	fa c8 fb b4 	sub	r8,sp,-1100
80005656:	1a d8       	st.w	--sp,r8
80005658:	fa c8 f9 40 	sub	r8,sp,-1728
8000565c:	fa c9 ff b4 	sub	r9,sp,-76
80005660:	04 9a       	mov	r10,r2
80005662:	0c 9b       	mov	r11,r6
80005664:	08 9c       	mov	r12,r4
80005666:	f0 1f 00 ae 	mcall	8000591c <_vfprintf_r+0x1150>
8000566a:	2f dd       	sub	sp,-12
8000566c:	98 18       	ld.sh	r8,r12[0x2]
8000566e:	c2 68       	rjmp	800056ba <_vfprintf_r+0xeee>
80005670:	ee ca ff ff 	sub	r10,r7,-1
80005674:	10 37       	cp.w	r7,r8
80005676:	c0 94       	brge	80005688 <_vfprintf_r+0xebc>
80005678:	fa c9 f9 44 	sub	r9,sp,-1724
8000567c:	14 97       	mov	r7,r10
8000567e:	f2 06 00 36 	add	r6,r9,r6<<0x3
80005682:	ed 08 fd 8a 	ld.sh	r8,r6[-630]
80005686:	c1 a8       	rjmp	800056ba <_vfprintf_r+0xeee>
80005688:	41 09       	lddsp	r9,sp[0x40]
8000568a:	59 f8       	cp.w	r8,31
8000568c:	e0 89 00 13 	brgt	800056b2 <_vfprintf_r+0xee6>
80005690:	f2 cb ff fc 	sub	r11,r9,-4
80005694:	51 0b       	stdsp	sp[0x40],r11
80005696:	72 09       	ld.w	r9,r9[0x0]
80005698:	fa c6 f9 44 	sub	r6,sp,-1724
8000569c:	ec 08 00 3b 	add	r11,r6,r8<<0x3
800056a0:	2f f8       	sub	r8,-1
800056a2:	f7 49 fd 88 	st.w	r11[-632],r9
800056a6:	fb 48 06 b4 	st.w	sp[1716],r8
800056aa:	14 97       	mov	r7,r10
800056ac:	f1 d9 b0 10 	bfexts	r8,r9,0x0,0x10
800056b0:	c0 58       	rjmp	800056ba <_vfprintf_r+0xeee>
800056b2:	92 18       	ld.sh	r8,r9[0x2]
800056b4:	14 97       	mov	r7,r10
800056b6:	2f c9       	sub	r9,-4
800056b8:	51 09       	stdsp	sp[0x40],r9
800056ba:	5c 78       	castu.h	r8
800056bc:	50 18       	stdsp	sp[0x4],r8
800056be:	c4 68       	rjmp	8000574a <_vfprintf_r+0xf7e>
800056c0:	fa f8 06 b4 	ld.w	r8,sp[1716]
800056c4:	40 3c       	lddsp	r12,sp[0xc]
800056c6:	58 0c       	cp.w	r12,0
800056c8:	c1 d0       	breq	80005702 <_vfprintf_r+0xf36>
800056ca:	10 36       	cp.w	r6,r8
800056cc:	c0 64       	brge	800056d8 <_vfprintf_r+0xf0c>
800056ce:	fa cb f9 44 	sub	r11,sp,-1724
800056d2:	f6 06 00 36 	add	r6,r11,r6<<0x3
800056d6:	c1 f8       	rjmp	80005714 <_vfprintf_r+0xf48>
800056d8:	fa c8 f9 50 	sub	r8,sp,-1712
800056dc:	1a d8       	st.w	--sp,r8
800056de:	fa c8 fa b8 	sub	r8,sp,-1352
800056e2:	0c 9b       	mov	r11,r6
800056e4:	1a d8       	st.w	--sp,r8
800056e6:	fa c8 fb b4 	sub	r8,sp,-1100
800056ea:	04 9a       	mov	r10,r2
800056ec:	1a d8       	st.w	--sp,r8
800056ee:	08 9c       	mov	r12,r4
800056f0:	fa c8 f9 40 	sub	r8,sp,-1728
800056f4:	fa c9 ff b4 	sub	r9,sp,-76
800056f8:	f0 1f 00 89 	mcall	8000591c <_vfprintf_r+0x1150>
800056fc:	2f dd       	sub	sp,-12
800056fe:	78 0b       	ld.w	r11,r12[0x0]
80005700:	c2 48       	rjmp	80005748 <_vfprintf_r+0xf7c>
80005702:	ee ca ff ff 	sub	r10,r7,-1
80005706:	10 37       	cp.w	r7,r8
80005708:	c0 94       	brge	8000571a <_vfprintf_r+0xf4e>
8000570a:	fa c9 f9 44 	sub	r9,sp,-1724
8000570e:	f2 06 00 36 	add	r6,r9,r6<<0x3
80005712:	14 97       	mov	r7,r10
80005714:	ec fb fd 88 	ld.w	r11,r6[-632]
80005718:	c1 88       	rjmp	80005748 <_vfprintf_r+0xf7c>
8000571a:	41 09       	lddsp	r9,sp[0x40]
8000571c:	59 f8       	cp.w	r8,31
8000571e:	e0 89 00 11 	brgt	80005740 <_vfprintf_r+0xf74>
80005722:	f2 cb ff fc 	sub	r11,r9,-4
80005726:	51 0b       	stdsp	sp[0x40],r11
80005728:	fa c6 f9 44 	sub	r6,sp,-1724
8000572c:	72 0b       	ld.w	r11,r9[0x0]
8000572e:	ec 08 00 39 	add	r9,r6,r8<<0x3
80005732:	f3 4b fd 88 	st.w	r9[-632],r11
80005736:	2f f8       	sub	r8,-1
80005738:	14 97       	mov	r7,r10
8000573a:	fb 48 06 b4 	st.w	sp[1716],r8
8000573e:	c0 58       	rjmp	80005748 <_vfprintf_r+0xf7c>
80005740:	72 0b       	ld.w	r11,r9[0x0]
80005742:	14 97       	mov	r7,r10
80005744:	2f c9       	sub	r9,-4
80005746:	51 09       	stdsp	sp[0x40],r9
80005748:	50 1b       	stdsp	sp[0x4],r11
8000574a:	30 0e       	mov	lr,0
8000574c:	50 0e       	stdsp	sp[0x0],lr
8000574e:	1c 98       	mov	r8,lr
80005750:	e0 8f 03 06 	bral	80005d5c <_vfprintf_r+0x1590>
80005754:	50 a7       	stdsp	sp[0x28],r7
80005756:	50 80       	stdsp	sp[0x20],r0
80005758:	0c 97       	mov	r7,r6
8000575a:	04 94       	mov	r4,r2
8000575c:	06 96       	mov	r6,r3
8000575e:	02 92       	mov	r2,r1
80005760:	40 93       	lddsp	r3,sp[0x24]
80005762:	40 41       	lddsp	r1,sp[0x10]
80005764:	0e 99       	mov	r9,r7
80005766:	fa f8 06 b4 	ld.w	r8,sp[1716]
8000576a:	40 3c       	lddsp	r12,sp[0xc]
8000576c:	58 0c       	cp.w	r12,0
8000576e:	c1 d0       	breq	800057a8 <_vfprintf_r+0xfdc>
80005770:	10 36       	cp.w	r6,r8
80005772:	c0 64       	brge	8000577e <_vfprintf_r+0xfb2>
80005774:	fa cb f9 44 	sub	r11,sp,-1724
80005778:	f6 06 00 36 	add	r6,r11,r6<<0x3
8000577c:	c1 d8       	rjmp	800057b6 <_vfprintf_r+0xfea>
8000577e:	fa c8 f9 50 	sub	r8,sp,-1712
80005782:	1a d8       	st.w	--sp,r8
80005784:	fa c8 fa b8 	sub	r8,sp,-1352
80005788:	1a d8       	st.w	--sp,r8
8000578a:	fa c8 fb b4 	sub	r8,sp,-1100
8000578e:	1a d8       	st.w	--sp,r8
80005790:	fa c9 ff b4 	sub	r9,sp,-76
80005794:	fa c8 f9 40 	sub	r8,sp,-1728
80005798:	04 9a       	mov	r10,r2
8000579a:	0c 9b       	mov	r11,r6
8000579c:	08 9c       	mov	r12,r4
8000579e:	f0 1f 00 60 	mcall	8000591c <_vfprintf_r+0x1150>
800057a2:	2f dd       	sub	sp,-12
800057a4:	78 09       	ld.w	r9,r12[0x0]
800057a6:	c2 18       	rjmp	800057e8 <_vfprintf_r+0x101c>
800057a8:	2f f7       	sub	r7,-1
800057aa:	10 39       	cp.w	r9,r8
800057ac:	c0 84       	brge	800057bc <_vfprintf_r+0xff0>
800057ae:	fa ca f9 44 	sub	r10,sp,-1724
800057b2:	f4 06 00 36 	add	r6,r10,r6<<0x3
800057b6:	ec f9 fd 88 	ld.w	r9,r6[-632]
800057ba:	c1 78       	rjmp	800057e8 <_vfprintf_r+0x101c>
800057bc:	41 09       	lddsp	r9,sp[0x40]
800057be:	59 f8       	cp.w	r8,31
800057c0:	e0 89 00 10 	brgt	800057e0 <_vfprintf_r+0x1014>
800057c4:	f2 ca ff fc 	sub	r10,r9,-4
800057c8:	51 0a       	stdsp	sp[0x40],r10
800057ca:	fa c6 f9 44 	sub	r6,sp,-1724
800057ce:	72 09       	ld.w	r9,r9[0x0]
800057d0:	ec 08 00 3a 	add	r10,r6,r8<<0x3
800057d4:	f5 49 fd 88 	st.w	r10[-632],r9
800057d8:	2f f8       	sub	r8,-1
800057da:	fb 48 06 b4 	st.w	sp[1716],r8
800057de:	c0 58       	rjmp	800057e8 <_vfprintf_r+0x101c>
800057e0:	f2 c8 ff fc 	sub	r8,r9,-4
800057e4:	51 08       	stdsp	sp[0x40],r8
800057e6:	72 09       	ld.w	r9,r9[0x0]
800057e8:	33 08       	mov	r8,48
800057ea:	fb 68 06 b8 	st.b	sp[1720],r8
800057ee:	37 88       	mov	r8,120
800057f0:	30 0e       	mov	lr,0
800057f2:	fb 68 06 b9 	st.b	sp[1721],r8
800057f6:	4c bc       	lddpc	r12,80005920 <_vfprintf_r+0x1154>
800057f8:	50 19       	stdsp	sp[0x4],r9
800057fa:	a1 b5       	sbr	r5,0x1
800057fc:	50 0e       	stdsp	sp[0x0],lr
800057fe:	50 dc       	stdsp	sp[0x34],r12
80005800:	30 28       	mov	r8,2
80005802:	37 80       	mov	r0,120
80005804:	e0 8f 02 ac 	bral	80005d5c <_vfprintf_r+0x1590>
80005808:	50 a7       	stdsp	sp[0x28],r7
8000580a:	50 80       	stdsp	sp[0x20],r0
8000580c:	10 90       	mov	r0,r8
8000580e:	30 08       	mov	r8,0
80005810:	fb 68 06 bb 	st.b	sp[1723],r8
80005814:	0c 97       	mov	r7,r6
80005816:	04 94       	mov	r4,r2
80005818:	06 96       	mov	r6,r3
8000581a:	02 92       	mov	r2,r1
8000581c:	40 93       	lddsp	r3,sp[0x24]
8000581e:	40 41       	lddsp	r1,sp[0x10]
80005820:	0e 99       	mov	r9,r7
80005822:	fa f8 06 b4 	ld.w	r8,sp[1716]
80005826:	40 3b       	lddsp	r11,sp[0xc]
80005828:	58 0b       	cp.w	r11,0
8000582a:	c1 d0       	breq	80005864 <_vfprintf_r+0x1098>
8000582c:	10 36       	cp.w	r6,r8
8000582e:	c0 64       	brge	8000583a <_vfprintf_r+0x106e>
80005830:	fa ca f9 44 	sub	r10,sp,-1724
80005834:	f4 06 00 36 	add	r6,r10,r6<<0x3
80005838:	c1 d8       	rjmp	80005872 <_vfprintf_r+0x10a6>
8000583a:	fa c8 f9 50 	sub	r8,sp,-1712
8000583e:	1a d8       	st.w	--sp,r8
80005840:	fa c8 fa b8 	sub	r8,sp,-1352
80005844:	1a d8       	st.w	--sp,r8
80005846:	fa c8 fb b4 	sub	r8,sp,-1100
8000584a:	0c 9b       	mov	r11,r6
8000584c:	1a d8       	st.w	--sp,r8
8000584e:	04 9a       	mov	r10,r2
80005850:	fa c8 f9 40 	sub	r8,sp,-1728
80005854:	fa c9 ff b4 	sub	r9,sp,-76
80005858:	08 9c       	mov	r12,r4
8000585a:	f0 1f 00 31 	mcall	8000591c <_vfprintf_r+0x1150>
8000585e:	2f dd       	sub	sp,-12
80005860:	78 06       	ld.w	r6,r12[0x0]
80005862:	c2 08       	rjmp	800058a2 <_vfprintf_r+0x10d6>
80005864:	2f f7       	sub	r7,-1
80005866:	10 39       	cp.w	r9,r8
80005868:	c0 84       	brge	80005878 <_vfprintf_r+0x10ac>
8000586a:	fa c9 f9 44 	sub	r9,sp,-1724
8000586e:	f2 06 00 36 	add	r6,r9,r6<<0x3
80005872:	ec f6 fd 88 	ld.w	r6,r6[-632]
80005876:	c1 68       	rjmp	800058a2 <_vfprintf_r+0x10d6>
80005878:	41 09       	lddsp	r9,sp[0x40]
8000587a:	59 f8       	cp.w	r8,31
8000587c:	e0 89 00 10 	brgt	8000589c <_vfprintf_r+0x10d0>
80005880:	f2 ca ff fc 	sub	r10,r9,-4
80005884:	51 0a       	stdsp	sp[0x40],r10
80005886:	72 06       	ld.w	r6,r9[0x0]
80005888:	fa ce f9 44 	sub	lr,sp,-1724
8000588c:	fc 08 00 39 	add	r9,lr,r8<<0x3
80005890:	f3 46 fd 88 	st.w	r9[-632],r6
80005894:	2f f8       	sub	r8,-1
80005896:	fb 48 06 b4 	st.w	sp[1716],r8
8000589a:	c0 48       	rjmp	800058a2 <_vfprintf_r+0x10d6>
8000589c:	72 06       	ld.w	r6,r9[0x0]
8000589e:	2f c9       	sub	r9,-4
800058a0:	51 09       	stdsp	sp[0x40],r9
800058a2:	40 2c       	lddsp	r12,sp[0x8]
800058a4:	58 0c       	cp.w	r12,0
800058a6:	c1 05       	brlt	800058c6 <_vfprintf_r+0x10fa>
800058a8:	18 9a       	mov	r10,r12
800058aa:	30 0b       	mov	r11,0
800058ac:	0c 9c       	mov	r12,r6
800058ae:	f0 1f 00 1e 	mcall	80005924 <_vfprintf_r+0x1158>
800058b2:	e0 80 02 e8 	breq	80005e82 <_vfprintf_r+0x16b6>
800058b6:	f8 06 01 02 	sub	r2,r12,r6
800058ba:	40 2b       	lddsp	r11,sp[0x8]
800058bc:	16 32       	cp.w	r2,r11
800058be:	e0 89 02 e2 	brgt	80005e82 <_vfprintf_r+0x16b6>
800058c2:	e0 8f 02 dd 	bral	80005e7c <_vfprintf_r+0x16b0>
800058c6:	30 0a       	mov	r10,0
800058c8:	0c 9c       	mov	r12,r6
800058ca:	50 2a       	stdsp	sp[0x8],r10
800058cc:	f0 1f 00 17 	mcall	80005928 <_vfprintf_r+0x115c>
800058d0:	18 92       	mov	r2,r12
800058d2:	e0 8f 02 db 	bral	80005e88 <_vfprintf_r+0x16bc>
800058d6:	50 a7       	stdsp	sp[0x28],r7
800058d8:	50 80       	stdsp	sp[0x20],r0
800058da:	0c 97       	mov	r7,r6
800058dc:	04 94       	mov	r4,r2
800058de:	06 96       	mov	r6,r3
800058e0:	02 92       	mov	r2,r1
800058e2:	40 93       	lddsp	r3,sp[0x24]
800058e4:	10 90       	mov	r0,r8
800058e6:	40 41       	lddsp	r1,sp[0x10]
800058e8:	a5 a5       	sbr	r5,0x4
800058ea:	c0 a8       	rjmp	800058fe <_vfprintf_r+0x1132>
800058ec:	50 a7       	stdsp	sp[0x28],r7
800058ee:	50 80       	stdsp	sp[0x20],r0
800058f0:	0c 97       	mov	r7,r6
800058f2:	04 94       	mov	r4,r2
800058f4:	06 96       	mov	r6,r3
800058f6:	02 92       	mov	r2,r1
800058f8:	40 93       	lddsp	r3,sp[0x24]
800058fa:	10 90       	mov	r0,r8
800058fc:	40 41       	lddsp	r1,sp[0x10]
800058fe:	ed b5 00 05 	bld	r5,0x5
80005902:	c5 d1       	brne	800059bc <_vfprintf_r+0x11f0>
80005904:	fa f8 06 b4 	ld.w	r8,sp[1716]
80005908:	40 39       	lddsp	r9,sp[0xc]
8000590a:	58 09       	cp.w	r9,0
8000590c:	c2 80       	breq	8000595c <_vfprintf_r+0x1190>
8000590e:	10 36       	cp.w	r6,r8
80005910:	c0 e4       	brge	8000592c <_vfprintf_r+0x1160>
80005912:	fa c8 f9 44 	sub	r8,sp,-1724
80005916:	f0 06 00 36 	add	r6,r8,r6<<0x3
8000591a:	c2 a8       	rjmp	8000596e <_vfprintf_r+0x11a2>
8000591c:	80 00       	ld.sh	r0,r0[0x0]
8000591e:	44 88       	lddsp	r8,sp[0x120]
80005920:	80 00       	ld.sh	r0,r0[0x0]
80005922:	a4 7c       	st.h	r2[0xe],r12
80005924:	80 00       	ld.sh	r0,r0[0x0]
80005926:	83 a4       	st.w	r1[0x28],r4
80005928:	80 00       	ld.sh	r0,r0[0x0]
8000592a:	8f 7c       	st.w	r7[0x1c],r12
8000592c:	fa c8 f9 50 	sub	r8,sp,-1712
80005930:	1a d8       	st.w	--sp,r8
80005932:	fa c8 fa b8 	sub	r8,sp,-1352
80005936:	1a d8       	st.w	--sp,r8
80005938:	fa c8 fb b4 	sub	r8,sp,-1100
8000593c:	1a d8       	st.w	--sp,r8
8000593e:	fa c8 f9 40 	sub	r8,sp,-1728
80005942:	fa c9 ff b4 	sub	r9,sp,-76
80005946:	04 9a       	mov	r10,r2
80005948:	0c 9b       	mov	r11,r6
8000594a:	08 9c       	mov	r12,r4
8000594c:	f0 1f 00 c8 	mcall	80005c6c <_vfprintf_r+0x14a0>
80005950:	2f dd       	sub	sp,-12
80005952:	f8 e8 00 00 	ld.d	r8,r12[0]
80005956:	fa e9 00 00 	st.d	sp[0],r8
8000595a:	c2 e8       	rjmp	800059b6 <_vfprintf_r+0x11ea>
8000595c:	ee ca ff ff 	sub	r10,r7,-1
80005960:	10 37       	cp.w	r7,r8
80005962:	c0 b4       	brge	80005978 <_vfprintf_r+0x11ac>
80005964:	fa c8 f9 44 	sub	r8,sp,-1724
80005968:	14 97       	mov	r7,r10
8000596a:	f0 06 00 36 	add	r6,r8,r6<<0x3
8000596e:	ec ea fd 88 	ld.d	r10,r6[-632]
80005972:	fa eb 00 00 	st.d	sp[0],r10
80005976:	c2 08       	rjmp	800059b6 <_vfprintf_r+0x11ea>
80005978:	41 09       	lddsp	r9,sp[0x40]
8000597a:	59 f8       	cp.w	r8,31
8000597c:	e0 89 00 16 	brgt	800059a8 <_vfprintf_r+0x11dc>
80005980:	f2 e6 00 00 	ld.d	r6,r9[0]
80005984:	f2 cb ff f8 	sub	r11,r9,-8
80005988:	fa e7 00 00 	st.d	sp[0],r6
8000598c:	51 0b       	stdsp	sp[0x40],r11
8000598e:	fa c6 f9 44 	sub	r6,sp,-1724
80005992:	ec 08 00 39 	add	r9,r6,r8<<0x3
80005996:	fa e6 00 00 	ld.d	r6,sp[0]
8000599a:	f2 e7 fd 88 	st.d	r9[-632],r6
8000599e:	2f f8       	sub	r8,-1
800059a0:	14 97       	mov	r7,r10
800059a2:	fb 48 06 b4 	st.w	sp[1716],r8
800059a6:	c0 88       	rjmp	800059b6 <_vfprintf_r+0x11ea>
800059a8:	f2 e6 00 00 	ld.d	r6,r9[0]
800059ac:	2f 89       	sub	r9,-8
800059ae:	fa e7 00 00 	st.d	sp[0],r6
800059b2:	51 09       	stdsp	sp[0x40],r9
800059b4:	14 97       	mov	r7,r10
800059b6:	30 18       	mov	r8,1
800059b8:	e0 8f 01 d2 	bral	80005d5c <_vfprintf_r+0x1590>
800059bc:	ed b5 00 04 	bld	r5,0x4
800059c0:	c1 61       	brne	800059ec <_vfprintf_r+0x1220>
800059c2:	fa f8 06 b4 	ld.w	r8,sp[1716]
800059c6:	40 3e       	lddsp	lr,sp[0xc]
800059c8:	58 0e       	cp.w	lr,0
800059ca:	c0 80       	breq	800059da <_vfprintf_r+0x120e>
800059cc:	10 36       	cp.w	r6,r8
800059ce:	c6 74       	brge	80005a9c <_vfprintf_r+0x12d0>
800059d0:	fa cc f9 44 	sub	r12,sp,-1724
800059d4:	f8 06 00 36 	add	r6,r12,r6<<0x3
800059d8:	c8 08       	rjmp	80005ad8 <_vfprintf_r+0x130c>
800059da:	ee ca ff ff 	sub	r10,r7,-1
800059de:	10 37       	cp.w	r7,r8
800059e0:	c7 f4       	brge	80005ade <_vfprintf_r+0x1312>
800059e2:	fa cb f9 44 	sub	r11,sp,-1724
800059e6:	f6 06 00 36 	add	r6,r11,r6<<0x3
800059ea:	c7 68       	rjmp	80005ad6 <_vfprintf_r+0x130a>
800059ec:	ed b5 00 06 	bld	r5,0x6
800059f0:	c4 a1       	brne	80005a84 <_vfprintf_r+0x12b8>
800059f2:	fa f8 06 b4 	ld.w	r8,sp[1716]
800059f6:	40 3c       	lddsp	r12,sp[0xc]
800059f8:	58 0c       	cp.w	r12,0
800059fa:	c1 d0       	breq	80005a34 <_vfprintf_r+0x1268>
800059fc:	10 36       	cp.w	r6,r8
800059fe:	c0 64       	brge	80005a0a <_vfprintf_r+0x123e>
80005a00:	fa cb f9 44 	sub	r11,sp,-1724
80005a04:	f6 06 00 36 	add	r6,r11,r6<<0x3
80005a08:	c1 f8       	rjmp	80005a46 <_vfprintf_r+0x127a>
80005a0a:	fa c8 f9 50 	sub	r8,sp,-1712
80005a0e:	1a d8       	st.w	--sp,r8
80005a10:	fa c8 fa b8 	sub	r8,sp,-1352
80005a14:	1a d8       	st.w	--sp,r8
80005a16:	fa c8 fb b4 	sub	r8,sp,-1100
80005a1a:	1a d8       	st.w	--sp,r8
80005a1c:	fa c8 f9 40 	sub	r8,sp,-1728
80005a20:	fa c9 ff b4 	sub	r9,sp,-76
80005a24:	04 9a       	mov	r10,r2
80005a26:	0c 9b       	mov	r11,r6
80005a28:	08 9c       	mov	r12,r4
80005a2a:	f0 1f 00 91 	mcall	80005c6c <_vfprintf_r+0x14a0>
80005a2e:	2f dd       	sub	sp,-12
80005a30:	98 18       	ld.sh	r8,r12[0x2]
80005a32:	c2 68       	rjmp	80005a7e <_vfprintf_r+0x12b2>
80005a34:	ee ca ff ff 	sub	r10,r7,-1
80005a38:	10 37       	cp.w	r7,r8
80005a3a:	c0 94       	brge	80005a4c <_vfprintf_r+0x1280>
80005a3c:	fa c9 f9 44 	sub	r9,sp,-1724
80005a40:	14 97       	mov	r7,r10
80005a42:	f2 06 00 36 	add	r6,r9,r6<<0x3
80005a46:	ed 08 fd 8a 	ld.sh	r8,r6[-630]
80005a4a:	c1 a8       	rjmp	80005a7e <_vfprintf_r+0x12b2>
80005a4c:	41 09       	lddsp	r9,sp[0x40]
80005a4e:	59 f8       	cp.w	r8,31
80005a50:	e0 89 00 13 	brgt	80005a76 <_vfprintf_r+0x12aa>
80005a54:	f2 cb ff fc 	sub	r11,r9,-4
80005a58:	51 0b       	stdsp	sp[0x40],r11
80005a5a:	72 09       	ld.w	r9,r9[0x0]
80005a5c:	fa c6 f9 44 	sub	r6,sp,-1724
80005a60:	ec 08 00 3b 	add	r11,r6,r8<<0x3
80005a64:	2f f8       	sub	r8,-1
80005a66:	f7 49 fd 88 	st.w	r11[-632],r9
80005a6a:	fb 48 06 b4 	st.w	sp[1716],r8
80005a6e:	14 97       	mov	r7,r10
80005a70:	f1 d9 b0 10 	bfexts	r8,r9,0x0,0x10
80005a74:	c0 58       	rjmp	80005a7e <_vfprintf_r+0x12b2>
80005a76:	92 18       	ld.sh	r8,r9[0x2]
80005a78:	14 97       	mov	r7,r10
80005a7a:	2f c9       	sub	r9,-4
80005a7c:	51 09       	stdsp	sp[0x40],r9
80005a7e:	5c 78       	castu.h	r8
80005a80:	50 18       	stdsp	sp[0x4],r8
80005a82:	c4 68       	rjmp	80005b0e <_vfprintf_r+0x1342>
80005a84:	fa f8 06 b4 	ld.w	r8,sp[1716]
80005a88:	40 3c       	lddsp	r12,sp[0xc]
80005a8a:	58 0c       	cp.w	r12,0
80005a8c:	c1 d0       	breq	80005ac6 <_vfprintf_r+0x12fa>
80005a8e:	10 36       	cp.w	r6,r8
80005a90:	c0 64       	brge	80005a9c <_vfprintf_r+0x12d0>
80005a92:	fa cb f9 44 	sub	r11,sp,-1724
80005a96:	f6 06 00 36 	add	r6,r11,r6<<0x3
80005a9a:	c1 f8       	rjmp	80005ad8 <_vfprintf_r+0x130c>
80005a9c:	fa c8 f9 50 	sub	r8,sp,-1712
80005aa0:	1a d8       	st.w	--sp,r8
80005aa2:	fa c8 fa b8 	sub	r8,sp,-1352
80005aa6:	0c 9b       	mov	r11,r6
80005aa8:	1a d8       	st.w	--sp,r8
80005aaa:	fa c8 fb b4 	sub	r8,sp,-1100
80005aae:	04 9a       	mov	r10,r2
80005ab0:	1a d8       	st.w	--sp,r8
80005ab2:	08 9c       	mov	r12,r4
80005ab4:	fa c8 f9 40 	sub	r8,sp,-1728
80005ab8:	fa c9 ff b4 	sub	r9,sp,-76
80005abc:	f0 1f 00 6c 	mcall	80005c6c <_vfprintf_r+0x14a0>
80005ac0:	2f dd       	sub	sp,-12
80005ac2:	78 0b       	ld.w	r11,r12[0x0]
80005ac4:	c2 48       	rjmp	80005b0c <_vfprintf_r+0x1340>
80005ac6:	ee ca ff ff 	sub	r10,r7,-1
80005aca:	10 37       	cp.w	r7,r8
80005acc:	c0 94       	brge	80005ade <_vfprintf_r+0x1312>
80005ace:	fa c9 f9 44 	sub	r9,sp,-1724
80005ad2:	f2 06 00 36 	add	r6,r9,r6<<0x3
80005ad6:	14 97       	mov	r7,r10
80005ad8:	ec fb fd 88 	ld.w	r11,r6[-632]
80005adc:	c1 88       	rjmp	80005b0c <_vfprintf_r+0x1340>
80005ade:	41 09       	lddsp	r9,sp[0x40]
80005ae0:	59 f8       	cp.w	r8,31
80005ae2:	e0 89 00 11 	brgt	80005b04 <_vfprintf_r+0x1338>
80005ae6:	f2 cb ff fc 	sub	r11,r9,-4
80005aea:	51 0b       	stdsp	sp[0x40],r11
80005aec:	fa c6 f9 44 	sub	r6,sp,-1724
80005af0:	72 0b       	ld.w	r11,r9[0x0]
80005af2:	ec 08 00 39 	add	r9,r6,r8<<0x3
80005af6:	f3 4b fd 88 	st.w	r9[-632],r11
80005afa:	2f f8       	sub	r8,-1
80005afc:	14 97       	mov	r7,r10
80005afe:	fb 48 06 b4 	st.w	sp[1716],r8
80005b02:	c0 58       	rjmp	80005b0c <_vfprintf_r+0x1340>
80005b04:	72 0b       	ld.w	r11,r9[0x0]
80005b06:	14 97       	mov	r7,r10
80005b08:	2f c9       	sub	r9,-4
80005b0a:	51 09       	stdsp	sp[0x40],r9
80005b0c:	50 1b       	stdsp	sp[0x4],r11
80005b0e:	30 0e       	mov	lr,0
80005b10:	30 18       	mov	r8,1
80005b12:	50 0e       	stdsp	sp[0x0],lr
80005b14:	c2 49       	rjmp	80005d5c <_vfprintf_r+0x1590>
80005b16:	50 a7       	stdsp	sp[0x28],r7
80005b18:	50 80       	stdsp	sp[0x20],r0
80005b1a:	0c 97       	mov	r7,r6
80005b1c:	04 94       	mov	r4,r2
80005b1e:	06 96       	mov	r6,r3
80005b20:	02 92       	mov	r2,r1
80005b22:	4d 4c       	lddpc	r12,80005c70 <_vfprintf_r+0x14a4>
80005b24:	40 93       	lddsp	r3,sp[0x24]
80005b26:	10 90       	mov	r0,r8
80005b28:	40 41       	lddsp	r1,sp[0x10]
80005b2a:	50 dc       	stdsp	sp[0x34],r12
80005b2c:	ed b5 00 05 	bld	r5,0x5
80005b30:	c5 51       	brne	80005bda <_vfprintf_r+0x140e>
80005b32:	fa f8 06 b4 	ld.w	r8,sp[1716]
80005b36:	40 3b       	lddsp	r11,sp[0xc]
80005b38:	58 0b       	cp.w	r11,0
80005b3a:	c2 20       	breq	80005b7e <_vfprintf_r+0x13b2>
80005b3c:	10 36       	cp.w	r6,r8
80005b3e:	c0 a4       	brge	80005b52 <_vfprintf_r+0x1386>
80005b40:	fa ca f9 44 	sub	r10,sp,-1724
80005b44:	f4 06 00 36 	add	r6,r10,r6<<0x3
80005b48:	ec e8 fd 88 	ld.d	r8,r6[-632]
80005b4c:	fa e9 00 00 	st.d	sp[0],r8
80005b50:	cf 58       	rjmp	80005d3a <_vfprintf_r+0x156e>
80005b52:	fa c8 f9 50 	sub	r8,sp,-1712
80005b56:	1a d8       	st.w	--sp,r8
80005b58:	fa c8 fa b8 	sub	r8,sp,-1352
80005b5c:	04 9a       	mov	r10,r2
80005b5e:	1a d8       	st.w	--sp,r8
80005b60:	0c 9b       	mov	r11,r6
80005b62:	fa c8 fb b4 	sub	r8,sp,-1100
80005b66:	08 9c       	mov	r12,r4
80005b68:	1a d8       	st.w	--sp,r8
80005b6a:	fa c8 f9 40 	sub	r8,sp,-1728
80005b6e:	fa c9 ff b4 	sub	r9,sp,-76
80005b72:	f0 1f 00 3f 	mcall	80005c6c <_vfprintf_r+0x14a0>
80005b76:	2f dd       	sub	sp,-12
80005b78:	f8 ea 00 00 	ld.d	r10,r12[0]
80005b7c:	c0 c8       	rjmp	80005b94 <_vfprintf_r+0x13c8>
80005b7e:	ee ca ff ff 	sub	r10,r7,-1
80005b82:	10 37       	cp.w	r7,r8
80005b84:	c0 b4       	brge	80005b9a <_vfprintf_r+0x13ce>
80005b86:	fa c9 f9 44 	sub	r9,sp,-1724
80005b8a:	14 97       	mov	r7,r10
80005b8c:	f2 06 00 36 	add	r6,r9,r6<<0x3
80005b90:	ec ea fd 88 	ld.d	r10,r6[-632]
80005b94:	fa eb 00 00 	st.d	sp[0],r10
80005b98:	cd 18       	rjmp	80005d3a <_vfprintf_r+0x156e>
80005b9a:	41 09       	lddsp	r9,sp[0x40]
80005b9c:	59 f8       	cp.w	r8,31
80005b9e:	e0 89 00 16 	brgt	80005bca <_vfprintf_r+0x13fe>
80005ba2:	f2 e6 00 00 	ld.d	r6,r9[0]
80005ba6:	f2 cb ff f8 	sub	r11,r9,-8
80005baa:	fa e7 00 00 	st.d	sp[0],r6
80005bae:	51 0b       	stdsp	sp[0x40],r11
80005bb0:	fa c6 f9 44 	sub	r6,sp,-1724
80005bb4:	ec 08 00 39 	add	r9,r6,r8<<0x3
80005bb8:	fa e6 00 00 	ld.d	r6,sp[0]
80005bbc:	f2 e7 fd 88 	st.d	r9[-632],r6
80005bc0:	2f f8       	sub	r8,-1
80005bc2:	14 97       	mov	r7,r10
80005bc4:	fb 48 06 b4 	st.w	sp[1716],r8
80005bc8:	cb 98       	rjmp	80005d3a <_vfprintf_r+0x156e>
80005bca:	f2 e6 00 00 	ld.d	r6,r9[0]
80005bce:	2f 89       	sub	r9,-8
80005bd0:	fa e7 00 00 	st.d	sp[0],r6
80005bd4:	51 09       	stdsp	sp[0x40],r9
80005bd6:	14 97       	mov	r7,r10
80005bd8:	cb 18       	rjmp	80005d3a <_vfprintf_r+0x156e>
80005bda:	ed b5 00 04 	bld	r5,0x4
80005bde:	c1 71       	brne	80005c0c <_vfprintf_r+0x1440>
80005be0:	fa f8 06 b4 	ld.w	r8,sp[1716]
80005be4:	40 3e       	lddsp	lr,sp[0xc]
80005be6:	58 0e       	cp.w	lr,0
80005be8:	c0 80       	breq	80005bf8 <_vfprintf_r+0x142c>
80005bea:	10 36       	cp.w	r6,r8
80005bec:	c6 c4       	brge	80005cc4 <_vfprintf_r+0x14f8>
80005bee:	fa cc f9 44 	sub	r12,sp,-1724
80005bf2:	f8 06 00 36 	add	r6,r12,r6<<0x3
80005bf6:	c8 58       	rjmp	80005d00 <_vfprintf_r+0x1534>
80005bf8:	ee ca ff ff 	sub	r10,r7,-1
80005bfc:	10 37       	cp.w	r7,r8
80005bfe:	e0 84 00 84 	brge	80005d06 <_vfprintf_r+0x153a>
80005c02:	fa cb f9 44 	sub	r11,sp,-1724
80005c06:	f6 06 00 36 	add	r6,r11,r6<<0x3
80005c0a:	c7 a8       	rjmp	80005cfe <_vfprintf_r+0x1532>
80005c0c:	ed b5 00 06 	bld	r5,0x6
80005c10:	c4 e1       	brne	80005cac <_vfprintf_r+0x14e0>
80005c12:	fa f8 06 b4 	ld.w	r8,sp[1716]
80005c16:	40 3c       	lddsp	r12,sp[0xc]
80005c18:	58 0c       	cp.w	r12,0
80005c1a:	c1 d0       	breq	80005c54 <_vfprintf_r+0x1488>
80005c1c:	10 36       	cp.w	r6,r8
80005c1e:	c0 64       	brge	80005c2a <_vfprintf_r+0x145e>
80005c20:	fa cb f9 44 	sub	r11,sp,-1724
80005c24:	f6 06 00 36 	add	r6,r11,r6<<0x3
80005c28:	c1 f8       	rjmp	80005c66 <_vfprintf_r+0x149a>
80005c2a:	fa c8 f9 50 	sub	r8,sp,-1712
80005c2e:	1a d8       	st.w	--sp,r8
80005c30:	fa c8 fa b8 	sub	r8,sp,-1352
80005c34:	1a d8       	st.w	--sp,r8
80005c36:	fa c8 fb b4 	sub	r8,sp,-1100
80005c3a:	1a d8       	st.w	--sp,r8
80005c3c:	fa c8 f9 40 	sub	r8,sp,-1728
80005c40:	fa c9 ff b4 	sub	r9,sp,-76
80005c44:	04 9a       	mov	r10,r2
80005c46:	0c 9b       	mov	r11,r6
80005c48:	08 9c       	mov	r12,r4
80005c4a:	f0 1f 00 09 	mcall	80005c6c <_vfprintf_r+0x14a0>
80005c4e:	2f dd       	sub	sp,-12
80005c50:	98 18       	ld.sh	r8,r12[0x2]
80005c52:	c2 a8       	rjmp	80005ca6 <_vfprintf_r+0x14da>
80005c54:	ee ca ff ff 	sub	r10,r7,-1
80005c58:	10 37       	cp.w	r7,r8
80005c5a:	c0 d4       	brge	80005c74 <_vfprintf_r+0x14a8>
80005c5c:	fa c9 f9 44 	sub	r9,sp,-1724
80005c60:	14 97       	mov	r7,r10
80005c62:	f2 06 00 36 	add	r6,r9,r6<<0x3
80005c66:	ed 08 fd 8a 	ld.sh	r8,r6[-630]
80005c6a:	c1 e8       	rjmp	80005ca6 <_vfprintf_r+0x14da>
80005c6c:	80 00       	ld.sh	r0,r0[0x0]
80005c6e:	44 88       	lddsp	r8,sp[0x120]
80005c70:	80 00       	ld.sh	r0,r0[0x0]
80005c72:	a4 7c       	st.h	r2[0xe],r12
80005c74:	41 09       	lddsp	r9,sp[0x40]
80005c76:	59 f8       	cp.w	r8,31
80005c78:	e0 89 00 13 	brgt	80005c9e <_vfprintf_r+0x14d2>
80005c7c:	f2 cb ff fc 	sub	r11,r9,-4
80005c80:	51 0b       	stdsp	sp[0x40],r11
80005c82:	72 09       	ld.w	r9,r9[0x0]
80005c84:	fa c6 f9 44 	sub	r6,sp,-1724
80005c88:	ec 08 00 3b 	add	r11,r6,r8<<0x3
80005c8c:	2f f8       	sub	r8,-1
80005c8e:	f7 49 fd 88 	st.w	r11[-632],r9
80005c92:	fb 48 06 b4 	st.w	sp[1716],r8
80005c96:	14 97       	mov	r7,r10
80005c98:	f1 d9 b0 10 	bfexts	r8,r9,0x0,0x10
80005c9c:	c0 58       	rjmp	80005ca6 <_vfprintf_r+0x14da>
80005c9e:	92 18       	ld.sh	r8,r9[0x2]
80005ca0:	14 97       	mov	r7,r10
80005ca2:	2f c9       	sub	r9,-4
80005ca4:	51 09       	stdsp	sp[0x40],r9
80005ca6:	5c 78       	castu.h	r8
80005ca8:	50 18       	stdsp	sp[0x4],r8
80005caa:	c4 68       	rjmp	80005d36 <_vfprintf_r+0x156a>
80005cac:	fa f8 06 b4 	ld.w	r8,sp[1716]
80005cb0:	40 3c       	lddsp	r12,sp[0xc]
80005cb2:	58 0c       	cp.w	r12,0
80005cb4:	c1 d0       	breq	80005cee <_vfprintf_r+0x1522>
80005cb6:	10 36       	cp.w	r6,r8
80005cb8:	c0 64       	brge	80005cc4 <_vfprintf_r+0x14f8>
80005cba:	fa cb f9 44 	sub	r11,sp,-1724
80005cbe:	f6 06 00 36 	add	r6,r11,r6<<0x3
80005cc2:	c1 f8       	rjmp	80005d00 <_vfprintf_r+0x1534>
80005cc4:	fa c8 f9 50 	sub	r8,sp,-1712
80005cc8:	1a d8       	st.w	--sp,r8
80005cca:	fa c8 fa b8 	sub	r8,sp,-1352
80005cce:	0c 9b       	mov	r11,r6
80005cd0:	1a d8       	st.w	--sp,r8
80005cd2:	fa c8 fb b4 	sub	r8,sp,-1100
80005cd6:	04 9a       	mov	r10,r2
80005cd8:	1a d8       	st.w	--sp,r8
80005cda:	08 9c       	mov	r12,r4
80005cdc:	fa c8 f9 40 	sub	r8,sp,-1728
80005ce0:	fa c9 ff b4 	sub	r9,sp,-76
80005ce4:	f0 1f 00 cb 	mcall	80006010 <_vfprintf_r+0x1844>
80005ce8:	2f dd       	sub	sp,-12
80005cea:	78 0b       	ld.w	r11,r12[0x0]
80005cec:	c2 48       	rjmp	80005d34 <_vfprintf_r+0x1568>
80005cee:	ee ca ff ff 	sub	r10,r7,-1
80005cf2:	10 37       	cp.w	r7,r8
80005cf4:	c0 94       	brge	80005d06 <_vfprintf_r+0x153a>
80005cf6:	fa c9 f9 44 	sub	r9,sp,-1724
80005cfa:	f2 06 00 36 	add	r6,r9,r6<<0x3
80005cfe:	14 97       	mov	r7,r10
80005d00:	ec fb fd 88 	ld.w	r11,r6[-632]
80005d04:	c1 88       	rjmp	80005d34 <_vfprintf_r+0x1568>
80005d06:	41 09       	lddsp	r9,sp[0x40]
80005d08:	59 f8       	cp.w	r8,31
80005d0a:	e0 89 00 11 	brgt	80005d2c <_vfprintf_r+0x1560>
80005d0e:	f2 cb ff fc 	sub	r11,r9,-4
80005d12:	51 0b       	stdsp	sp[0x40],r11
80005d14:	fa c6 f9 44 	sub	r6,sp,-1724
80005d18:	72 0b       	ld.w	r11,r9[0x0]
80005d1a:	ec 08 00 39 	add	r9,r6,r8<<0x3
80005d1e:	f3 4b fd 88 	st.w	r9[-632],r11
80005d22:	2f f8       	sub	r8,-1
80005d24:	14 97       	mov	r7,r10
80005d26:	fb 48 06 b4 	st.w	sp[1716],r8
80005d2a:	c0 58       	rjmp	80005d34 <_vfprintf_r+0x1568>
80005d2c:	72 0b       	ld.w	r11,r9[0x0]
80005d2e:	14 97       	mov	r7,r10
80005d30:	2f c9       	sub	r9,-4
80005d32:	51 09       	stdsp	sp[0x40],r9
80005d34:	50 1b       	stdsp	sp[0x4],r11
80005d36:	30 0e       	mov	lr,0
80005d38:	50 0e       	stdsp	sp[0x0],lr
80005d3a:	40 08       	lddsp	r8,sp[0x0]
80005d3c:	40 1c       	lddsp	r12,sp[0x4]
80005d3e:	18 48       	or	r8,r12
80005d40:	5f 19       	srne	r9
80005d42:	0a 98       	mov	r8,r5
80005d44:	eb e9 00 09 	and	r9,r5,r9
80005d48:	a1 b8       	sbr	r8,0x1
80005d4a:	58 09       	cp.w	r9,0
80005d4c:	c0 70       	breq	80005d5a <_vfprintf_r+0x158e>
80005d4e:	10 95       	mov	r5,r8
80005d50:	fb 60 06 b9 	st.b	sp[1721],r0
80005d54:	33 08       	mov	r8,48
80005d56:	fb 68 06 b8 	st.b	sp[1720],r8
80005d5a:	30 28       	mov	r8,2
80005d5c:	30 09       	mov	r9,0
80005d5e:	fb 69 06 bb 	st.b	sp[1723],r9
80005d62:	0a 99       	mov	r9,r5
80005d64:	a7 d9       	cbr	r9,0x7
80005d66:	40 2b       	lddsp	r11,sp[0x8]
80005d68:	40 16       	lddsp	r6,sp[0x4]
80005d6a:	58 0b       	cp.w	r11,0
80005d6c:	5f 1a       	srne	r10
80005d6e:	f2 05 17 40 	movge	r5,r9
80005d72:	fa c2 f9 78 	sub	r2,sp,-1672
80005d76:	40 09       	lddsp	r9,sp[0x0]
80005d78:	0c 49       	or	r9,r6
80005d7a:	5f 19       	srne	r9
80005d7c:	f5 e9 10 09 	or	r9,r10,r9
80005d80:	c5 c0       	breq	80005e38 <_vfprintf_r+0x166c>
80005d82:	30 19       	mov	r9,1
80005d84:	f2 08 18 00 	cp.b	r8,r9
80005d88:	c0 60       	breq	80005d94 <_vfprintf_r+0x15c8>
80005d8a:	30 29       	mov	r9,2
80005d8c:	f2 08 18 00 	cp.b	r8,r9
80005d90:	c0 41       	brne	80005d98 <_vfprintf_r+0x15cc>
80005d92:	c3 c8       	rjmp	80005e0a <_vfprintf_r+0x163e>
80005d94:	04 96       	mov	r6,r2
80005d96:	c3 08       	rjmp	80005df6 <_vfprintf_r+0x162a>
80005d98:	04 96       	mov	r6,r2
80005d9a:	fa e8 00 00 	ld.d	r8,sp[0]
80005d9e:	f5 d8 c0 03 	bfextu	r10,r8,0x0,0x3
80005da2:	2d 0a       	sub	r10,-48
80005da4:	0c fa       	st.b	--r6,r10
80005da6:	f0 0b 16 03 	lsr	r11,r8,0x3
80005daa:	f2 0c 16 03 	lsr	r12,r9,0x3
80005dae:	f7 e9 11 db 	or	r11,r11,r9<<0x1d
80005db2:	18 99       	mov	r9,r12
80005db4:	16 98       	mov	r8,r11
80005db6:	58 08       	cp.w	r8,0
80005db8:	5c 29       	cpc	r9
80005dba:	cf 21       	brne	80005d9e <_vfprintf_r+0x15d2>
80005dbc:	fa e9 00 00 	st.d	sp[0],r8
80005dc0:	ed b5 00 00 	bld	r5,0x0
80005dc4:	c4 51       	brne	80005e4e <_vfprintf_r+0x1682>
80005dc6:	33 09       	mov	r9,48
80005dc8:	f2 0a 18 00 	cp.b	r10,r9
80005dcc:	c4 10       	breq	80005e4e <_vfprintf_r+0x1682>
80005dce:	0c f9       	st.b	--r6,r9
80005dd0:	c3 f8       	rjmp	80005e4e <_vfprintf_r+0x1682>
80005dd2:	fa ea 00 00 	ld.d	r10,sp[0]
80005dd6:	30 a8       	mov	r8,10
80005dd8:	30 09       	mov	r9,0
80005dda:	f0 1f 00 8f 	mcall	80006014 <_vfprintf_r+0x1848>
80005dde:	30 a8       	mov	r8,10
80005de0:	2d 0a       	sub	r10,-48
80005de2:	30 09       	mov	r9,0
80005de4:	ac 8a       	st.b	r6[0x0],r10
80005de6:	fa ea 00 00 	ld.d	r10,sp[0]
80005dea:	f0 1f 00 8c 	mcall	80006018 <_vfprintf_r+0x184c>
80005dee:	16 99       	mov	r9,r11
80005df0:	14 98       	mov	r8,r10
80005df2:	fa e9 00 00 	st.d	sp[0],r8
80005df6:	20 16       	sub	r6,1
80005df8:	fa ea 00 00 	ld.d	r10,sp[0]
80005dfc:	58 9a       	cp.w	r10,9
80005dfe:	5c 2b       	cpc	r11
80005e00:	fe 9b ff e9 	brhi	80005dd2 <_vfprintf_r+0x1606>
80005e04:	1b f8       	ld.ub	r8,sp[0x7]
80005e06:	2d 08       	sub	r8,-48
80005e08:	c2 08       	rjmp	80005e48 <_vfprintf_r+0x167c>
80005e0a:	04 96       	mov	r6,r2
80005e0c:	fa e8 00 00 	ld.d	r8,sp[0]
80005e10:	f5 d8 c0 04 	bfextu	r10,r8,0x0,0x4
80005e14:	40 de       	lddsp	lr,sp[0x34]
80005e16:	fc 0a 07 0a 	ld.ub	r10,lr[r10]
80005e1a:	0c fa       	st.b	--r6,r10
80005e1c:	f2 0b 16 04 	lsr	r11,r9,0x4
80005e20:	f0 0a 16 04 	lsr	r10,r8,0x4
80005e24:	f5 e9 11 ca 	or	r10,r10,r9<<0x1c
80005e28:	16 99       	mov	r9,r11
80005e2a:	14 98       	mov	r8,r10
80005e2c:	58 08       	cp.w	r8,0
80005e2e:	5c 29       	cpc	r9
80005e30:	cf 01       	brne	80005e10 <_vfprintf_r+0x1644>
80005e32:	fa e9 00 00 	st.d	sp[0],r8
80005e36:	c0 c8       	rjmp	80005e4e <_vfprintf_r+0x1682>
80005e38:	58 08       	cp.w	r8,0
80005e3a:	c0 91       	brne	80005e4c <_vfprintf_r+0x1680>
80005e3c:	ed b5 00 00 	bld	r5,0x0
80005e40:	c0 61       	brne	80005e4c <_vfprintf_r+0x1680>
80005e42:	fa c6 f9 79 	sub	r6,sp,-1671
80005e46:	33 08       	mov	r8,48
80005e48:	ac 88       	st.b	r6[0x0],r8
80005e4a:	c0 28       	rjmp	80005e4e <_vfprintf_r+0x1682>
80005e4c:	04 96       	mov	r6,r2
80005e4e:	0c 12       	sub	r2,r6
80005e50:	c1 c8       	rjmp	80005e88 <_vfprintf_r+0x16bc>
80005e52:	50 a7       	stdsp	sp[0x28],r7
80005e54:	50 80       	stdsp	sp[0x20],r0
80005e56:	40 93       	lddsp	r3,sp[0x24]
80005e58:	0c 97       	mov	r7,r6
80005e5a:	10 90       	mov	r0,r8
80005e5c:	04 94       	mov	r4,r2
80005e5e:	40 41       	lddsp	r1,sp[0x10]
80005e60:	58 08       	cp.w	r8,0
80005e62:	e0 80 04 65 	breq	8000672c <_vfprintf_r+0x1f60>
80005e66:	fb 68 06 60 	st.b	sp[1632],r8
80005e6a:	30 0c       	mov	r12,0
80005e6c:	30 08       	mov	r8,0
80005e6e:	30 12       	mov	r2,1
80005e70:	fb 68 06 bb 	st.b	sp[1723],r8
80005e74:	50 2c       	stdsp	sp[0x8],r12
80005e76:	fa c6 f9 a0 	sub	r6,sp,-1632
80005e7a:	c0 78       	rjmp	80005e88 <_vfprintf_r+0x16bc>
80005e7c:	30 0b       	mov	r11,0
80005e7e:	50 2b       	stdsp	sp[0x8],r11
80005e80:	c0 48       	rjmp	80005e88 <_vfprintf_r+0x16bc>
80005e82:	40 22       	lddsp	r2,sp[0x8]
80005e84:	30 0a       	mov	r10,0
80005e86:	50 2a       	stdsp	sp[0x8],r10
80005e88:	40 29       	lddsp	r9,sp[0x8]
80005e8a:	e4 09 0c 49 	max	r9,r2,r9
80005e8e:	fb 38 06 bb 	ld.ub	r8,sp[1723]
80005e92:	50 39       	stdsp	sp[0xc],r9
80005e94:	0a 9e       	mov	lr,r5
80005e96:	30 09       	mov	r9,0
80005e98:	e2 1e 00 02 	andl	lr,0x2,COH
80005e9c:	f2 08 18 00 	cp.b	r8,r9
80005ea0:	fb f8 10 03 	ld.wne	r8,sp[0xc]
80005ea4:	f7 b8 01 ff 	subne	r8,-1
80005ea8:	fb f8 1a 03 	st.wne	sp[0xc],r8
80005eac:	0a 9b       	mov	r11,r5
80005eae:	58 0e       	cp.w	lr,0
80005eb0:	fb fc 10 03 	ld.wne	r12,sp[0xc]
80005eb4:	f7 bc 01 fe 	subne	r12,-2
80005eb8:	fb fc 1a 03 	st.wne	sp[0xc],r12
80005ebc:	e2 1b 00 84 	andl	r11,0x84,COH
80005ec0:	50 fe       	stdsp	sp[0x3c],lr
80005ec2:	50 9b       	stdsp	sp[0x24],r11
80005ec4:	c4 51       	brne	80005f4e <_vfprintf_r+0x1782>
80005ec6:	40 8a       	lddsp	r10,sp[0x20]
80005ec8:	40 39       	lddsp	r9,sp[0xc]
80005eca:	12 1a       	sub	r10,r9
80005ecc:	50 4a       	stdsp	sp[0x10],r10
80005ece:	58 0a       	cp.w	r10,0
80005ed0:	e0 89 00 1f 	brgt	80005f0e <_vfprintf_r+0x1742>
80005ed4:	c3 d8       	rjmp	80005f4e <_vfprintf_r+0x1782>
80005ed6:	2f 09       	sub	r9,-16
80005ed8:	2f f8       	sub	r8,-1
80005eda:	4d 1e       	lddpc	lr,8000601c <_vfprintf_r+0x1850>
80005edc:	31 0c       	mov	r12,16
80005ede:	fb 49 06 90 	st.w	sp[1680],r9
80005ee2:	87 0e       	st.w	r3[0x0],lr
80005ee4:	87 1c       	st.w	r3[0x4],r12
80005ee6:	fb 48 06 8c 	st.w	sp[1676],r8
80005eea:	58 78       	cp.w	r8,7
80005eec:	e0 89 00 04 	brgt	80005ef4 <_vfprintf_r+0x1728>
80005ef0:	2f 83       	sub	r3,-8
80005ef2:	c0 b8       	rjmp	80005f08 <_vfprintf_r+0x173c>
80005ef4:	fa ca f9 78 	sub	r10,sp,-1672
80005ef8:	02 9b       	mov	r11,r1
80005efa:	08 9c       	mov	r12,r4
80005efc:	f0 1f 00 49 	mcall	80006020 <_vfprintf_r+0x1854>
80005f00:	e0 81 04 27 	brne	8000674e <_vfprintf_r+0x1f82>
80005f04:	fa c3 f9 e0 	sub	r3,sp,-1568
80005f08:	40 4b       	lddsp	r11,sp[0x10]
80005f0a:	21 0b       	sub	r11,16
80005f0c:	50 4b       	stdsp	sp[0x10],r11
80005f0e:	fa f9 06 90 	ld.w	r9,sp[1680]
80005f12:	fa f8 06 8c 	ld.w	r8,sp[1676]
80005f16:	4c 2a       	lddpc	r10,8000601c <_vfprintf_r+0x1850>
80005f18:	40 4e       	lddsp	lr,sp[0x10]
80005f1a:	59 0e       	cp.w	lr,16
80005f1c:	fe 99 ff dd 	brgt	80005ed6 <_vfprintf_r+0x170a>
80005f20:	1c 09       	add	r9,lr
80005f22:	2f f8       	sub	r8,-1
80005f24:	87 0a       	st.w	r3[0x0],r10
80005f26:	fb 49 06 90 	st.w	sp[1680],r9
80005f2a:	87 1e       	st.w	r3[0x4],lr
80005f2c:	fb 48 06 8c 	st.w	sp[1676],r8
80005f30:	58 78       	cp.w	r8,7
80005f32:	e0 89 00 04 	brgt	80005f3a <_vfprintf_r+0x176e>
80005f36:	2f 83       	sub	r3,-8
80005f38:	c0 b8       	rjmp	80005f4e <_vfprintf_r+0x1782>
80005f3a:	fa ca f9 78 	sub	r10,sp,-1672
80005f3e:	02 9b       	mov	r11,r1
80005f40:	08 9c       	mov	r12,r4
80005f42:	f0 1f 00 38 	mcall	80006020 <_vfprintf_r+0x1854>
80005f46:	e0 81 04 04 	brne	8000674e <_vfprintf_r+0x1f82>
80005f4a:	fa c3 f9 e0 	sub	r3,sp,-1568
80005f4e:	30 09       	mov	r9,0
80005f50:	fb 38 06 bb 	ld.ub	r8,sp[1723]
80005f54:	f2 08 18 00 	cp.b	r8,r9
80005f58:	c1 f0       	breq	80005f96 <_vfprintf_r+0x17ca>
80005f5a:	fa f8 06 90 	ld.w	r8,sp[1680]
80005f5e:	fa c9 f9 45 	sub	r9,sp,-1723
80005f62:	2f f8       	sub	r8,-1
80005f64:	87 09       	st.w	r3[0x0],r9
80005f66:	fb 48 06 90 	st.w	sp[1680],r8
80005f6a:	30 19       	mov	r9,1
80005f6c:	fa f8 06 8c 	ld.w	r8,sp[1676]
80005f70:	87 19       	st.w	r3[0x4],r9
80005f72:	2f f8       	sub	r8,-1
80005f74:	fb 48 06 8c 	st.w	sp[1676],r8
80005f78:	58 78       	cp.w	r8,7
80005f7a:	e0 89 00 04 	brgt	80005f82 <_vfprintf_r+0x17b6>
80005f7e:	2f 83       	sub	r3,-8
80005f80:	c0 b8       	rjmp	80005f96 <_vfprintf_r+0x17ca>
80005f82:	fa ca f9 78 	sub	r10,sp,-1672
80005f86:	02 9b       	mov	r11,r1
80005f88:	08 9c       	mov	r12,r4
80005f8a:	f0 1f 00 26 	mcall	80006020 <_vfprintf_r+0x1854>
80005f8e:	e0 81 03 e0 	brne	8000674e <_vfprintf_r+0x1f82>
80005f92:	fa c3 f9 e0 	sub	r3,sp,-1568
80005f96:	40 fc       	lddsp	r12,sp[0x3c]
80005f98:	58 0c       	cp.w	r12,0
80005f9a:	c1 f0       	breq	80005fd8 <_vfprintf_r+0x180c>
80005f9c:	fa f8 06 90 	ld.w	r8,sp[1680]
80005fa0:	fa c9 f9 48 	sub	r9,sp,-1720
80005fa4:	2f e8       	sub	r8,-2
80005fa6:	87 09       	st.w	r3[0x0],r9
80005fa8:	fb 48 06 90 	st.w	sp[1680],r8
80005fac:	30 29       	mov	r9,2
80005fae:	fa f8 06 8c 	ld.w	r8,sp[1676]
80005fb2:	87 19       	st.w	r3[0x4],r9
80005fb4:	2f f8       	sub	r8,-1
80005fb6:	fb 48 06 8c 	st.w	sp[1676],r8
80005fba:	58 78       	cp.w	r8,7
80005fbc:	e0 89 00 04 	brgt	80005fc4 <_vfprintf_r+0x17f8>
80005fc0:	2f 83       	sub	r3,-8
80005fc2:	c0 b8       	rjmp	80005fd8 <_vfprintf_r+0x180c>
80005fc4:	fa ca f9 78 	sub	r10,sp,-1672
80005fc8:	02 9b       	mov	r11,r1
80005fca:	08 9c       	mov	r12,r4
80005fcc:	f0 1f 00 15 	mcall	80006020 <_vfprintf_r+0x1854>
80005fd0:	e0 81 03 bf 	brne	8000674e <_vfprintf_r+0x1f82>
80005fd4:	fa c3 f9 e0 	sub	r3,sp,-1568
80005fd8:	40 9b       	lddsp	r11,sp[0x24]
80005fda:	e0 4b 00 80 	cp.w	r11,128
80005fde:	c5 21       	brne	80006082 <_vfprintf_r+0x18b6>
80005fe0:	40 8a       	lddsp	r10,sp[0x20]
80005fe2:	40 39       	lddsp	r9,sp[0xc]
80005fe4:	12 1a       	sub	r10,r9
80005fe6:	50 4a       	stdsp	sp[0x10],r10
80005fe8:	58 0a       	cp.w	r10,0
80005fea:	e0 89 00 2c 	brgt	80006042 <_vfprintf_r+0x1876>
80005fee:	c4 a8       	rjmp	80006082 <_vfprintf_r+0x18b6>
80005ff0:	2f 09       	sub	r9,-16
80005ff2:	2f f8       	sub	r8,-1
80005ff4:	48 ce       	lddpc	lr,80006024 <_vfprintf_r+0x1858>
80005ff6:	31 0c       	mov	r12,16
80005ff8:	fb 49 06 90 	st.w	sp[1680],r9
80005ffc:	87 0e       	st.w	r3[0x0],lr
80005ffe:	87 1c       	st.w	r3[0x4],r12
80006000:	fb 48 06 8c 	st.w	sp[1676],r8
80006004:	58 78       	cp.w	r8,7
80006006:	e0 89 00 11 	brgt	80006028 <_vfprintf_r+0x185c>
8000600a:	2f 83       	sub	r3,-8
8000600c:	c1 88       	rjmp	8000603c <_vfprintf_r+0x1870>
8000600e:	00 00       	add	r0,r0
80006010:	80 00       	ld.sh	r0,r0[0x0]
80006012:	44 88       	lddsp	r8,sp[0x120]
80006014:	80 00       	ld.sh	r0,r0[0x0]
80006016:	9e e8       	ld.uh	r8,pc[0xc]
80006018:	80 00       	ld.sh	r0,r0[0x0]
8000601a:	9c 84       	ld.uh	r4,lr[0x0]
8000601c:	80 00       	ld.sh	r0,r0[0x0]
8000601e:	a4 94       	st.b	r2[0x1],r4
80006020:	80 00       	ld.sh	r0,r0[0x0]
80006022:	47 ac       	lddsp	r12,sp[0x1e8]
80006024:	80 00       	ld.sh	r0,r0[0x0]
80006026:	a4 a4       	st.b	r2[0x2],r4
80006028:	fa ca f9 78 	sub	r10,sp,-1672
8000602c:	02 9b       	mov	r11,r1
8000602e:	08 9c       	mov	r12,r4
80006030:	f0 1f 00 4c 	mcall	80006160 <_vfprintf_r+0x1994>
80006034:	e0 81 03 8d 	brne	8000674e <_vfprintf_r+0x1f82>
80006038:	fa c3 f9 e0 	sub	r3,sp,-1568
8000603c:	40 4b       	lddsp	r11,sp[0x10]
8000603e:	21 0b       	sub	r11,16
80006040:	50 4b       	stdsp	sp[0x10],r11
80006042:	fa f9 06 90 	ld.w	r9,sp[1680]
80006046:	fa f8 06 8c 	ld.w	r8,sp[1676]
8000604a:	4c 7a       	lddpc	r10,80006164 <_vfprintf_r+0x1998>
8000604c:	40 4e       	lddsp	lr,sp[0x10]
8000604e:	59 0e       	cp.w	lr,16
80006050:	fe 99 ff d0 	brgt	80005ff0 <_vfprintf_r+0x1824>
80006054:	1c 09       	add	r9,lr
80006056:	2f f8       	sub	r8,-1
80006058:	87 0a       	st.w	r3[0x0],r10
8000605a:	fb 49 06 90 	st.w	sp[1680],r9
8000605e:	87 1e       	st.w	r3[0x4],lr
80006060:	fb 48 06 8c 	st.w	sp[1676],r8
80006064:	58 78       	cp.w	r8,7
80006066:	e0 89 00 04 	brgt	8000606e <_vfprintf_r+0x18a2>
8000606a:	2f 83       	sub	r3,-8
8000606c:	c0 b8       	rjmp	80006082 <_vfprintf_r+0x18b6>
8000606e:	fa ca f9 78 	sub	r10,sp,-1672
80006072:	02 9b       	mov	r11,r1
80006074:	08 9c       	mov	r12,r4
80006076:	f0 1f 00 3b 	mcall	80006160 <_vfprintf_r+0x1994>
8000607a:	e0 81 03 6a 	brne	8000674e <_vfprintf_r+0x1f82>
8000607e:	fa c3 f9 e0 	sub	r3,sp,-1568
80006082:	40 2c       	lddsp	r12,sp[0x8]
80006084:	04 1c       	sub	r12,r2
80006086:	50 2c       	stdsp	sp[0x8],r12
80006088:	58 0c       	cp.w	r12,0
8000608a:	e0 89 00 1f 	brgt	800060c8 <_vfprintf_r+0x18fc>
8000608e:	c3 d8       	rjmp	80006108 <_vfprintf_r+0x193c>
80006090:	2f 09       	sub	r9,-16
80006092:	2f f8       	sub	r8,-1
80006094:	4b 4b       	lddpc	r11,80006164 <_vfprintf_r+0x1998>
80006096:	31 0a       	mov	r10,16
80006098:	fb 49 06 90 	st.w	sp[1680],r9
8000609c:	87 0b       	st.w	r3[0x0],r11
8000609e:	87 1a       	st.w	r3[0x4],r10
800060a0:	fb 48 06 8c 	st.w	sp[1676],r8
800060a4:	58 78       	cp.w	r8,7
800060a6:	e0 89 00 04 	brgt	800060ae <_vfprintf_r+0x18e2>
800060aa:	2f 83       	sub	r3,-8
800060ac:	c0 b8       	rjmp	800060c2 <_vfprintf_r+0x18f6>
800060ae:	fa ca f9 78 	sub	r10,sp,-1672
800060b2:	02 9b       	mov	r11,r1
800060b4:	08 9c       	mov	r12,r4
800060b6:	f0 1f 00 2b 	mcall	80006160 <_vfprintf_r+0x1994>
800060ba:	e0 81 03 4a 	brne	8000674e <_vfprintf_r+0x1f82>
800060be:	fa c3 f9 e0 	sub	r3,sp,-1568
800060c2:	40 29       	lddsp	r9,sp[0x8]
800060c4:	21 09       	sub	r9,16
800060c6:	50 29       	stdsp	sp[0x8],r9
800060c8:	fa f9 06 90 	ld.w	r9,sp[1680]
800060cc:	fa f8 06 8c 	ld.w	r8,sp[1676]
800060d0:	4a 5a       	lddpc	r10,80006164 <_vfprintf_r+0x1998>
800060d2:	40 2e       	lddsp	lr,sp[0x8]
800060d4:	59 0e       	cp.w	lr,16
800060d6:	fe 99 ff dd 	brgt	80006090 <_vfprintf_r+0x18c4>
800060da:	1c 09       	add	r9,lr
800060dc:	2f f8       	sub	r8,-1
800060de:	87 0a       	st.w	r3[0x0],r10
800060e0:	fb 49 06 90 	st.w	sp[1680],r9
800060e4:	87 1e       	st.w	r3[0x4],lr
800060e6:	fb 48 06 8c 	st.w	sp[1676],r8
800060ea:	58 78       	cp.w	r8,7
800060ec:	e0 89 00 04 	brgt	800060f4 <_vfprintf_r+0x1928>
800060f0:	2f 83       	sub	r3,-8
800060f2:	c0 b8       	rjmp	80006108 <_vfprintf_r+0x193c>
800060f4:	fa ca f9 78 	sub	r10,sp,-1672
800060f8:	02 9b       	mov	r11,r1
800060fa:	08 9c       	mov	r12,r4
800060fc:	f0 1f 00 19 	mcall	80006160 <_vfprintf_r+0x1994>
80006100:	e0 81 03 27 	brne	8000674e <_vfprintf_r+0x1f82>
80006104:	fa c3 f9 e0 	sub	r3,sp,-1568
80006108:	ed b5 00 08 	bld	r5,0x8
8000610c:	c0 b0       	breq	80006122 <_vfprintf_r+0x1956>
8000610e:	fa f8 06 90 	ld.w	r8,sp[1680]
80006112:	87 12       	st.w	r3[0x4],r2
80006114:	87 06       	st.w	r3[0x0],r6
80006116:	f0 02 00 02 	add	r2,r8,r2
8000611a:	fb 42 06 90 	st.w	sp[1680],r2
8000611e:	e0 8f 01 db 	bral	800064d4 <_vfprintf_r+0x1d08>
80006122:	e0 40 00 65 	cp.w	r0,101
80006126:	e0 8a 01 dd 	brle	800064e0 <_vfprintf_r+0x1d14>
8000612a:	30 08       	mov	r8,0
8000612c:	30 09       	mov	r9,0
8000612e:	40 5b       	lddsp	r11,sp[0x14]
80006130:	40 7a       	lddsp	r10,sp[0x1c]
80006132:	f0 1f 00 0e 	mcall	80006168 <_vfprintf_r+0x199c>
80006136:	c7 e0       	breq	80006232 <_vfprintf_r+0x1a66>
80006138:	fa f8 06 90 	ld.w	r8,sp[1680]
8000613c:	48 c9       	lddpc	r9,8000616c <_vfprintf_r+0x19a0>
8000613e:	2f f8       	sub	r8,-1
80006140:	87 09       	st.w	r3[0x0],r9
80006142:	fb 48 06 90 	st.w	sp[1680],r8
80006146:	30 19       	mov	r9,1
80006148:	fa f8 06 8c 	ld.w	r8,sp[1676]
8000614c:	87 19       	st.w	r3[0x4],r9
8000614e:	2f f8       	sub	r8,-1
80006150:	fb 48 06 8c 	st.w	sp[1676],r8
80006154:	58 78       	cp.w	r8,7
80006156:	e0 89 00 0d 	brgt	80006170 <_vfprintf_r+0x19a4>
8000615a:	2f 83       	sub	r3,-8
8000615c:	c1 48       	rjmp	80006184 <_vfprintf_r+0x19b8>
8000615e:	00 00       	add	r0,r0
80006160:	80 00       	ld.sh	r0,r0[0x0]
80006162:	47 ac       	lddsp	r12,sp[0x1e8]
80006164:	80 00       	ld.sh	r0,r0[0x0]
80006166:	a4 a4       	st.b	r2[0x2],r4
80006168:	80 00       	ld.sh	r0,r0[0x0]
8000616a:	98 76       	ld.sh	r6,r12[0xe]
8000616c:	80 00       	ld.sh	r0,r0[0x0]
8000616e:	a4 90       	st.b	r2[0x1],r0
80006170:	fa ca f9 78 	sub	r10,sp,-1672
80006174:	02 9b       	mov	r11,r1
80006176:	08 9c       	mov	r12,r4
80006178:	f0 1f 00 78 	mcall	80006358 <_vfprintf_r+0x1b8c>
8000617c:	e0 81 02 e9 	brne	8000674e <_vfprintf_r+0x1f82>
80006180:	fa c3 f9 e0 	sub	r3,sp,-1568
80006184:	fa f8 06 ac 	ld.w	r8,sp[1708]
80006188:	40 6c       	lddsp	r12,sp[0x18]
8000618a:	18 38       	cp.w	r8,r12
8000618c:	c0 55       	brlt	80006196 <_vfprintf_r+0x19ca>
8000618e:	ed b5 00 00 	bld	r5,0x0
80006192:	e0 81 02 6d 	brne	8000666c <_vfprintf_r+0x1ea0>
80006196:	fa f8 06 90 	ld.w	r8,sp[1680]
8000619a:	2f f8       	sub	r8,-1
8000619c:	40 cb       	lddsp	r11,sp[0x30]
8000619e:	fb 48 06 90 	st.w	sp[1680],r8
800061a2:	30 19       	mov	r9,1
800061a4:	fa f8 06 8c 	ld.w	r8,sp[1676]
800061a8:	87 0b       	st.w	r3[0x0],r11
800061aa:	2f f8       	sub	r8,-1
800061ac:	87 19       	st.w	r3[0x4],r9
800061ae:	fb 48 06 8c 	st.w	sp[1676],r8
800061b2:	58 78       	cp.w	r8,7
800061b4:	e0 89 00 04 	brgt	800061bc <_vfprintf_r+0x19f0>
800061b8:	2f 83       	sub	r3,-8
800061ba:	c0 b8       	rjmp	800061d0 <_vfprintf_r+0x1a04>
800061bc:	fa ca f9 78 	sub	r10,sp,-1672
800061c0:	02 9b       	mov	r11,r1
800061c2:	08 9c       	mov	r12,r4
800061c4:	f0 1f 00 65 	mcall	80006358 <_vfprintf_r+0x1b8c>
800061c8:	e0 81 02 c3 	brne	8000674e <_vfprintf_r+0x1f82>
800061cc:	fa c3 f9 e0 	sub	r3,sp,-1568
800061d0:	40 66       	lddsp	r6,sp[0x18]
800061d2:	20 16       	sub	r6,1
800061d4:	58 06       	cp.w	r6,0
800061d6:	e0 89 00 1d 	brgt	80006210 <_vfprintf_r+0x1a44>
800061da:	e0 8f 02 49 	bral	8000666c <_vfprintf_r+0x1ea0>
800061de:	2f 09       	sub	r9,-16
800061e0:	2f f8       	sub	r8,-1
800061e2:	fb 49 06 90 	st.w	sp[1680],r9
800061e6:	87 02       	st.w	r3[0x0],r2
800061e8:	87 10       	st.w	r3[0x4],r0
800061ea:	fb 48 06 8c 	st.w	sp[1676],r8
800061ee:	58 78       	cp.w	r8,7
800061f0:	e0 89 00 04 	brgt	800061f8 <_vfprintf_r+0x1a2c>
800061f4:	2f 83       	sub	r3,-8
800061f6:	c0 b8       	rjmp	8000620c <_vfprintf_r+0x1a40>
800061f8:	fa ca f9 78 	sub	r10,sp,-1672
800061fc:	02 9b       	mov	r11,r1
800061fe:	08 9c       	mov	r12,r4
80006200:	f0 1f 00 56 	mcall	80006358 <_vfprintf_r+0x1b8c>
80006204:	e0 81 02 a5 	brne	8000674e <_vfprintf_r+0x1f82>
80006208:	fa c3 f9 e0 	sub	r3,sp,-1568
8000620c:	21 06       	sub	r6,16
8000620e:	c0 38       	rjmp	80006214 <_vfprintf_r+0x1a48>
80006210:	4d 32       	lddpc	r2,8000635c <_vfprintf_r+0x1b90>
80006212:	31 00       	mov	r0,16
80006214:	fa f9 06 90 	ld.w	r9,sp[1680]
80006218:	fa f8 06 8c 	ld.w	r8,sp[1676]
8000621c:	4d 0a       	lddpc	r10,8000635c <_vfprintf_r+0x1b90>
8000621e:	59 06       	cp.w	r6,16
80006220:	fe 99 ff df 	brgt	800061de <_vfprintf_r+0x1a12>
80006224:	0c 09       	add	r9,r6
80006226:	87 0a       	st.w	r3[0x0],r10
80006228:	fb 49 06 90 	st.w	sp[1680],r9
8000622c:	2f f8       	sub	r8,-1
8000622e:	87 16       	st.w	r3[0x4],r6
80006230:	c5 59       	rjmp	800064da <_vfprintf_r+0x1d0e>
80006232:	fa fa 06 ac 	ld.w	r10,sp[1708]
80006236:	58 0a       	cp.w	r10,0
80006238:	e0 89 00 96 	brgt	80006364 <_vfprintf_r+0x1b98>
8000623c:	fa f8 06 90 	ld.w	r8,sp[1680]
80006240:	4c 89       	lddpc	r9,80006360 <_vfprintf_r+0x1b94>
80006242:	2f f8       	sub	r8,-1
80006244:	87 09       	st.w	r3[0x0],r9
80006246:	fb 48 06 90 	st.w	sp[1680],r8
8000624a:	30 19       	mov	r9,1
8000624c:	fa f8 06 8c 	ld.w	r8,sp[1676]
80006250:	87 19       	st.w	r3[0x4],r9
80006252:	2f f8       	sub	r8,-1
80006254:	fb 48 06 8c 	st.w	sp[1676],r8
80006258:	58 78       	cp.w	r8,7
8000625a:	e0 89 00 04 	brgt	80006262 <_vfprintf_r+0x1a96>
8000625e:	2f 83       	sub	r3,-8
80006260:	c0 b8       	rjmp	80006276 <_vfprintf_r+0x1aaa>
80006262:	fa ca f9 78 	sub	r10,sp,-1672
80006266:	02 9b       	mov	r11,r1
80006268:	08 9c       	mov	r12,r4
8000626a:	f0 1f 00 3c 	mcall	80006358 <_vfprintf_r+0x1b8c>
8000626e:	e0 81 02 70 	brne	8000674e <_vfprintf_r+0x1f82>
80006272:	fa c3 f9 e0 	sub	r3,sp,-1568
80006276:	fa f8 06 ac 	ld.w	r8,sp[1708]
8000627a:	58 08       	cp.w	r8,0
8000627c:	c0 81       	brne	8000628c <_vfprintf_r+0x1ac0>
8000627e:	40 6a       	lddsp	r10,sp[0x18]
80006280:	58 0a       	cp.w	r10,0
80006282:	c0 51       	brne	8000628c <_vfprintf_r+0x1ac0>
80006284:	ed b5 00 00 	bld	r5,0x0
80006288:	e0 81 01 f2 	brne	8000666c <_vfprintf_r+0x1ea0>
8000628c:	40 c9       	lddsp	r9,sp[0x30]
8000628e:	fa f8 06 90 	ld.w	r8,sp[1680]
80006292:	2f f8       	sub	r8,-1
80006294:	87 09       	st.w	r3[0x0],r9
80006296:	fb 48 06 90 	st.w	sp[1680],r8
8000629a:	30 19       	mov	r9,1
8000629c:	fa f8 06 8c 	ld.w	r8,sp[1676]
800062a0:	87 19       	st.w	r3[0x4],r9
800062a2:	2f f8       	sub	r8,-1
800062a4:	fb 48 06 8c 	st.w	sp[1676],r8
800062a8:	58 78       	cp.w	r8,7
800062aa:	e0 89 00 04 	brgt	800062b2 <_vfprintf_r+0x1ae6>
800062ae:	2f 83       	sub	r3,-8
800062b0:	c0 b8       	rjmp	800062c6 <_vfprintf_r+0x1afa>
800062b2:	fa ca f9 78 	sub	r10,sp,-1672
800062b6:	02 9b       	mov	r11,r1
800062b8:	08 9c       	mov	r12,r4
800062ba:	f0 1f 00 28 	mcall	80006358 <_vfprintf_r+0x1b8c>
800062be:	e0 81 02 48 	brne	8000674e <_vfprintf_r+0x1f82>
800062c2:	fa c3 f9 e0 	sub	r3,sp,-1568
800062c6:	fa f2 06 ac 	ld.w	r2,sp[1708]
800062ca:	5c 32       	neg	r2
800062cc:	58 02       	cp.w	r2,0
800062ce:	e0 89 00 1d 	brgt	80006308 <_vfprintf_r+0x1b3c>
800062d2:	c3 b8       	rjmp	80006348 <_vfprintf_r+0x1b7c>
800062d4:	2f 09       	sub	r9,-16
800062d6:	2f f8       	sub	r8,-1
800062d8:	31 0e       	mov	lr,16
800062da:	fb 49 06 90 	st.w	sp[1680],r9
800062de:	87 00       	st.w	r3[0x0],r0
800062e0:	87 1e       	st.w	r3[0x4],lr
800062e2:	fb 48 06 8c 	st.w	sp[1676],r8
800062e6:	58 78       	cp.w	r8,7
800062e8:	e0 89 00 04 	brgt	800062f0 <_vfprintf_r+0x1b24>
800062ec:	2f 83       	sub	r3,-8
800062ee:	c0 b8       	rjmp	80006304 <_vfprintf_r+0x1b38>
800062f0:	fa ca f9 78 	sub	r10,sp,-1672
800062f4:	02 9b       	mov	r11,r1
800062f6:	08 9c       	mov	r12,r4
800062f8:	f0 1f 00 18 	mcall	80006358 <_vfprintf_r+0x1b8c>
800062fc:	e0 81 02 29 	brne	8000674e <_vfprintf_r+0x1f82>
80006300:	fa c3 f9 e0 	sub	r3,sp,-1568
80006304:	21 02       	sub	r2,16
80006306:	c0 28       	rjmp	8000630a <_vfprintf_r+0x1b3e>
80006308:	49 50       	lddpc	r0,8000635c <_vfprintf_r+0x1b90>
8000630a:	fa f9 06 90 	ld.w	r9,sp[1680]
8000630e:	fa f8 06 8c 	ld.w	r8,sp[1676]
80006312:	49 3a       	lddpc	r10,8000635c <_vfprintf_r+0x1b90>
80006314:	59 02       	cp.w	r2,16
80006316:	fe 99 ff df 	brgt	800062d4 <_vfprintf_r+0x1b08>
8000631a:	04 09       	add	r9,r2
8000631c:	2f f8       	sub	r8,-1
8000631e:	87 0a       	st.w	r3[0x0],r10
80006320:	fb 49 06 90 	st.w	sp[1680],r9
80006324:	87 12       	st.w	r3[0x4],r2
80006326:	fb 48 06 8c 	st.w	sp[1676],r8
8000632a:	58 78       	cp.w	r8,7
8000632c:	e0 89 00 04 	brgt	80006334 <_vfprintf_r+0x1b68>
80006330:	2f 83       	sub	r3,-8
80006332:	c0 b8       	rjmp	80006348 <_vfprintf_r+0x1b7c>
80006334:	fa ca f9 78 	sub	r10,sp,-1672
80006338:	02 9b       	mov	r11,r1
8000633a:	08 9c       	mov	r12,r4
8000633c:	f0 1f 00 07 	mcall	80006358 <_vfprintf_r+0x1b8c>
80006340:	e0 81 02 07 	brne	8000674e <_vfprintf_r+0x1f82>
80006344:	fa c3 f9 e0 	sub	r3,sp,-1568
80006348:	40 6c       	lddsp	r12,sp[0x18]
8000634a:	fa f8 06 90 	ld.w	r8,sp[1680]
8000634e:	87 06       	st.w	r3[0x0],r6
80006350:	87 1c       	st.w	r3[0x4],r12
80006352:	18 08       	add	r8,r12
80006354:	cb e8       	rjmp	800064d0 <_vfprintf_r+0x1d04>
80006356:	00 00       	add	r0,r0
80006358:	80 00       	ld.sh	r0,r0[0x0]
8000635a:	47 ac       	lddsp	r12,sp[0x1e8]
8000635c:	80 00       	ld.sh	r0,r0[0x0]
8000635e:	a4 a4       	st.b	r2[0x2],r4
80006360:	80 00       	ld.sh	r0,r0[0x0]
80006362:	a4 90       	st.b	r2[0x1],r0
80006364:	fa f9 06 90 	ld.w	r9,sp[1680]
80006368:	fa f8 06 8c 	ld.w	r8,sp[1676]
8000636c:	40 6b       	lddsp	r11,sp[0x18]
8000636e:	16 3a       	cp.w	r10,r11
80006370:	c6 d5       	brlt	8000644a <_vfprintf_r+0x1c7e>
80006372:	16 09       	add	r9,r11
80006374:	2f f8       	sub	r8,-1
80006376:	87 06       	st.w	r3[0x0],r6
80006378:	fb 49 06 90 	st.w	sp[1680],r9
8000637c:	87 1b       	st.w	r3[0x4],r11
8000637e:	fb 48 06 8c 	st.w	sp[1676],r8
80006382:	58 78       	cp.w	r8,7
80006384:	e0 89 00 04 	brgt	8000638c <_vfprintf_r+0x1bc0>
80006388:	2f 83       	sub	r3,-8
8000638a:	c0 b8       	rjmp	800063a0 <_vfprintf_r+0x1bd4>
8000638c:	fa ca f9 78 	sub	r10,sp,-1672
80006390:	02 9b       	mov	r11,r1
80006392:	08 9c       	mov	r12,r4
80006394:	f0 1f 00 6f 	mcall	80006550 <_vfprintf_r+0x1d84>
80006398:	e0 81 01 db 	brne	8000674e <_vfprintf_r+0x1f82>
8000639c:	fa c3 f9 e0 	sub	r3,sp,-1568
800063a0:	fa f6 06 ac 	ld.w	r6,sp[1708]
800063a4:	40 6a       	lddsp	r10,sp[0x18]
800063a6:	14 16       	sub	r6,r10
800063a8:	58 06       	cp.w	r6,0
800063aa:	e0 89 00 1c 	brgt	800063e2 <_vfprintf_r+0x1c16>
800063ae:	c3 b8       	rjmp	80006424 <_vfprintf_r+0x1c58>
800063b0:	2f 09       	sub	r9,-16
800063b2:	2f f8       	sub	r8,-1
800063b4:	fb 49 06 90 	st.w	sp[1680],r9
800063b8:	87 02       	st.w	r3[0x0],r2
800063ba:	87 10       	st.w	r3[0x4],r0
800063bc:	fb 48 06 8c 	st.w	sp[1676],r8
800063c0:	58 78       	cp.w	r8,7
800063c2:	e0 89 00 04 	brgt	800063ca <_vfprintf_r+0x1bfe>
800063c6:	2f 83       	sub	r3,-8
800063c8:	c0 b8       	rjmp	800063de <_vfprintf_r+0x1c12>
800063ca:	fa ca f9 78 	sub	r10,sp,-1672
800063ce:	02 9b       	mov	r11,r1
800063d0:	08 9c       	mov	r12,r4
800063d2:	f0 1f 00 60 	mcall	80006550 <_vfprintf_r+0x1d84>
800063d6:	e0 81 01 bc 	brne	8000674e <_vfprintf_r+0x1f82>
800063da:	fa c3 f9 e0 	sub	r3,sp,-1568
800063de:	21 06       	sub	r6,16
800063e0:	c0 38       	rjmp	800063e6 <_vfprintf_r+0x1c1a>
800063e2:	4d d2       	lddpc	r2,80006554 <_vfprintf_r+0x1d88>
800063e4:	31 00       	mov	r0,16
800063e6:	fa f9 06 90 	ld.w	r9,sp[1680]
800063ea:	fa f8 06 8c 	ld.w	r8,sp[1676]
800063ee:	4d aa       	lddpc	r10,80006554 <_vfprintf_r+0x1d88>
800063f0:	59 06       	cp.w	r6,16
800063f2:	fe 99 ff df 	brgt	800063b0 <_vfprintf_r+0x1be4>
800063f6:	0c 09       	add	r9,r6
800063f8:	2f f8       	sub	r8,-1
800063fa:	87 0a       	st.w	r3[0x0],r10
800063fc:	fb 49 06 90 	st.w	sp[1680],r9
80006400:	87 16       	st.w	r3[0x4],r6
80006402:	fb 48 06 8c 	st.w	sp[1676],r8
80006406:	58 78       	cp.w	r8,7
80006408:	e0 89 00 04 	brgt	80006410 <_vfprintf_r+0x1c44>
8000640c:	2f 83       	sub	r3,-8
8000640e:	c0 b8       	rjmp	80006424 <_vfprintf_r+0x1c58>
80006410:	fa ca f9 78 	sub	r10,sp,-1672
80006414:	02 9b       	mov	r11,r1
80006416:	08 9c       	mov	r12,r4
80006418:	f0 1f 00 4e 	mcall	80006550 <_vfprintf_r+0x1d84>
8000641c:	e0 81 01 99 	brne	8000674e <_vfprintf_r+0x1f82>
80006420:	fa c3 f9 e0 	sub	r3,sp,-1568
80006424:	ed b5 00 00 	bld	r5,0x0
80006428:	e0 81 01 22 	brne	8000666c <_vfprintf_r+0x1ea0>
8000642c:	40 c9       	lddsp	r9,sp[0x30]
8000642e:	fa f8 06 90 	ld.w	r8,sp[1680]
80006432:	2f f8       	sub	r8,-1
80006434:	87 09       	st.w	r3[0x0],r9
80006436:	fb 48 06 90 	st.w	sp[1680],r8
8000643a:	30 19       	mov	r9,1
8000643c:	fa f8 06 8c 	ld.w	r8,sp[1676]
80006440:	87 19       	st.w	r3[0x4],r9
80006442:	2f f8       	sub	r8,-1
80006444:	fb 48 06 8c 	st.w	sp[1676],r8
80006448:	c0 49       	rjmp	80006650 <_vfprintf_r+0x1e84>
8000644a:	14 09       	add	r9,r10
8000644c:	2f f8       	sub	r8,-1
8000644e:	fb 49 06 90 	st.w	sp[1680],r9
80006452:	87 06       	st.w	r3[0x0],r6
80006454:	87 1a       	st.w	r3[0x4],r10
80006456:	fb 48 06 8c 	st.w	sp[1676],r8
8000645a:	58 78       	cp.w	r8,7
8000645c:	e0 89 00 04 	brgt	80006464 <_vfprintf_r+0x1c98>
80006460:	2f 83       	sub	r3,-8
80006462:	c0 b8       	rjmp	80006478 <_vfprintf_r+0x1cac>
80006464:	fa ca f9 78 	sub	r10,sp,-1672
80006468:	02 9b       	mov	r11,r1
8000646a:	08 9c       	mov	r12,r4
8000646c:	f0 1f 00 39 	mcall	80006550 <_vfprintf_r+0x1d84>
80006470:	e0 81 01 6f 	brne	8000674e <_vfprintf_r+0x1f82>
80006474:	fa c3 f9 e0 	sub	r3,sp,-1568
80006478:	40 c8       	lddsp	r8,sp[0x30]
8000647a:	87 08       	st.w	r3[0x0],r8
8000647c:	fa f8 06 90 	ld.w	r8,sp[1680]
80006480:	2f f8       	sub	r8,-1
80006482:	30 19       	mov	r9,1
80006484:	fb 48 06 90 	st.w	sp[1680],r8
80006488:	87 19       	st.w	r3[0x4],r9
8000648a:	fa f8 06 8c 	ld.w	r8,sp[1676]
8000648e:	2f f8       	sub	r8,-1
80006490:	fb 48 06 8c 	st.w	sp[1676],r8
80006494:	fa f2 06 ac 	ld.w	r2,sp[1708]
80006498:	58 78       	cp.w	r8,7
8000649a:	e0 89 00 04 	brgt	800064a2 <_vfprintf_r+0x1cd6>
8000649e:	2f 83       	sub	r3,-8
800064a0:	c0 b8       	rjmp	800064b6 <_vfprintf_r+0x1cea>
800064a2:	fa ca f9 78 	sub	r10,sp,-1672
800064a6:	02 9b       	mov	r11,r1
800064a8:	08 9c       	mov	r12,r4
800064aa:	f0 1f 00 2a 	mcall	80006550 <_vfprintf_r+0x1d84>
800064ae:	e0 81 01 50 	brne	8000674e <_vfprintf_r+0x1f82>
800064b2:	fa c3 f9 e0 	sub	r3,sp,-1568
800064b6:	04 06       	add	r6,r2
800064b8:	fa f8 06 ac 	ld.w	r8,sp[1708]
800064bc:	87 06       	st.w	r3[0x0],r6
800064be:	fa f9 06 90 	ld.w	r9,sp[1680]
800064c2:	40 66       	lddsp	r6,sp[0x18]
800064c4:	40 6e       	lddsp	lr,sp[0x18]
800064c6:	10 16       	sub	r6,r8
800064c8:	f2 08 01 08 	sub	r8,r9,r8
800064cc:	87 16       	st.w	r3[0x4],r6
800064ce:	1c 08       	add	r8,lr
800064d0:	fb 48 06 90 	st.w	sp[1680],r8
800064d4:	fa f8 06 8c 	ld.w	r8,sp[1676]
800064d8:	2f f8       	sub	r8,-1
800064da:	fb 48 06 8c 	st.w	sp[1676],r8
800064de:	cb 98       	rjmp	80006650 <_vfprintf_r+0x1e84>
800064e0:	40 6c       	lddsp	r12,sp[0x18]
800064e2:	58 1c       	cp.w	r12,1
800064e4:	e0 89 00 06 	brgt	800064f0 <_vfprintf_r+0x1d24>
800064e8:	ed b5 00 00 	bld	r5,0x0
800064ec:	e0 81 00 87 	brne	800065fa <_vfprintf_r+0x1e2e>
800064f0:	fa f8 06 90 	ld.w	r8,sp[1680]
800064f4:	2f f8       	sub	r8,-1
800064f6:	30 19       	mov	r9,1
800064f8:	fb 48 06 90 	st.w	sp[1680],r8
800064fc:	87 06       	st.w	r3[0x0],r6
800064fe:	fa f8 06 8c 	ld.w	r8,sp[1676]
80006502:	87 19       	st.w	r3[0x4],r9
80006504:	2f f8       	sub	r8,-1
80006506:	fb 48 06 8c 	st.w	sp[1676],r8
8000650a:	58 78       	cp.w	r8,7
8000650c:	e0 89 00 04 	brgt	80006514 <_vfprintf_r+0x1d48>
80006510:	2f 83       	sub	r3,-8
80006512:	c0 b8       	rjmp	80006528 <_vfprintf_r+0x1d5c>
80006514:	fa ca f9 78 	sub	r10,sp,-1672
80006518:	02 9b       	mov	r11,r1
8000651a:	08 9c       	mov	r12,r4
8000651c:	f0 1f 00 0d 	mcall	80006550 <_vfprintf_r+0x1d84>
80006520:	e0 81 01 17 	brne	8000674e <_vfprintf_r+0x1f82>
80006524:	fa c3 f9 e0 	sub	r3,sp,-1568
80006528:	fa f8 06 90 	ld.w	r8,sp[1680]
8000652c:	2f f8       	sub	r8,-1
8000652e:	40 cb       	lddsp	r11,sp[0x30]
80006530:	fb 48 06 90 	st.w	sp[1680],r8
80006534:	30 19       	mov	r9,1
80006536:	fa f8 06 8c 	ld.w	r8,sp[1676]
8000653a:	87 0b       	st.w	r3[0x0],r11
8000653c:	2f f8       	sub	r8,-1
8000653e:	87 19       	st.w	r3[0x4],r9
80006540:	fb 48 06 8c 	st.w	sp[1676],r8
80006544:	58 78       	cp.w	r8,7
80006546:	e0 89 00 09 	brgt	80006558 <_vfprintf_r+0x1d8c>
8000654a:	2f 83       	sub	r3,-8
8000654c:	c1 08       	rjmp	8000656c <_vfprintf_r+0x1da0>
8000654e:	00 00       	add	r0,r0
80006550:	80 00       	ld.sh	r0,r0[0x0]
80006552:	47 ac       	lddsp	r12,sp[0x1e8]
80006554:	80 00       	ld.sh	r0,r0[0x0]
80006556:	a4 a4       	st.b	r2[0x2],r4
80006558:	fa ca f9 78 	sub	r10,sp,-1672
8000655c:	02 9b       	mov	r11,r1
8000655e:	08 9c       	mov	r12,r4
80006560:	f0 1f 00 6f 	mcall	8000671c <_vfprintf_r+0x1f50>
80006564:	e0 81 00 f5 	brne	8000674e <_vfprintf_r+0x1f82>
80006568:	fa c3 f9 e0 	sub	r3,sp,-1568
8000656c:	30 08       	mov	r8,0
8000656e:	30 09       	mov	r9,0
80006570:	40 5b       	lddsp	r11,sp[0x14]
80006572:	40 7a       	lddsp	r10,sp[0x1c]
80006574:	f0 1f 00 6b 	mcall	80006720 <_vfprintf_r+0x1f54>
80006578:	40 68       	lddsp	r8,sp[0x18]
8000657a:	20 18       	sub	r8,1
8000657c:	58 0c       	cp.w	r12,0
8000657e:	c0 d1       	brne	80006598 <_vfprintf_r+0x1dcc>
80006580:	2f f6       	sub	r6,-1
80006582:	87 18       	st.w	r3[0x4],r8
80006584:	87 06       	st.w	r3[0x0],r6
80006586:	fa f6 06 90 	ld.w	r6,sp[1680]
8000658a:	10 06       	add	r6,r8
8000658c:	fa f8 06 8c 	ld.w	r8,sp[1676]
80006590:	fb 46 06 90 	st.w	sp[1680],r6
80006594:	2f f8       	sub	r8,-1
80006596:	c2 f8       	rjmp	800065f4 <_vfprintf_r+0x1e28>
80006598:	10 96       	mov	r6,r8
8000659a:	58 08       	cp.w	r8,0
8000659c:	e0 89 00 1c 	brgt	800065d4 <_vfprintf_r+0x1e08>
800065a0:	c4 98       	rjmp	80006632 <_vfprintf_r+0x1e66>
800065a2:	2f 09       	sub	r9,-16
800065a4:	2f f8       	sub	r8,-1
800065a6:	fb 49 06 90 	st.w	sp[1680],r9
800065aa:	87 02       	st.w	r3[0x0],r2
800065ac:	87 10       	st.w	r3[0x4],r0
800065ae:	fb 48 06 8c 	st.w	sp[1676],r8
800065b2:	58 78       	cp.w	r8,7
800065b4:	e0 89 00 04 	brgt	800065bc <_vfprintf_r+0x1df0>
800065b8:	2f 83       	sub	r3,-8
800065ba:	c0 b8       	rjmp	800065d0 <_vfprintf_r+0x1e04>
800065bc:	fa ca f9 78 	sub	r10,sp,-1672
800065c0:	02 9b       	mov	r11,r1
800065c2:	08 9c       	mov	r12,r4
800065c4:	f0 1f 00 56 	mcall	8000671c <_vfprintf_r+0x1f50>
800065c8:	e0 81 00 c3 	brne	8000674e <_vfprintf_r+0x1f82>
800065cc:	fa c3 f9 e0 	sub	r3,sp,-1568
800065d0:	21 06       	sub	r6,16
800065d2:	c0 38       	rjmp	800065d8 <_vfprintf_r+0x1e0c>
800065d4:	4d 42       	lddpc	r2,80006724 <_vfprintf_r+0x1f58>
800065d6:	31 00       	mov	r0,16
800065d8:	fa f9 06 90 	ld.w	r9,sp[1680]
800065dc:	fa f8 06 8c 	ld.w	r8,sp[1676]
800065e0:	4d 1a       	lddpc	r10,80006724 <_vfprintf_r+0x1f58>
800065e2:	59 06       	cp.w	r6,16
800065e4:	fe 99 ff df 	brgt	800065a2 <_vfprintf_r+0x1dd6>
800065e8:	0c 09       	add	r9,r6
800065ea:	87 0a       	st.w	r3[0x0],r10
800065ec:	fb 49 06 90 	st.w	sp[1680],r9
800065f0:	2f f8       	sub	r8,-1
800065f2:	87 16       	st.w	r3[0x4],r6
800065f4:	fb 48 06 8c 	st.w	sp[1676],r8
800065f8:	c0 e8       	rjmp	80006614 <_vfprintf_r+0x1e48>
800065fa:	fa f8 06 90 	ld.w	r8,sp[1680]
800065fe:	2f f8       	sub	r8,-1
80006600:	30 19       	mov	r9,1
80006602:	fb 48 06 90 	st.w	sp[1680],r8
80006606:	87 06       	st.w	r3[0x0],r6
80006608:	fa f8 06 8c 	ld.w	r8,sp[1676]
8000660c:	87 19       	st.w	r3[0x4],r9
8000660e:	2f f8       	sub	r8,-1
80006610:	fb 48 06 8c 	st.w	sp[1676],r8
80006614:	58 78       	cp.w	r8,7
80006616:	e0 89 00 04 	brgt	8000661e <_vfprintf_r+0x1e52>
8000661a:	2f 83       	sub	r3,-8
8000661c:	c0 b8       	rjmp	80006632 <_vfprintf_r+0x1e66>
8000661e:	fa ca f9 78 	sub	r10,sp,-1672
80006622:	02 9b       	mov	r11,r1
80006624:	08 9c       	mov	r12,r4
80006626:	f0 1f 00 3e 	mcall	8000671c <_vfprintf_r+0x1f50>
8000662a:	e0 81 00 92 	brne	8000674e <_vfprintf_r+0x1f82>
8000662e:	fa c3 f9 e0 	sub	r3,sp,-1568
80006632:	40 ea       	lddsp	r10,sp[0x38]
80006634:	fa f8 06 90 	ld.w	r8,sp[1680]
80006638:	14 08       	add	r8,r10
8000663a:	fa c9 f9 64 	sub	r9,sp,-1692
8000663e:	fb 48 06 90 	st.w	sp[1680],r8
80006642:	87 1a       	st.w	r3[0x4],r10
80006644:	fa f8 06 8c 	ld.w	r8,sp[1676]
80006648:	87 09       	st.w	r3[0x0],r9
8000664a:	2f f8       	sub	r8,-1
8000664c:	fb 48 06 8c 	st.w	sp[1676],r8
80006650:	58 78       	cp.w	r8,7
80006652:	e0 89 00 04 	brgt	8000665a <_vfprintf_r+0x1e8e>
80006656:	2f 83       	sub	r3,-8
80006658:	c0 a8       	rjmp	8000666c <_vfprintf_r+0x1ea0>
8000665a:	fa ca f9 78 	sub	r10,sp,-1672
8000665e:	02 9b       	mov	r11,r1
80006660:	08 9c       	mov	r12,r4
80006662:	f0 1f 00 2f 	mcall	8000671c <_vfprintf_r+0x1f50>
80006666:	c7 41       	brne	8000674e <_vfprintf_r+0x1f82>
80006668:	fa c3 f9 e0 	sub	r3,sp,-1568
8000666c:	e2 15 00 04 	andl	r5,0x4,COH
80006670:	c3 d0       	breq	800066ea <_vfprintf_r+0x1f1e>
80006672:	40 86       	lddsp	r6,sp[0x20]
80006674:	40 39       	lddsp	r9,sp[0xc]
80006676:	12 16       	sub	r6,r9
80006678:	58 06       	cp.w	r6,0
8000667a:	e0 89 00 1a 	brgt	800066ae <_vfprintf_r+0x1ee2>
8000667e:	c3 68       	rjmp	800066ea <_vfprintf_r+0x1f1e>
80006680:	2f 09       	sub	r9,-16
80006682:	2f f8       	sub	r8,-1
80006684:	fb 49 06 90 	st.w	sp[1680],r9
80006688:	87 05       	st.w	r3[0x0],r5
8000668a:	87 12       	st.w	r3[0x4],r2
8000668c:	fb 48 06 8c 	st.w	sp[1676],r8
80006690:	58 78       	cp.w	r8,7
80006692:	e0 89 00 04 	brgt	8000669a <_vfprintf_r+0x1ece>
80006696:	2f 83       	sub	r3,-8
80006698:	c0 98       	rjmp	800066aa <_vfprintf_r+0x1ede>
8000669a:	00 9a       	mov	r10,r0
8000669c:	02 9b       	mov	r11,r1
8000669e:	08 9c       	mov	r12,r4
800066a0:	f0 1f 00 1f 	mcall	8000671c <_vfprintf_r+0x1f50>
800066a4:	c5 51       	brne	8000674e <_vfprintf_r+0x1f82>
800066a6:	fa c3 f9 e0 	sub	r3,sp,-1568
800066aa:	21 06       	sub	r6,16
800066ac:	c0 58       	rjmp	800066b6 <_vfprintf_r+0x1eea>
800066ae:	49 f5       	lddpc	r5,80006728 <_vfprintf_r+0x1f5c>
800066b0:	31 02       	mov	r2,16
800066b2:	fa c0 f9 78 	sub	r0,sp,-1672
800066b6:	fa f9 06 90 	ld.w	r9,sp[1680]
800066ba:	fa f8 06 8c 	ld.w	r8,sp[1676]
800066be:	49 ba       	lddpc	r10,80006728 <_vfprintf_r+0x1f5c>
800066c0:	59 06       	cp.w	r6,16
800066c2:	fe 99 ff df 	brgt	80006680 <_vfprintf_r+0x1eb4>
800066c6:	0c 09       	add	r9,r6
800066c8:	2f f8       	sub	r8,-1
800066ca:	87 0a       	st.w	r3[0x0],r10
800066cc:	87 16       	st.w	r3[0x4],r6
800066ce:	fb 49 06 90 	st.w	sp[1680],r9
800066d2:	fb 48 06 8c 	st.w	sp[1676],r8
800066d6:	58 78       	cp.w	r8,7
800066d8:	e0 8a 00 09 	brle	800066ea <_vfprintf_r+0x1f1e>
800066dc:	fa ca f9 78 	sub	r10,sp,-1672
800066e0:	02 9b       	mov	r11,r1
800066e2:	08 9c       	mov	r12,r4
800066e4:	f0 1f 00 0e 	mcall	8000671c <_vfprintf_r+0x1f50>
800066e8:	c3 31       	brne	8000674e <_vfprintf_r+0x1f82>
800066ea:	40 bc       	lddsp	r12,sp[0x2c]
800066ec:	40 36       	lddsp	r6,sp[0xc]
800066ee:	40 8e       	lddsp	lr,sp[0x20]
800066f0:	ec 0e 0c 48 	max	r8,r6,lr
800066f4:	10 0c       	add	r12,r8
800066f6:	50 bc       	stdsp	sp[0x2c],r12
800066f8:	fa f8 06 90 	ld.w	r8,sp[1680]
800066fc:	58 08       	cp.w	r8,0
800066fe:	c0 80       	breq	8000670e <_vfprintf_r+0x1f42>
80006700:	fa ca f9 78 	sub	r10,sp,-1672
80006704:	02 9b       	mov	r11,r1
80006706:	08 9c       	mov	r12,r4
80006708:	f0 1f 00 05 	mcall	8000671c <_vfprintf_r+0x1f50>
8000670c:	c2 11       	brne	8000674e <_vfprintf_r+0x1f82>
8000670e:	30 0b       	mov	r11,0
80006710:	fa c3 f9 e0 	sub	r3,sp,-1568
80006714:	fb 4b 06 8c 	st.w	sp[1676],r11
80006718:	fe 9f f0 e6 	bral	800048e4 <_vfprintf_r+0x118>
8000671c:	80 00       	ld.sh	r0,r0[0x0]
8000671e:	47 ac       	lddsp	r12,sp[0x1e8]
80006720:	80 00       	ld.sh	r0,r0[0x0]
80006722:	98 76       	ld.sh	r6,r12[0xe]
80006724:	80 00       	ld.sh	r0,r0[0x0]
80006726:	a4 a4       	st.b	r2[0x2],r4
80006728:	80 00       	ld.sh	r0,r0[0x0]
8000672a:	a4 94       	st.b	r2[0x1],r4
8000672c:	08 95       	mov	r5,r4
8000672e:	fa f8 06 90 	ld.w	r8,sp[1680]
80006732:	58 08       	cp.w	r8,0
80006734:	c0 80       	breq	80006744 <_vfprintf_r+0x1f78>
80006736:	08 9c       	mov	r12,r4
80006738:	fa ca f9 78 	sub	r10,sp,-1672
8000673c:	02 9b       	mov	r11,r1
8000673e:	f0 1f 00 0a 	mcall	80006764 <_vfprintf_r+0x1f98>
80006742:	c0 61       	brne	8000674e <_vfprintf_r+0x1f82>
80006744:	30 08       	mov	r8,0
80006746:	fb 48 06 8c 	st.w	sp[1676],r8
8000674a:	c0 28       	rjmp	8000674e <_vfprintf_r+0x1f82>
8000674c:	40 41       	lddsp	r1,sp[0x10]
8000674e:	82 68       	ld.sh	r8,r1[0xc]
80006750:	ed b8 00 06 	bld	r8,0x6
80006754:	c0 31       	brne	8000675a <_vfprintf_r+0x1f8e>
80006756:	3f fa       	mov	r10,-1
80006758:	50 ba       	stdsp	sp[0x2c],r10
8000675a:	40 bc       	lddsp	r12,sp[0x2c]
8000675c:	fe 3d f9 44 	sub	sp,-1724
80006760:	d8 32       	popm	r0-r7,pc
80006762:	00 00       	add	r0,r0
80006764:	80 00       	ld.sh	r0,r0[0x0]
80006766:	47 ac       	lddsp	r12,sp[0x1e8]

80006768 <_vsnprintf_r>:
80006768:	d4 21       	pushm	r4-r7,lr
8000676a:	21 7d       	sub	sp,92
8000676c:	14 97       	mov	r7,r10
8000676e:	18 96       	mov	r6,r12
80006770:	12 9a       	mov	r10,r9
80006772:	58 07       	cp.w	r7,0
80006774:	c0 64       	brge	80006780 <_vsnprintf_r+0x18>
80006776:	e0 68 00 8b 	mov	r8,139
8000677a:	99 38       	st.w	r12[0xc],r8
8000677c:	3f fc       	mov	r12,-1
8000677e:	c1 f8       	rjmp	800067bc <_vsnprintf_r+0x54>
80006780:	10 99       	mov	r9,r8
80006782:	ee c8 00 01 	sub	r8,r7,1
80006786:	58 07       	cp.w	r7,0
80006788:	ee 08 17 00 	moveq	r8,r7
8000678c:	50 58       	stdsp	sp[0x14],r8
8000678e:	50 28       	stdsp	sp[0x8],r8
80006790:	e0 68 02 08 	mov	r8,520
80006794:	ba 68       	st.h	sp[0xc],r8
80006796:	3f f8       	mov	r8,-1
80006798:	50 4b       	stdsp	sp[0x10],r11
8000679a:	50 0b       	stdsp	sp[0x0],r11
8000679c:	ba 78       	st.h	sp[0xe],r8
8000679e:	1a 9b       	mov	r11,sp
800067a0:	f0 1f 00 08 	mcall	800067c0 <_vsnprintf_r+0x58>
800067a4:	5b fc       	cp.w	r12,-1
800067a6:	c0 44       	brge	800067ae <_vsnprintf_r+0x46>
800067a8:	e0 68 00 8b 	mov	r8,139
800067ac:	8d 38       	st.w	r6[0xc],r8
800067ae:	58 07       	cp.w	r7,0
800067b0:	f9 b9 01 00 	movne	r9,0
800067b4:	fb f8 10 00 	ld.wne	r8,sp[0x0]
800067b8:	f1 f9 1e 00 	st.bne	r8[0x0],r9
800067bc:	2e 9d       	sub	sp,-92
800067be:	d8 22       	popm	r4-r7,pc
800067c0:	80 00       	ld.sh	r0,r0[0x0]
800067c2:	47 cc       	lddsp	r12,sp[0x1f0]

800067c4 <vsnprintf>:
800067c4:	d4 01       	pushm	lr
800067c6:	12 98       	mov	r8,r9
800067c8:	14 99       	mov	r9,r10
800067ca:	16 9a       	mov	r10,r11
800067cc:	18 9b       	mov	r11,r12
800067ce:	48 3c       	lddpc	r12,800067d8 <vsnprintf+0x14>
800067d0:	78 0c       	ld.w	r12,r12[0x0]
800067d2:	f0 1f 00 03 	mcall	800067dc <vsnprintf+0x18>
800067d6:	d8 02       	popm	pc
800067d8:	00 00       	add	r0,r0
800067da:	00 f4       	st.b	--r0,r4
800067dc:	80 00       	ld.sh	r0,r0[0x0]
800067de:	67 68       	ld.w	r8,r3[0x58]

800067e0 <__swsetup_r>:
800067e0:	d4 21       	pushm	r4-r7,lr
800067e2:	4b 38       	lddpc	r8,800068ac <__swsetup_r+0xcc>
800067e4:	18 96       	mov	r6,r12
800067e6:	16 97       	mov	r7,r11
800067e8:	70 0c       	ld.w	r12,r8[0x0]
800067ea:	58 0c       	cp.w	r12,0
800067ec:	c0 60       	breq	800067f8 <__swsetup_r+0x18>
800067ee:	78 68       	ld.w	r8,r12[0x18]
800067f0:	58 08       	cp.w	r8,0
800067f2:	c0 31       	brne	800067f8 <__swsetup_r+0x18>
800067f4:	f0 1f 00 2f 	mcall	800068b0 <__swsetup_r+0xd0>
800067f8:	4a f8       	lddpc	r8,800068b4 <__swsetup_r+0xd4>
800067fa:	10 37       	cp.w	r7,r8
800067fc:	c0 51       	brne	80006806 <__swsetup_r+0x26>
800067fe:	4a c8       	lddpc	r8,800068ac <__swsetup_r+0xcc>
80006800:	70 08       	ld.w	r8,r8[0x0]
80006802:	70 07       	ld.w	r7,r8[0x0]
80006804:	c0 e8       	rjmp	80006820 <__swsetup_r+0x40>
80006806:	4a d8       	lddpc	r8,800068b8 <__swsetup_r+0xd8>
80006808:	10 37       	cp.w	r7,r8
8000680a:	c0 51       	brne	80006814 <__swsetup_r+0x34>
8000680c:	4a 88       	lddpc	r8,800068ac <__swsetup_r+0xcc>
8000680e:	70 08       	ld.w	r8,r8[0x0]
80006810:	70 17       	ld.w	r7,r8[0x4]
80006812:	c0 78       	rjmp	80006820 <__swsetup_r+0x40>
80006814:	4a a8       	lddpc	r8,800068bc <__swsetup_r+0xdc>
80006816:	10 37       	cp.w	r7,r8
80006818:	c0 41       	brne	80006820 <__swsetup_r+0x40>
8000681a:	4a 58       	lddpc	r8,800068ac <__swsetup_r+0xcc>
8000681c:	70 08       	ld.w	r8,r8[0x0]
8000681e:	70 27       	ld.w	r7,r8[0x8]
80006820:	8e 68       	ld.sh	r8,r7[0xc]
80006822:	ed b8 00 03 	bld	r8,0x3
80006826:	c1 e0       	breq	80006862 <__swsetup_r+0x82>
80006828:	ed b8 00 04 	bld	r8,0x4
8000682c:	c3 e1       	brne	800068a8 <__swsetup_r+0xc8>
8000682e:	ed b8 00 02 	bld	r8,0x2
80006832:	c1 51       	brne	8000685c <__swsetup_r+0x7c>
80006834:	6e db       	ld.w	r11,r7[0x34]
80006836:	58 0b       	cp.w	r11,0
80006838:	c0 a0       	breq	8000684c <__swsetup_r+0x6c>
8000683a:	ee c8 ff bc 	sub	r8,r7,-68
8000683e:	10 3b       	cp.w	r11,r8
80006840:	c0 40       	breq	80006848 <__swsetup_r+0x68>
80006842:	0c 9c       	mov	r12,r6
80006844:	f0 1f 00 1f 	mcall	800068c0 <__swsetup_r+0xe0>
80006848:	30 08       	mov	r8,0
8000684a:	8f d8       	st.w	r7[0x34],r8
8000684c:	8e 68       	ld.sh	r8,r7[0xc]
8000684e:	e0 18 ff db 	andl	r8,0xffdb
80006852:	ae 68       	st.h	r7[0xc],r8
80006854:	30 08       	mov	r8,0
80006856:	8f 18       	st.w	r7[0x4],r8
80006858:	6e 48       	ld.w	r8,r7[0x10]
8000685a:	8f 08       	st.w	r7[0x0],r8
8000685c:	8e 68       	ld.sh	r8,r7[0xc]
8000685e:	a3 b8       	sbr	r8,0x3
80006860:	ae 68       	st.h	r7[0xc],r8
80006862:	6e 48       	ld.w	r8,r7[0x10]
80006864:	58 08       	cp.w	r8,0
80006866:	c0 b1       	brne	8000687c <__swsetup_r+0x9c>
80006868:	8e 68       	ld.sh	r8,r7[0xc]
8000686a:	e2 18 02 80 	andl	r8,0x280,COH
8000686e:	e0 48 02 00 	cp.w	r8,512
80006872:	c0 50       	breq	8000687c <__swsetup_r+0x9c>
80006874:	0c 9c       	mov	r12,r6
80006876:	0e 9b       	mov	r11,r7
80006878:	f0 1f 00 13 	mcall	800068c4 <__swsetup_r+0xe4>
8000687c:	8e 69       	ld.sh	r9,r7[0xc]
8000687e:	f1 d9 c0 01 	bfextu	r8,r9,0x0,0x1
80006882:	c0 70       	breq	80006890 <__swsetup_r+0xb0>
80006884:	30 08       	mov	r8,0
80006886:	8f 28       	st.w	r7[0x8],r8
80006888:	6e 58       	ld.w	r8,r7[0x14]
8000688a:	5c 38       	neg	r8
8000688c:	8f 68       	st.w	r7[0x18],r8
8000688e:	c0 68       	rjmp	8000689a <__swsetup_r+0xba>
80006890:	ed b9 00 01 	bld	r9,0x1
80006894:	ef f8 10 05 	ld.wne	r8,r7[0x14]
80006898:	8f 28       	st.w	r7[0x8],r8
8000689a:	6e 48       	ld.w	r8,r7[0x10]
8000689c:	58 08       	cp.w	r8,0
8000689e:	c0 61       	brne	800068aa <__swsetup_r+0xca>
800068a0:	8e 68       	ld.sh	r8,r7[0xc]
800068a2:	ed b8 00 07 	bld	r8,0x7
800068a6:	c0 21       	brne	800068aa <__swsetup_r+0xca>
800068a8:	dc 2a       	popm	r4-r7,pc,r12=-1
800068aa:	d8 2a       	popm	r4-r7,pc,r12=0
800068ac:	00 00       	add	r0,r0
800068ae:	00 f4       	st.b	--r0,r4
800068b0:	80 00       	ld.sh	r0,r0[0x0]
800068b2:	78 58       	ld.w	r8,r12[0x14]
800068b4:	80 00       	ld.sh	r0,r0[0x0]
800068b6:	a5 c4       	cbr	r4,0x4
800068b8:	80 00       	ld.sh	r0,r0[0x0]
800068ba:	a5 e4       	*unknown*
800068bc:	80 00       	ld.sh	r0,r0[0x0]
800068be:	a6 04       	st.h	r3[0x0],r4
800068c0:	80 00       	ld.sh	r0,r0[0x0]
800068c2:	79 b0       	ld.w	r0,r12[0x6c]
800068c4:	80 00       	ld.sh	r0,r0[0x0]
800068c6:	7e 70       	ld.w	r0,pc[0x1c]

800068c8 <quorem>:
800068c8:	d4 31       	pushm	r0-r7,lr
800068ca:	20 2d       	sub	sp,8
800068cc:	18 97       	mov	r7,r12
800068ce:	78 48       	ld.w	r8,r12[0x10]
800068d0:	76 46       	ld.w	r6,r11[0x10]
800068d2:	0c 38       	cp.w	r8,r6
800068d4:	c0 34       	brge	800068da <quorem+0x12>
800068d6:	30 0c       	mov	r12,0
800068d8:	c8 58       	rjmp	800069e2 <quorem+0x11a>
800068da:	ec c2 ff fc 	sub	r2,r6,-4
800068de:	f6 c3 ff ec 	sub	r3,r11,-20
800068e2:	f6 02 03 29 	ld.w	r9,r11[r2<<0x2]
800068e6:	f8 02 03 2c 	ld.w	r12,r12[r2<<0x2]
800068ea:	2f f9       	sub	r9,-1
800068ec:	20 16       	sub	r6,1
800068ee:	f8 09 0d 08 	divu	r8,r12,r9
800068f2:	f6 02 00 22 	add	r2,r11,r2<<0x2
800068f6:	ee c4 ff ec 	sub	r4,r7,-20
800068fa:	10 95       	mov	r5,r8
800068fc:	58 08       	cp.w	r8,0
800068fe:	c4 10       	breq	80006980 <quorem+0xb8>
80006900:	30 09       	mov	r9,0
80006902:	06 9a       	mov	r10,r3
80006904:	08 98       	mov	r8,r4
80006906:	12 91       	mov	r1,r9
80006908:	50 0b       	stdsp	sp[0x0],r11
8000690a:	70 0e       	ld.w	lr,r8[0x0]
8000690c:	b1 8e       	lsr	lr,0x10
8000690e:	50 1e       	stdsp	sp[0x4],lr
80006910:	15 0e       	ld.w	lr,r10++
80006912:	fc 00 16 10 	lsr	r0,lr,0x10
80006916:	fd de c0 10 	bfextu	lr,lr,0x0,0x10
8000691a:	ea 0e 03 41 	mac	r1,r5,lr
8000691e:	fd d1 c0 10 	bfextu	lr,r1,0x0,0x10
80006922:	b1 81       	lsr	r1,0x10
80006924:	40 1b       	lddsp	r11,sp[0x4]
80006926:	ea 00 02 40 	mul	r0,r5,r0
8000692a:	e2 00 00 00 	add	r0,r1,r0
8000692e:	e3 d0 c0 10 	bfextu	r1,r0,0x0,0x10
80006932:	02 1b       	sub	r11,r1
80006934:	50 1b       	stdsp	sp[0x4],r11
80006936:	70 0b       	ld.w	r11,r8[0x0]
80006938:	e3 db c0 10 	bfextu	r1,r11,0x0,0x10
8000693c:	02 09       	add	r9,r1
8000693e:	f2 0e 01 0e 	sub	lr,r9,lr
80006942:	b0 1e       	st.h	r8[0x2],lr
80006944:	fc 09 14 10 	asr	r9,lr,0x10
80006948:	40 1e       	lddsp	lr,sp[0x4]
8000694a:	fc 09 00 09 	add	r9,lr,r9
8000694e:	b0 09       	st.h	r8[0x0],r9
80006950:	e0 01 16 10 	lsr	r1,r0,0x10
80006954:	2f c8       	sub	r8,-4
80006956:	b1 49       	asr	r9,0x10
80006958:	04 3a       	cp.w	r10,r2
8000695a:	fe 98 ff d8 	brls	8000690a <quorem+0x42>
8000695e:	40 0b       	lddsp	r11,sp[0x0]
80006960:	58 0c       	cp.w	r12,0
80006962:	c0 f1       	brne	80006980 <quorem+0xb8>
80006964:	ec c8 ff fb 	sub	r8,r6,-5
80006968:	ee 08 00 28 	add	r8,r7,r8<<0x2
8000696c:	c0 28       	rjmp	80006970 <quorem+0xa8>
8000696e:	20 16       	sub	r6,1
80006970:	20 48       	sub	r8,4
80006972:	08 38       	cp.w	r8,r4
80006974:	e0 88 00 05 	brls	8000697e <quorem+0xb6>
80006978:	70 09       	ld.w	r9,r8[0x0]
8000697a:	58 09       	cp.w	r9,0
8000697c:	cf 90       	breq	8000696e <quorem+0xa6>
8000697e:	8f 46       	st.w	r7[0x10],r6
80006980:	0e 9c       	mov	r12,r7
80006982:	f0 1f 00 1a 	mcall	800069e8 <quorem+0x120>
80006986:	c2 d5       	brlt	800069e0 <quorem+0x118>
80006988:	2f f5       	sub	r5,-1
8000698a:	08 98       	mov	r8,r4
8000698c:	30 09       	mov	r9,0
8000698e:	07 0b       	ld.w	r11,r3++
80006990:	f6 0a 16 10 	lsr	r10,r11,0x10
80006994:	70 0c       	ld.w	r12,r8[0x0]
80006996:	f7 db c0 10 	bfextu	r11,r11,0x0,0x10
8000699a:	f8 0e 16 10 	lsr	lr,r12,0x10
8000699e:	14 1e       	sub	lr,r10
800069a0:	f5 dc c0 10 	bfextu	r10,r12,0x0,0x10
800069a4:	16 1a       	sub	r10,r11
800069a6:	12 0a       	add	r10,r9
800069a8:	b0 1a       	st.h	r8[0x2],r10
800069aa:	b1 4a       	asr	r10,0x10
800069ac:	fc 0a 00 09 	add	r9,lr,r10
800069b0:	b0 09       	st.h	r8[0x0],r9
800069b2:	2f c8       	sub	r8,-4
800069b4:	b1 49       	asr	r9,0x10
800069b6:	04 33       	cp.w	r3,r2
800069b8:	fe 98 ff eb 	brls	8000698e <quorem+0xc6>
800069bc:	ec c8 ff fb 	sub	r8,r6,-5
800069c0:	ee 08 03 29 	ld.w	r9,r7[r8<<0x2]
800069c4:	58 09       	cp.w	r9,0
800069c6:	c0 d1       	brne	800069e0 <quorem+0x118>
800069c8:	ee 08 00 28 	add	r8,r7,r8<<0x2
800069cc:	c0 28       	rjmp	800069d0 <quorem+0x108>
800069ce:	20 16       	sub	r6,1
800069d0:	20 48       	sub	r8,4
800069d2:	08 38       	cp.w	r8,r4
800069d4:	e0 88 00 05 	brls	800069de <quorem+0x116>
800069d8:	70 09       	ld.w	r9,r8[0x0]
800069da:	58 09       	cp.w	r9,0
800069dc:	cf 90       	breq	800069ce <quorem+0x106>
800069de:	8f 46       	st.w	r7[0x10],r6
800069e0:	0a 9c       	mov	r12,r5
800069e2:	2f ed       	sub	sp,-8
800069e4:	d8 32       	popm	r0-r7,pc
800069e6:	00 00       	add	r0,r0
800069e8:	80 00       	ld.sh	r0,r0[0x0]
800069ea:	86 40       	ld.sh	r0,r3[0x8]

800069ec <_dtoa_r>:
800069ec:	d4 31       	pushm	r0-r7,lr
800069ee:	21 ad       	sub	sp,104
800069f0:	fa c4 ff 74 	sub	r4,sp,-140
800069f4:	18 97       	mov	r7,r12
800069f6:	16 95       	mov	r5,r11
800069f8:	68 2c       	ld.w	r12,r4[0x8]
800069fa:	50 c9       	stdsp	sp[0x30],r9
800069fc:	68 16       	ld.w	r6,r4[0x4]
800069fe:	68 09       	ld.w	r9,r4[0x0]
80006a00:	50 e8       	stdsp	sp[0x38],r8
80006a02:	14 94       	mov	r4,r10
80006a04:	51 2c       	stdsp	sp[0x48],r12
80006a06:	fa e5 00 08 	st.d	sp[8],r4
80006a0a:	51 59       	stdsp	sp[0x54],r9
80006a0c:	6e 95       	ld.w	r5,r7[0x24]
80006a0e:	58 05       	cp.w	r5,0
80006a10:	c0 91       	brne	80006a22 <_dtoa_r+0x36>
80006a12:	31 0c       	mov	r12,16
80006a14:	f0 1f 00 47 	mcall	80006b30 <_dtoa_r+0x144>
80006a18:	99 35       	st.w	r12[0xc],r5
80006a1a:	8f 9c       	st.w	r7[0x24],r12
80006a1c:	99 15       	st.w	r12[0x4],r5
80006a1e:	99 25       	st.w	r12[0x8],r5
80006a20:	99 05       	st.w	r12[0x0],r5
80006a22:	6e 99       	ld.w	r9,r7[0x24]
80006a24:	72 08       	ld.w	r8,r9[0x0]
80006a26:	58 08       	cp.w	r8,0
80006a28:	c0 f0       	breq	80006a46 <_dtoa_r+0x5a>
80006a2a:	72 1a       	ld.w	r10,r9[0x4]
80006a2c:	91 1a       	st.w	r8[0x4],r10
80006a2e:	30 1a       	mov	r10,1
80006a30:	72 19       	ld.w	r9,r9[0x4]
80006a32:	f4 09 09 49 	lsl	r9,r10,r9
80006a36:	10 9b       	mov	r11,r8
80006a38:	91 29       	st.w	r8[0x8],r9
80006a3a:	0e 9c       	mov	r12,r7
80006a3c:	f0 1f 00 3e 	mcall	80006b34 <_dtoa_r+0x148>
80006a40:	6e 98       	ld.w	r8,r7[0x24]
80006a42:	30 09       	mov	r9,0
80006a44:	91 09       	st.w	r8[0x0],r9
80006a46:	40 28       	lddsp	r8,sp[0x8]
80006a48:	10 94       	mov	r4,r8
80006a4a:	58 08       	cp.w	r8,0
80006a4c:	c0 64       	brge	80006a58 <_dtoa_r+0x6c>
80006a4e:	f1 d8 c0 1f 	bfextu	r8,r8,0x0,0x1f
80006a52:	50 28       	stdsp	sp[0x8],r8
80006a54:	30 18       	mov	r8,1
80006a56:	c0 28       	rjmp	80006a5a <_dtoa_r+0x6e>
80006a58:	30 08       	mov	r8,0
80006a5a:	8d 08       	st.w	r6[0x0],r8
80006a5c:	fc 1c 7f f0 	movh	r12,0x7ff0
80006a60:	40 26       	lddsp	r6,sp[0x8]
80006a62:	0c 98       	mov	r8,r6
80006a64:	e6 18 7f f0 	andh	r8,0x7ff0,COH
80006a68:	18 38       	cp.w	r8,r12
80006a6a:	c1 e1       	brne	80006aa6 <_dtoa_r+0xba>
80006a6c:	e0 68 27 0f 	mov	r8,9999
80006a70:	41 5b       	lddsp	r11,sp[0x54]
80006a72:	97 08       	st.w	r11[0x0],r8
80006a74:	40 3a       	lddsp	r10,sp[0xc]
80006a76:	58 0a       	cp.w	r10,0
80006a78:	c0 61       	brne	80006a84 <_dtoa_r+0x98>
80006a7a:	ed d6 c0 14 	bfextu	r6,r6,0x0,0x14
80006a7e:	c0 31       	brne	80006a84 <_dtoa_r+0x98>
80006a80:	4a ec       	lddpc	r12,80006b38 <_dtoa_r+0x14c>
80006a82:	c0 28       	rjmp	80006a86 <_dtoa_r+0x9a>
80006a84:	4a ec       	lddpc	r12,80006b3c <_dtoa_r+0x150>
80006a86:	41 29       	lddsp	r9,sp[0x48]
80006a88:	58 09       	cp.w	r9,0
80006a8a:	e0 80 05 de 	breq	80007646 <_dtoa_r+0xc5a>
80006a8e:	f8 c8 ff fd 	sub	r8,r12,-3
80006a92:	f8 c9 ff f8 	sub	r9,r12,-8
80006a96:	11 8b       	ld.ub	r11,r8[0x0]
80006a98:	30 0a       	mov	r10,0
80006a9a:	41 25       	lddsp	r5,sp[0x48]
80006a9c:	f4 0b 18 00 	cp.b	r11,r10
80006aa0:	f2 08 17 10 	movne	r8,r9
80006aa4:	c1 58       	rjmp	80006ace <_dtoa_r+0xe2>
80006aa6:	fa ea 00 08 	ld.d	r10,sp[8]
80006aaa:	30 08       	mov	r8,0
80006aac:	fa eb 00 3c 	st.d	sp[60],r10
80006ab0:	30 09       	mov	r9,0
80006ab2:	f0 1f 00 24 	mcall	80006b40 <_dtoa_r+0x154>
80006ab6:	c0 f0       	breq	80006ad4 <_dtoa_r+0xe8>
80006ab8:	30 18       	mov	r8,1
80006aba:	41 5a       	lddsp	r10,sp[0x54]
80006abc:	95 08       	st.w	r10[0x0],r8
80006abe:	4a 2c       	lddpc	r12,80006b44 <_dtoa_r+0x158>
80006ac0:	41 29       	lddsp	r9,sp[0x48]
80006ac2:	f8 08 00 08 	add	r8,r12,r8
80006ac6:	58 09       	cp.w	r9,0
80006ac8:	e0 80 05 bf 	breq	80007646 <_dtoa_r+0xc5a>
80006acc:	12 95       	mov	r5,r9
80006ace:	8b 08       	st.w	r5[0x0],r8
80006ad0:	e0 8f 05 bb 	bral	80007646 <_dtoa_r+0xc5a>
80006ad4:	fa c8 ff 9c 	sub	r8,sp,-100
80006ad8:	fa c9 ff a0 	sub	r9,sp,-96
80006adc:	fa ea 00 3c 	ld.d	r10,sp[60]
80006ae0:	0e 9c       	mov	r12,r7
80006ae2:	eb d6 c2 8b 	bfextu	r5,r6,0x14,0xb
80006ae6:	f0 1f 00 19 	mcall	80006b48 <_dtoa_r+0x15c>
80006aea:	18 93       	mov	r3,r12
80006aec:	58 05       	cp.w	r5,0
80006aee:	c0 d0       	breq	80006b08 <_dtoa_r+0x11c>
80006af0:	fa ea 00 3c 	ld.d	r10,sp[60]
80006af4:	30 04       	mov	r4,0
80006af6:	f1 db c0 14 	bfextu	r8,r11,0x0,0x14
80006afa:	ea c5 03 ff 	sub	r5,r5,1023
80006afe:	10 9b       	mov	r11,r8
80006b00:	51 74       	stdsp	sp[0x5c],r4
80006b02:	ea 1b 3f f0 	orh	r11,0x3ff0
80006b06:	c3 28       	rjmp	80006b6a <_dtoa_r+0x17e>
80006b08:	41 88       	lddsp	r8,sp[0x60]
80006b0a:	41 9c       	lddsp	r12,sp[0x64]
80006b0c:	10 0c       	add	r12,r8
80006b0e:	f8 c5 fb ce 	sub	r5,r12,-1074
80006b12:	e0 45 00 20 	cp.w	r5,32
80006b16:	e0 8a 00 1b 	brle	80006b4c <_dtoa_r+0x160>
80006b1a:	f8 cc fb ee 	sub	r12,r12,-1042
80006b1e:	40 3b       	lddsp	r11,sp[0xc]
80006b20:	ea 08 11 40 	rsub	r8,r5,64
80006b24:	f6 0c 0a 4c 	lsr	r12,r11,r12
80006b28:	ec 08 09 46 	lsl	r6,r6,r8
80006b2c:	0c 4c       	or	r12,r6
80006b2e:	c1 48       	rjmp	80006b56 <_dtoa_r+0x16a>
80006b30:	80 00       	ld.sh	r0,r0[0x0]
80006b32:	7f 3c       	ld.w	r12,pc[0x4c]
80006b34:	80 00       	ld.sh	r0,r0[0x0]
80006b36:	86 74       	ld.sh	r4,r3[0xe]
80006b38:	80 00       	ld.sh	r0,r0[0x0]
80006b3a:	a5 b4       	sbr	r4,0x5
80006b3c:	80 00       	ld.sh	r0,r0[0x0]
80006b3e:	a5 c0       	cbr	r0,0x4
80006b40:	80 00       	ld.sh	r0,r0[0x0]
80006b42:	98 76       	ld.sh	r6,r12[0xe]
80006b44:	80 00       	ld.sh	r0,r0[0x0]
80006b46:	a4 90       	st.b	r2[0x1],r0
80006b48:	80 00       	ld.sh	r0,r0[0x0]
80006b4a:	87 24       	st.w	r3[0x8],r4
80006b4c:	ea 0c 11 20 	rsub	r12,r5,32
80006b50:	40 3a       	lddsp	r10,sp[0xc]
80006b52:	f4 0c 09 4c 	lsl	r12,r10,r12
80006b56:	f0 1f 00 6b 	mcall	80006d00 <_dtoa_r+0x314>
80006b5a:	fc 18 fe 10 	movh	r8,0xfe10
80006b5e:	30 19       	mov	r9,1
80006b60:	ea c5 04 33 	sub	r5,r5,1075
80006b64:	f0 0b 00 0b 	add	r11,r8,r11
80006b68:	51 79       	stdsp	sp[0x5c],r9
80006b6a:	30 08       	mov	r8,0
80006b6c:	fc 19 3f f8 	movh	r9,0x3ff8
80006b70:	f0 1f 00 65 	mcall	80006d04 <_dtoa_r+0x318>
80006b74:	e0 68 43 61 	mov	r8,17249
80006b78:	ea 18 63 6f 	orh	r8,0x636f
80006b7c:	e0 69 87 a7 	mov	r9,34727
80006b80:	ea 19 3f d2 	orh	r9,0x3fd2
80006b84:	f0 1f 00 61 	mcall	80006d08 <_dtoa_r+0x31c>
80006b88:	e0 68 c8 b3 	mov	r8,51379
80006b8c:	ea 18 8b 60 	orh	r8,0x8b60
80006b90:	e0 69 8a 28 	mov	r9,35368
80006b94:	ea 19 3f c6 	orh	r9,0x3fc6
80006b98:	f0 1f 00 5d 	mcall	80006d0c <_dtoa_r+0x320>
80006b9c:	0a 9c       	mov	r12,r5
80006b9e:	14 90       	mov	r0,r10
80006ba0:	16 91       	mov	r1,r11
80006ba2:	f0 1f 00 5c 	mcall	80006d10 <_dtoa_r+0x324>
80006ba6:	e0 68 79 fb 	mov	r8,31227
80006baa:	ea 18 50 9f 	orh	r8,0x509f
80006bae:	e0 69 44 13 	mov	r9,17427
80006bb2:	ea 19 3f d3 	orh	r9,0x3fd3
80006bb6:	f0 1f 00 55 	mcall	80006d08 <_dtoa_r+0x31c>
80006bba:	14 98       	mov	r8,r10
80006bbc:	16 99       	mov	r9,r11
80006bbe:	00 9a       	mov	r10,r0
80006bc0:	02 9b       	mov	r11,r1
80006bc2:	f0 1f 00 53 	mcall	80006d0c <_dtoa_r+0x320>
80006bc6:	14 90       	mov	r0,r10
80006bc8:	16 91       	mov	r1,r11
80006bca:	f0 1f 00 53 	mcall	80006d14 <_dtoa_r+0x328>
80006bce:	30 08       	mov	r8,0
80006bd0:	18 96       	mov	r6,r12
80006bd2:	30 09       	mov	r9,0
80006bd4:	00 9a       	mov	r10,r0
80006bd6:	02 9b       	mov	r11,r1
80006bd8:	f0 1f 00 50 	mcall	80006d18 <_dtoa_r+0x32c>
80006bdc:	c0 c0       	breq	80006bf4 <_dtoa_r+0x208>
80006bde:	0c 9c       	mov	r12,r6
80006be0:	f0 1f 00 4c 	mcall	80006d10 <_dtoa_r+0x324>
80006be4:	14 98       	mov	r8,r10
80006be6:	16 99       	mov	r9,r11
80006be8:	00 9a       	mov	r10,r0
80006bea:	02 9b       	mov	r11,r1
80006bec:	f0 1f 00 4c 	mcall	80006d1c <_dtoa_r+0x330>
80006bf0:	f7 b6 00 01 	subeq	r6,1
80006bf4:	59 66       	cp.w	r6,22
80006bf6:	e0 88 00 05 	brls	80006c00 <_dtoa_r+0x214>
80006bfa:	30 18       	mov	r8,1
80006bfc:	51 48       	stdsp	sp[0x50],r8
80006bfe:	c1 28       	rjmp	80006c22 <_dtoa_r+0x236>
80006c00:	4c 88       	lddpc	r8,80006d20 <_dtoa_r+0x334>
80006c02:	fa ea 00 3c 	ld.d	r10,sp[60]
80006c06:	f0 06 02 38 	ld.d	r8,r8[r6<<0x3]
80006c0a:	f0 1f 00 44 	mcall	80006d18 <_dtoa_r+0x32c>
80006c0e:	f9 b4 00 00 	moveq	r4,0
80006c12:	fb f4 0a 14 	st.weq	sp[0x50],r4
80006c16:	f7 b6 01 01 	subne	r6,1
80006c1a:	f9 bc 01 00 	movne	r12,0
80006c1e:	fb fc 1a 14 	st.wne	sp[0x50],r12
80006c22:	41 90       	lddsp	r0,sp[0x64]
80006c24:	20 10       	sub	r0,1
80006c26:	0a 10       	sub	r0,r5
80006c28:	c0 46       	brmi	80006c30 <_dtoa_r+0x244>
80006c2a:	50 40       	stdsp	sp[0x10],r0
80006c2c:	30 00       	mov	r0,0
80006c2e:	c0 48       	rjmp	80006c36 <_dtoa_r+0x24a>
80006c30:	30 0b       	mov	r11,0
80006c32:	5c 30       	neg	r0
80006c34:	50 4b       	stdsp	sp[0x10],r11
80006c36:	ec 02 11 00 	rsub	r2,r6,0
80006c3a:	58 06       	cp.w	r6,0
80006c3c:	fb fa 40 04 	ld.wge	r10,sp[0x10]
80006c40:	f5 d6 e4 0a 	addge	r10,r10,r6
80006c44:	fb fa 4a 04 	st.wge	sp[0x10],r10
80006c48:	fb f6 4a 11 	st.wge	sp[0x44],r6
80006c4c:	f9 b2 04 00 	movge	r2,0
80006c50:	e1 d6 e5 10 	sublt	r0,r0,r6
80006c54:	f9 b9 05 00 	movlt	r9,0
80006c58:	fb f9 5a 11 	st.wlt	sp[0x44],r9
80006c5c:	40 c8       	lddsp	r8,sp[0x30]
80006c5e:	58 98       	cp.w	r8,9
80006c60:	e0 8b 00 20 	brhi	80006ca0 <_dtoa_r+0x2b4>
80006c64:	58 58       	cp.w	r8,5
80006c66:	f9 b4 0a 01 	movle	r4,1
80006c6a:	fb f5 90 0c 	ld.wgt	r5,sp[0x30]
80006c6e:	f7 b5 09 04 	subgt	r5,4
80006c72:	fb f5 9a 0c 	st.wgt	sp[0x30],r5
80006c76:	f9 b4 09 00 	movgt	r4,0
80006c7a:	40 cc       	lddsp	r12,sp[0x30]
80006c7c:	58 3c       	cp.w	r12,3
80006c7e:	c2 d0       	breq	80006cd8 <_dtoa_r+0x2ec>
80006c80:	e0 89 00 05 	brgt	80006c8a <_dtoa_r+0x29e>
80006c84:	58 2c       	cp.w	r12,2
80006c86:	c1 01       	brne	80006ca6 <_dtoa_r+0x2ba>
80006c88:	c1 88       	rjmp	80006cb8 <_dtoa_r+0x2cc>
80006c8a:	40 cb       	lddsp	r11,sp[0x30]
80006c8c:	58 4b       	cp.w	r11,4
80006c8e:	c0 60       	breq	80006c9a <_dtoa_r+0x2ae>
80006c90:	58 5b       	cp.w	r11,5
80006c92:	c0 a1       	brne	80006ca6 <_dtoa_r+0x2ba>
80006c94:	30 1a       	mov	r10,1
80006c96:	50 da       	stdsp	sp[0x34],r10
80006c98:	c2 28       	rjmp	80006cdc <_dtoa_r+0x2f0>
80006c9a:	30 19       	mov	r9,1
80006c9c:	50 d9       	stdsp	sp[0x34],r9
80006c9e:	c0 f8       	rjmp	80006cbc <_dtoa_r+0x2d0>
80006ca0:	30 08       	mov	r8,0
80006ca2:	30 14       	mov	r4,1
80006ca4:	50 c8       	stdsp	sp[0x30],r8
80006ca6:	3f f5       	mov	r5,-1
80006ca8:	30 1c       	mov	r12,1
80006caa:	30 0b       	mov	r11,0
80006cac:	50 95       	stdsp	sp[0x24],r5
80006cae:	50 dc       	stdsp	sp[0x34],r12
80006cb0:	0a 91       	mov	r1,r5
80006cb2:	31 28       	mov	r8,18
80006cb4:	50 eb       	stdsp	sp[0x38],r11
80006cb6:	c2 08       	rjmp	80006cf6 <_dtoa_r+0x30a>
80006cb8:	30 0a       	mov	r10,0
80006cba:	50 da       	stdsp	sp[0x34],r10
80006cbc:	40 e9       	lddsp	r9,sp[0x38]
80006cbe:	58 09       	cp.w	r9,0
80006cc0:	e0 89 00 07 	brgt	80006cce <_dtoa_r+0x2e2>
80006cc4:	30 18       	mov	r8,1
80006cc6:	50 98       	stdsp	sp[0x24],r8
80006cc8:	10 91       	mov	r1,r8
80006cca:	50 e8       	stdsp	sp[0x38],r8
80006ccc:	c1 58       	rjmp	80006cf6 <_dtoa_r+0x30a>
80006cce:	40 e5       	lddsp	r5,sp[0x38]
80006cd0:	50 95       	stdsp	sp[0x24],r5
80006cd2:	0a 91       	mov	r1,r5
80006cd4:	0a 98       	mov	r8,r5
80006cd6:	c1 08       	rjmp	80006cf6 <_dtoa_r+0x30a>
80006cd8:	30 0c       	mov	r12,0
80006cda:	50 dc       	stdsp	sp[0x34],r12
80006cdc:	40 eb       	lddsp	r11,sp[0x38]
80006cde:	ec 0b 00 0b 	add	r11,r6,r11
80006ce2:	50 9b       	stdsp	sp[0x24],r11
80006ce4:	16 98       	mov	r8,r11
80006ce6:	2f f8       	sub	r8,-1
80006ce8:	58 08       	cp.w	r8,0
80006cea:	e0 89 00 05 	brgt	80006cf4 <_dtoa_r+0x308>
80006cee:	10 91       	mov	r1,r8
80006cf0:	30 18       	mov	r8,1
80006cf2:	c0 28       	rjmp	80006cf6 <_dtoa_r+0x30a>
80006cf4:	10 91       	mov	r1,r8
80006cf6:	30 09       	mov	r9,0
80006cf8:	6e 9a       	ld.w	r10,r7[0x24]
80006cfa:	95 19       	st.w	r10[0x4],r9
80006cfc:	30 49       	mov	r9,4
80006cfe:	c1 78       	rjmp	80006d2c <_dtoa_r+0x340>
80006d00:	80 00       	ld.sh	r0,r0[0x0]
80006d02:	97 8e       	st.w	r11[0x20],lr
80006d04:	80 00       	ld.sh	r0,r0[0x0]
80006d06:	94 b8       	ld.uh	r8,r10[0x6]
80006d08:	80 00       	ld.sh	r0,r0[0x0]
80006d0a:	92 e0       	ld.uh	r0,r9[0xc]
80006d0c:	80 00       	ld.sh	r0,r0[0x0]
80006d0e:	96 54       	ld.sh	r4,r11[0xa]
80006d10:	80 00       	ld.sh	r0,r0[0x0]
80006d12:	97 96       	st.w	r11[0x24],r6
80006d14:	80 00       	ld.sh	r0,r0[0x0]
80006d16:	97 68       	st.w	r11[0x18],r8
80006d18:	80 00       	ld.sh	r0,r0[0x0]
80006d1a:	99 04       	st.w	r12[0x0],r4
80006d1c:	80 00       	ld.sh	r0,r0[0x0]
80006d1e:	98 76       	ld.sh	r6,r12[0xe]
80006d20:	80 00       	ld.sh	r0,r0[0x0]
80006d22:	a6 78       	st.h	r3[0xe],r8
80006d24:	6a 1a       	ld.w	r10,r5[0x4]
80006d26:	a1 79       	lsl	r9,0x1
80006d28:	2f fa       	sub	r10,-1
80006d2a:	8b 1a       	st.w	r5[0x4],r10
80006d2c:	6e 95       	ld.w	r5,r7[0x24]
80006d2e:	f2 ca ff ec 	sub	r10,r9,-20
80006d32:	10 3a       	cp.w	r10,r8
80006d34:	fe 98 ff f8 	brls	80006d24 <_dtoa_r+0x338>
80006d38:	6a 1b       	ld.w	r11,r5[0x4]
80006d3a:	0e 9c       	mov	r12,r7
80006d3c:	f0 1f 00 53 	mcall	80006e88 <_dtoa_r+0x49c>
80006d40:	58 e1       	cp.w	r1,14
80006d42:	5f 88       	srls	r8
80006d44:	8b 0c       	st.w	r5[0x0],r12
80006d46:	f1 e4 00 04 	and	r4,r8,r4
80006d4a:	6e 98       	ld.w	r8,r7[0x24]
80006d4c:	70 08       	ld.w	r8,r8[0x0]
80006d4e:	50 88       	stdsp	sp[0x20],r8
80006d50:	e0 80 01 98 	breq	80007080 <_dtoa_r+0x694>
80006d54:	58 06       	cp.w	r6,0
80006d56:	e0 8a 00 40 	brle	80006dd6 <_dtoa_r+0x3ea>
80006d5a:	f3 d6 c0 04 	bfextu	r9,r6,0x0,0x4
80006d5e:	4c c8       	lddpc	r8,80006e8c <_dtoa_r+0x4a0>
80006d60:	f0 09 02 34 	ld.d	r4,r8[r9<<0x3]
80006d64:	fa e5 00 18 	st.d	sp[24],r4
80006d68:	ec 04 14 04 	asr	r4,r6,0x4
80006d6c:	ed b4 00 04 	bld	r4,0x4
80006d70:	c0 30       	breq	80006d76 <_dtoa_r+0x38a>
80006d72:	30 25       	mov	r5,2
80006d74:	c0 f8       	rjmp	80006d92 <_dtoa_r+0x3a6>
80006d76:	4c 78       	lddpc	r8,80006e90 <_dtoa_r+0x4a4>
80006d78:	f0 e8 00 20 	ld.d	r8,r8[32]
80006d7c:	fa ea 00 3c 	ld.d	r10,sp[60]
80006d80:	e9 d4 c0 04 	bfextu	r4,r4,0x0,0x4
80006d84:	f0 1f 00 44 	mcall	80006e94 <_dtoa_r+0x4a8>
80006d88:	30 35       	mov	r5,3
80006d8a:	14 98       	mov	r8,r10
80006d8c:	16 99       	mov	r9,r11
80006d8e:	fa e9 00 08 	st.d	sp[8],r8
80006d92:	4c 0c       	lddpc	r12,80006e90 <_dtoa_r+0x4a4>
80006d94:	50 a3       	stdsp	sp[0x28],r3
80006d96:	0c 93       	mov	r3,r6
80006d98:	18 96       	mov	r6,r12
80006d9a:	c0 f8       	rjmp	80006db8 <_dtoa_r+0x3cc>
80006d9c:	fa ea 00 18 	ld.d	r10,sp[24]
80006da0:	ed b4 00 00 	bld	r4,0x0
80006da4:	c0 81       	brne	80006db4 <_dtoa_r+0x3c8>
80006da6:	ec e8 00 00 	ld.d	r8,r6[0]
80006daa:	2f f5       	sub	r5,-1
80006dac:	f0 1f 00 3b 	mcall	80006e98 <_dtoa_r+0x4ac>
80006db0:	fa eb 00 18 	st.d	sp[24],r10
80006db4:	a1 54       	asr	r4,0x1
80006db6:	2f 86       	sub	r6,-8
80006db8:	58 04       	cp.w	r4,0
80006dba:	cf 11       	brne	80006d9c <_dtoa_r+0x3b0>
80006dbc:	fa e8 00 18 	ld.d	r8,sp[24]
80006dc0:	fa ea 00 08 	ld.d	r10,sp[8]
80006dc4:	06 96       	mov	r6,r3
80006dc6:	f0 1f 00 34 	mcall	80006e94 <_dtoa_r+0x4a8>
80006dca:	40 a3       	lddsp	r3,sp[0x28]
80006dcc:	14 98       	mov	r8,r10
80006dce:	16 99       	mov	r9,r11
80006dd0:	fa e9 00 08 	st.d	sp[8],r8
80006dd4:	c2 d8       	rjmp	80006e2e <_dtoa_r+0x442>
80006dd6:	ec 08 11 00 	rsub	r8,r6,0
80006dda:	c0 31       	brne	80006de0 <_dtoa_r+0x3f4>
80006ddc:	30 25       	mov	r5,2
80006dde:	c2 88       	rjmp	80006e2e <_dtoa_r+0x442>
80006de0:	4a cc       	lddpc	r12,80006e90 <_dtoa_r+0x4a4>
80006de2:	f0 04 14 04 	asr	r4,r8,0x4
80006de6:	50 1c       	stdsp	sp[0x4],r12
80006de8:	f1 d8 c0 04 	bfextu	r8,r8,0x0,0x4
80006dec:	4a 89       	lddpc	r9,80006e8c <_dtoa_r+0x4a0>
80006dee:	fa ea 00 3c 	ld.d	r10,sp[60]
80006df2:	f2 08 02 38 	ld.d	r8,r9[r8<<0x3]
80006df6:	f0 1f 00 29 	mcall	80006e98 <_dtoa_r+0x4ac>
80006dfa:	40 1c       	lddsp	r12,sp[0x4]
80006dfc:	50 63       	stdsp	sp[0x18],r3
80006dfe:	30 25       	mov	r5,2
80006e00:	0c 93       	mov	r3,r6
80006e02:	fa eb 00 08 	st.d	sp[8],r10
80006e06:	18 96       	mov	r6,r12
80006e08:	c0 f8       	rjmp	80006e26 <_dtoa_r+0x43a>
80006e0a:	fa ea 00 08 	ld.d	r10,sp[8]
80006e0e:	ed b4 00 00 	bld	r4,0x0
80006e12:	c0 81       	brne	80006e22 <_dtoa_r+0x436>
80006e14:	ec e8 00 00 	ld.d	r8,r6[0]
80006e18:	2f f5       	sub	r5,-1
80006e1a:	f0 1f 00 20 	mcall	80006e98 <_dtoa_r+0x4ac>
80006e1e:	fa eb 00 08 	st.d	sp[8],r10
80006e22:	a1 54       	asr	r4,0x1
80006e24:	2f 86       	sub	r6,-8
80006e26:	58 04       	cp.w	r4,0
80006e28:	cf 11       	brne	80006e0a <_dtoa_r+0x41e>
80006e2a:	06 96       	mov	r6,r3
80006e2c:	40 63       	lddsp	r3,sp[0x18]
80006e2e:	41 4a       	lddsp	r10,sp[0x50]
80006e30:	58 0a       	cp.w	r10,0
80006e32:	c3 70       	breq	80006ea0 <_dtoa_r+0x4b4>
80006e34:	fa e8 00 08 	ld.d	r8,sp[8]
80006e38:	58 01       	cp.w	r1,0
80006e3a:	5f 94       	srgt	r4
80006e3c:	fa e9 00 18 	st.d	sp[24],r8
80006e40:	30 08       	mov	r8,0
80006e42:	fc 19 3f f0 	movh	r9,0x3ff0
80006e46:	fa ea 00 18 	ld.d	r10,sp[24]
80006e4a:	f0 1f 00 15 	mcall	80006e9c <_dtoa_r+0x4b0>
80006e4e:	f9 bc 00 00 	moveq	r12,0
80006e52:	f9 bc 01 01 	movne	r12,1
80006e56:	e9 ec 00 0c 	and	r12,r4,r12
80006e5a:	c2 30       	breq	80006ea0 <_dtoa_r+0x4b4>
80006e5c:	40 98       	lddsp	r8,sp[0x24]
80006e5e:	58 08       	cp.w	r8,0
80006e60:	e0 8a 01 0c 	brle	80007078 <_dtoa_r+0x68c>
80006e64:	30 08       	mov	r8,0
80006e66:	fc 19 40 24 	movh	r9,0x4024
80006e6a:	ec c4 00 01 	sub	r4,r6,1
80006e6e:	fa ea 00 18 	ld.d	r10,sp[24]
80006e72:	2f f5       	sub	r5,-1
80006e74:	50 64       	stdsp	sp[0x18],r4
80006e76:	f0 1f 00 09 	mcall	80006e98 <_dtoa_r+0x4ac>
80006e7a:	40 94       	lddsp	r4,sp[0x24]
80006e7c:	14 98       	mov	r8,r10
80006e7e:	16 99       	mov	r9,r11
80006e80:	fa e9 00 08 	st.d	sp[8],r8
80006e84:	c1 08       	rjmp	80006ea4 <_dtoa_r+0x4b8>
80006e86:	00 00       	add	r0,r0
80006e88:	80 00       	ld.sh	r0,r0[0x0]
80006e8a:	86 ac       	ld.uh	r12,r3[0x4]
80006e8c:	80 00       	ld.sh	r0,r0[0x0]
80006e8e:	a6 78       	st.h	r3[0xe],r8
80006e90:	80 00       	ld.sh	r0,r0[0x0]
80006e92:	a7 40       	asr	r0,0x6
80006e94:	80 00       	ld.sh	r0,r0[0x0]
80006e96:	99 6c       	st.w	r12[0x18],r12
80006e98:	80 00       	ld.sh	r0,r0[0x0]
80006e9a:	92 e0       	ld.uh	r0,r9[0xc]
80006e9c:	80 00       	ld.sh	r0,r0[0x0]
80006e9e:	99 04       	st.w	r12[0x0],r4
80006ea0:	50 66       	stdsp	sp[0x18],r6
80006ea2:	02 94       	mov	r4,r1
80006ea4:	0a 9c       	mov	r12,r5
80006ea6:	f0 1f 00 69 	mcall	80007048 <_dtoa_r+0x65c>
80006eaa:	fa e8 00 08 	ld.d	r8,sp[8]
80006eae:	f0 1f 00 68 	mcall	8000704c <_dtoa_r+0x660>
80006eb2:	30 08       	mov	r8,0
80006eb4:	fc 19 40 1c 	movh	r9,0x401c
80006eb8:	f0 1f 00 66 	mcall	80007050 <_dtoa_r+0x664>
80006ebc:	14 98       	mov	r8,r10
80006ebe:	16 99       	mov	r9,r11
80006ec0:	fa e9 00 28 	st.d	sp[40],r8
80006ec4:	fc 18 fc c0 	movh	r8,0xfcc0
80006ec8:	40 a5       	lddsp	r5,sp[0x28]
80006eca:	10 05       	add	r5,r8
80006ecc:	50 a5       	stdsp	sp[0x28],r5
80006ece:	58 04       	cp.w	r4,0
80006ed0:	c2 11       	brne	80006f12 <_dtoa_r+0x526>
80006ed2:	fa ea 00 08 	ld.d	r10,sp[8]
80006ed6:	30 08       	mov	r8,0
80006ed8:	fc 19 40 14 	movh	r9,0x4014
80006edc:	f0 1f 00 5e 	mcall	80007054 <_dtoa_r+0x668>
80006ee0:	40 bc       	lddsp	r12,sp[0x2c]
80006ee2:	fa eb 00 08 	st.d	sp[8],r10
80006ee6:	14 98       	mov	r8,r10
80006ee8:	16 99       	mov	r9,r11
80006eea:	18 9a       	mov	r10,r12
80006eec:	0a 9b       	mov	r11,r5
80006eee:	f0 1f 00 5b 	mcall	80007058 <_dtoa_r+0x66c>
80006ef2:	e0 81 02 74 	brne	800073da <_dtoa_r+0x9ee>
80006ef6:	0a 98       	mov	r8,r5
80006ef8:	40 b9       	lddsp	r9,sp[0x2c]
80006efa:	ee 18 80 00 	eorh	r8,0x8000
80006efe:	fa ea 00 08 	ld.d	r10,sp[8]
80006f02:	10 95       	mov	r5,r8
80006f04:	12 98       	mov	r8,r9
80006f06:	0a 99       	mov	r9,r5
80006f08:	f0 1f 00 54 	mcall	80007058 <_dtoa_r+0x66c>
80006f0c:	e0 81 02 5e 	brne	800073c8 <_dtoa_r+0x9dc>
80006f10:	cb 48       	rjmp	80007078 <_dtoa_r+0x68c>
80006f12:	4d 39       	lddpc	r9,8000705c <_dtoa_r+0x670>
80006f14:	e8 c8 00 01 	sub	r8,r4,1
80006f18:	40 d5       	lddsp	r5,sp[0x34]
80006f1a:	58 05       	cp.w	r5,0
80006f1c:	c4 f0       	breq	80006fba <_dtoa_r+0x5ce>
80006f1e:	30 0c       	mov	r12,0
80006f20:	f2 08 02 38 	ld.d	r8,r9[r8<<0x3]
80006f24:	51 3c       	stdsp	sp[0x4c],r12
80006f26:	30 0a       	mov	r10,0
80006f28:	fc 1b 3f e0 	movh	r11,0x3fe0
80006f2c:	f0 1f 00 4d 	mcall	80007060 <_dtoa_r+0x674>
80006f30:	fa e8 00 28 	ld.d	r8,sp[40]
80006f34:	40 85       	lddsp	r5,sp[0x20]
80006f36:	f0 1f 00 48 	mcall	80007054 <_dtoa_r+0x668>
80006f3a:	fa eb 00 28 	st.d	sp[40],r10
80006f3e:	fa ea 00 08 	ld.d	r10,sp[8]
80006f42:	f0 1f 00 49 	mcall	80007064 <_dtoa_r+0x678>
80006f46:	51 6c       	stdsp	sp[0x58],r12
80006f48:	f0 1f 00 40 	mcall	80007048 <_dtoa_r+0x65c>
80006f4c:	14 98       	mov	r8,r10
80006f4e:	16 99       	mov	r9,r11
80006f50:	fa ea 00 08 	ld.d	r10,sp[8]
80006f54:	f0 1f 00 40 	mcall	80007054 <_dtoa_r+0x668>
80006f58:	fa eb 00 08 	st.d	sp[8],r10
80006f5c:	41 68       	lddsp	r8,sp[0x58]
80006f5e:	2d 08       	sub	r8,-48
80006f60:	0a c8       	st.b	r5++,r8
80006f62:	41 39       	lddsp	r9,sp[0x4c]
80006f64:	2f f9       	sub	r9,-1
80006f66:	51 39       	stdsp	sp[0x4c],r9
80006f68:	fa e8 00 28 	ld.d	r8,sp[40]
80006f6c:	f0 1f 00 3b 	mcall	80007058 <_dtoa_r+0x66c>
80006f70:	e0 81 03 5a 	brne	80007624 <_dtoa_r+0xc38>
80006f74:	fa e8 00 08 	ld.d	r8,sp[8]
80006f78:	30 0a       	mov	r10,0
80006f7a:	fc 1b 3f f0 	movh	r11,0x3ff0
80006f7e:	f0 1f 00 36 	mcall	80007054 <_dtoa_r+0x668>
80006f82:	fa e8 00 28 	ld.d	r8,sp[40]
80006f86:	f0 1f 00 35 	mcall	80007058 <_dtoa_r+0x66c>
80006f8a:	fa ea 00 28 	ld.d	r10,sp[40]
80006f8e:	30 08       	mov	r8,0
80006f90:	fc 19 40 24 	movh	r9,0x4024
80006f94:	e0 81 00 e8 	brne	80007164 <_dtoa_r+0x778>
80006f98:	41 3c       	lddsp	r12,sp[0x4c]
80006f9a:	08 3c       	cp.w	r12,r4
80006f9c:	c6 e4       	brge	80007078 <_dtoa_r+0x68c>
80006f9e:	f0 1f 00 2c 	mcall	8000704c <_dtoa_r+0x660>
80006fa2:	30 08       	mov	r8,0
80006fa4:	fa eb 00 28 	st.d	sp[40],r10
80006fa8:	fc 19 40 24 	movh	r9,0x4024
80006fac:	fa ea 00 08 	ld.d	r10,sp[8]
80006fb0:	f0 1f 00 27 	mcall	8000704c <_dtoa_r+0x660>
80006fb4:	fa eb 00 08 	st.d	sp[8],r10
80006fb8:	cc 3b       	rjmp	80006f3e <_dtoa_r+0x552>
80006fba:	40 85       	lddsp	r5,sp[0x20]
80006fbc:	08 05       	add	r5,r4
80006fbe:	f2 08 02 3a 	ld.d	r10,r9[r8<<0x3]
80006fc2:	51 35       	stdsp	sp[0x4c],r5
80006fc4:	fa e8 00 28 	ld.d	r8,sp[40]
80006fc8:	40 85       	lddsp	r5,sp[0x20]
80006fca:	f0 1f 00 21 	mcall	8000704c <_dtoa_r+0x660>
80006fce:	fa eb 00 28 	st.d	sp[40],r10
80006fd2:	fa ea 00 08 	ld.d	r10,sp[8]
80006fd6:	f0 1f 00 24 	mcall	80007064 <_dtoa_r+0x678>
80006fda:	51 6c       	stdsp	sp[0x58],r12
80006fdc:	f0 1f 00 1b 	mcall	80007048 <_dtoa_r+0x65c>
80006fe0:	14 98       	mov	r8,r10
80006fe2:	16 99       	mov	r9,r11
80006fe4:	fa ea 00 08 	ld.d	r10,sp[8]
80006fe8:	f0 1f 00 1b 	mcall	80007054 <_dtoa_r+0x668>
80006fec:	fa eb 00 08 	st.d	sp[8],r10
80006ff0:	41 68       	lddsp	r8,sp[0x58]
80006ff2:	2d 08       	sub	r8,-48
80006ff4:	0a c8       	st.b	r5++,r8
80006ff6:	41 3c       	lddsp	r12,sp[0x4c]
80006ff8:	18 35       	cp.w	r5,r12
80006ffa:	c3 71       	brne	80007068 <_dtoa_r+0x67c>
80006ffc:	30 08       	mov	r8,0
80006ffe:	fc 19 3f e0 	movh	r9,0x3fe0
80007002:	fa ea 00 28 	ld.d	r10,sp[40]
80007006:	f0 1f 00 13 	mcall	80007050 <_dtoa_r+0x664>
8000700a:	40 85       	lddsp	r5,sp[0x20]
8000700c:	fa e8 00 08 	ld.d	r8,sp[8]
80007010:	08 05       	add	r5,r4
80007012:	f0 1f 00 12 	mcall	80007058 <_dtoa_r+0x66c>
80007016:	e0 81 00 a7 	brne	80007164 <_dtoa_r+0x778>
8000701a:	fa e8 00 28 	ld.d	r8,sp[40]
8000701e:	30 0a       	mov	r10,0
80007020:	fc 1b 3f e0 	movh	r11,0x3fe0
80007024:	f0 1f 00 0c 	mcall	80007054 <_dtoa_r+0x668>
80007028:	14 98       	mov	r8,r10
8000702a:	16 99       	mov	r9,r11
8000702c:	fa ea 00 08 	ld.d	r10,sp[8]
80007030:	f0 1f 00 0a 	mcall	80007058 <_dtoa_r+0x66c>
80007034:	c2 20       	breq	80007078 <_dtoa_r+0x68c>
80007036:	33 09       	mov	r9,48
80007038:	0a 98       	mov	r8,r5
8000703a:	11 7a       	ld.ub	r10,--r8
8000703c:	f2 0a 18 00 	cp.b	r10,r9
80007040:	e0 81 02 f2 	brne	80007624 <_dtoa_r+0xc38>
80007044:	10 95       	mov	r5,r8
80007046:	cf 9b       	rjmp	80007038 <_dtoa_r+0x64c>
80007048:	80 00       	ld.sh	r0,r0[0x0]
8000704a:	97 96       	st.w	r11[0x24],r6
8000704c:	80 00       	ld.sh	r0,r0[0x0]
8000704e:	92 e0       	ld.uh	r0,r9[0xc]
80007050:	80 00       	ld.sh	r0,r0[0x0]
80007052:	96 54       	ld.sh	r4,r11[0xa]
80007054:	80 00       	ld.sh	r0,r0[0x0]
80007056:	94 b8       	ld.uh	r8,r10[0x6]
80007058:	80 00       	ld.sh	r0,r0[0x0]
8000705a:	99 04       	st.w	r12[0x0],r4
8000705c:	80 00       	ld.sh	r0,r0[0x0]
8000705e:	a6 78       	st.h	r3[0xe],r8
80007060:	80 00       	ld.sh	r0,r0[0x0]
80007062:	99 6c       	st.w	r12[0x18],r12
80007064:	80 00       	ld.sh	r0,r0[0x0]
80007066:	97 68       	st.w	r11[0x18],r8
80007068:	30 08       	mov	r8,0
8000706a:	fc 19 40 24 	movh	r9,0x4024
8000706e:	f0 1f 00 56 	mcall	800071c4 <_dtoa_r+0x7d8>
80007072:	fa eb 00 08 	st.d	sp[8],r10
80007076:	ca eb       	rjmp	80006fd2 <_dtoa_r+0x5e6>
80007078:	fa ea 00 3c 	ld.d	r10,sp[60]
8000707c:	fa eb 00 08 	st.d	sp[8],r10
80007080:	58 e6       	cp.w	r6,14
80007082:	5f ab       	srle	r11
80007084:	41 8a       	lddsp	r10,sp[0x60]
80007086:	30 08       	mov	r8,0
80007088:	f4 09 11 ff 	rsub	r9,r10,-1
8000708c:	f7 e9 03 f9 	and	r9,r11,r9>>0x1f
80007090:	f0 09 18 00 	cp.b	r9,r8
80007094:	e0 80 00 81 	breq	80007196 <_dtoa_r+0x7aa>
80007098:	40 ea       	lddsp	r10,sp[0x38]
8000709a:	58 01       	cp.w	r1,0
8000709c:	5f a9       	srle	r9
8000709e:	f3 ea 03 f9 	and	r9,r9,r10>>0x1f
800070a2:	4c aa       	lddpc	r10,800071c8 <_dtoa_r+0x7dc>
800070a4:	f4 06 02 34 	ld.d	r4,r10[r6<<0x3]
800070a8:	fa e5 00 10 	st.d	sp[16],r4
800070ac:	f0 09 18 00 	cp.b	r9,r8
800070b0:	c1 40       	breq	800070d8 <_dtoa_r+0x6ec>
800070b2:	58 01       	cp.w	r1,0
800070b4:	e0 81 01 8a 	brne	800073c8 <_dtoa_r+0x9dc>
800070b8:	30 08       	mov	r8,0
800070ba:	fc 19 40 14 	movh	r9,0x4014
800070be:	08 9a       	mov	r10,r4
800070c0:	0a 9b       	mov	r11,r5
800070c2:	f0 1f 00 41 	mcall	800071c4 <_dtoa_r+0x7d8>
800070c6:	fa e8 00 08 	ld.d	r8,sp[8]
800070ca:	f0 1f 00 41 	mcall	800071cc <_dtoa_r+0x7e0>
800070ce:	e0 81 01 7d 	brne	800073c8 <_dtoa_r+0x9dc>
800070d2:	02 92       	mov	r2,r1
800070d4:	e0 8f 01 85 	bral	800073de <_dtoa_r+0x9f2>
800070d8:	40 85       	lddsp	r5,sp[0x20]
800070da:	30 14       	mov	r4,1
800070dc:	fa e8 00 10 	ld.d	r8,sp[16]
800070e0:	fa ea 00 08 	ld.d	r10,sp[8]
800070e4:	f0 1f 00 3b 	mcall	800071d0 <_dtoa_r+0x7e4>
800070e8:	f0 1f 00 3b 	mcall	800071d4 <_dtoa_r+0x7e8>
800070ec:	18 92       	mov	r2,r12
800070ee:	f0 1f 00 3b 	mcall	800071d8 <_dtoa_r+0x7ec>
800070f2:	fa e8 00 10 	ld.d	r8,sp[16]
800070f6:	f0 1f 00 34 	mcall	800071c4 <_dtoa_r+0x7d8>
800070fa:	14 98       	mov	r8,r10
800070fc:	16 99       	mov	r9,r11
800070fe:	fa ea 00 08 	ld.d	r10,sp[8]
80007102:	f0 1f 00 37 	mcall	800071dc <_dtoa_r+0x7f0>
80007106:	fa eb 00 08 	st.d	sp[8],r10
8000710a:	e4 c8 ff d0 	sub	r8,r2,-48
8000710e:	0a c8       	st.b	r5++,r8
80007110:	fc 19 40 24 	movh	r9,0x4024
80007114:	30 08       	mov	r8,0
80007116:	02 34       	cp.w	r4,r1
80007118:	c3 31       	brne	8000717e <_dtoa_r+0x792>
8000711a:	fa e8 00 08 	ld.d	r8,sp[8]
8000711e:	f0 1f 00 31 	mcall	800071e0 <_dtoa_r+0x7f4>
80007122:	16 91       	mov	r1,r11
80007124:	14 90       	mov	r0,r10
80007126:	14 98       	mov	r8,r10
80007128:	02 99       	mov	r9,r1
8000712a:	fa ea 00 10 	ld.d	r10,sp[16]
8000712e:	f0 1f 00 2e 	mcall	800071e4 <_dtoa_r+0x7f8>
80007132:	c1 a1       	brne	80007166 <_dtoa_r+0x77a>
80007134:	fa e8 00 10 	ld.d	r8,sp[16]
80007138:	00 9a       	mov	r10,r0
8000713a:	02 9b       	mov	r11,r1
8000713c:	f0 1f 00 2b 	mcall	800071e8 <_dtoa_r+0x7fc>
80007140:	e0 80 02 71 	breq	80007622 <_dtoa_r+0xc36>
80007144:	e5 d2 c0 01 	bfextu	r2,r2,0x0,0x1
80007148:	c0 f1       	brne	80007166 <_dtoa_r+0x77a>
8000714a:	e0 8f 02 6c 	bral	80007622 <_dtoa_r+0xc36>
8000714e:	40 8a       	lddsp	r10,sp[0x20]
80007150:	14 38       	cp.w	r8,r10
80007152:	c0 30       	breq	80007158 <_dtoa_r+0x76c>
80007154:	10 95       	mov	r5,r8
80007156:	c0 98       	rjmp	80007168 <_dtoa_r+0x77c>
80007158:	33 08       	mov	r8,48
8000715a:	40 89       	lddsp	r9,sp[0x20]
8000715c:	2f f6       	sub	r6,-1
8000715e:	b2 88       	st.b	r9[0x0],r8
80007160:	40 88       	lddsp	r8,sp[0x20]
80007162:	c0 88       	rjmp	80007172 <_dtoa_r+0x786>
80007164:	40 66       	lddsp	r6,sp[0x18]
80007166:	33 99       	mov	r9,57
80007168:	0a 98       	mov	r8,r5
8000716a:	11 7a       	ld.ub	r10,--r8
8000716c:	f2 0a 18 00 	cp.b	r10,r9
80007170:	ce f0       	breq	8000714e <_dtoa_r+0x762>
80007172:	50 66       	stdsp	sp[0x18],r6
80007174:	11 89       	ld.ub	r9,r8[0x0]
80007176:	2f f9       	sub	r9,-1
80007178:	b0 89       	st.b	r8[0x0],r9
8000717a:	e0 8f 02 55 	bral	80007624 <_dtoa_r+0xc38>
8000717e:	f0 1f 00 12 	mcall	800071c4 <_dtoa_r+0x7d8>
80007182:	2f f4       	sub	r4,-1
80007184:	fa eb 00 08 	st.d	sp[8],r10
80007188:	30 08       	mov	r8,0
8000718a:	30 09       	mov	r9,0
8000718c:	f0 1f 00 17 	mcall	800071e8 <_dtoa_r+0x7fc>
80007190:	ca 60       	breq	800070dc <_dtoa_r+0x6f0>
80007192:	e0 8f 02 48 	bral	80007622 <_dtoa_r+0xc36>
80007196:	40 d8       	lddsp	r8,sp[0x34]
80007198:	58 08       	cp.w	r8,0
8000719a:	c0 51       	brne	800071a4 <_dtoa_r+0x7b8>
8000719c:	04 98       	mov	r8,r2
8000719e:	00 95       	mov	r5,r0
800071a0:	40 d4       	lddsp	r4,sp[0x34]
800071a2:	c4 a8       	rjmp	80007236 <_dtoa_r+0x84a>
800071a4:	40 c5       	lddsp	r5,sp[0x30]
800071a6:	58 15       	cp.w	r5,1
800071a8:	e0 89 00 22 	brgt	800071ec <_dtoa_r+0x800>
800071ac:	41 74       	lddsp	r4,sp[0x5c]
800071ae:	58 04       	cp.w	r4,0
800071b0:	c0 40       	breq	800071b8 <_dtoa_r+0x7cc>
800071b2:	f4 c9 fb cd 	sub	r9,r10,-1075
800071b6:	c0 48       	rjmp	800071be <_dtoa_r+0x7d2>
800071b8:	41 99       	lddsp	r9,sp[0x64]
800071ba:	f2 09 11 36 	rsub	r9,r9,54
800071be:	04 98       	mov	r8,r2
800071c0:	00 95       	mov	r5,r0
800071c2:	c2 f8       	rjmp	80007220 <_dtoa_r+0x834>
800071c4:	80 00       	ld.sh	r0,r0[0x0]
800071c6:	92 e0       	ld.uh	r0,r9[0xc]
800071c8:	80 00       	ld.sh	r0,r0[0x0]
800071ca:	a6 78       	st.h	r3[0xe],r8
800071cc:	80 00       	ld.sh	r0,r0[0x0]
800071ce:	98 9c       	ld.uh	r12,r12[0x2]
800071d0:	80 00       	ld.sh	r0,r0[0x0]
800071d2:	99 6c       	st.w	r12[0x18],r12
800071d4:	80 00       	ld.sh	r0,r0[0x0]
800071d6:	97 68       	st.w	r11[0x18],r8
800071d8:	80 00       	ld.sh	r0,r0[0x0]
800071da:	97 96       	st.w	r11[0x24],r6
800071dc:	80 00       	ld.sh	r0,r0[0x0]
800071de:	94 b8       	ld.uh	r8,r10[0x6]
800071e0:	80 00       	ld.sh	r0,r0[0x0]
800071e2:	96 54       	ld.sh	r4,r11[0xa]
800071e4:	80 00       	ld.sh	r0,r0[0x0]
800071e6:	99 04       	st.w	r12[0x0],r4
800071e8:	80 00       	ld.sh	r0,r0[0x0]
800071ea:	98 76       	ld.sh	r6,r12[0xe]
800071ec:	e2 c8 00 01 	sub	r8,r1,1
800071f0:	58 01       	cp.w	r1,0
800071f2:	e0 05 17 40 	movge	r5,r0
800071f6:	e2 09 17 40 	movge	r9,r1
800071fa:	e1 d1 e5 15 	sublt	r5,r0,r1
800071fe:	f9 b9 05 00 	movlt	r9,0
80007202:	10 32       	cp.w	r2,r8
80007204:	e5 d8 e4 18 	subge	r8,r2,r8
80007208:	f1 d2 e5 18 	sublt	r8,r8,r2
8000720c:	e5 d8 e5 02 	addlt	r2,r2,r8
80007210:	fb fc 50 11 	ld.wlt	r12,sp[0x44]
80007214:	f9 d8 e5 0c 	addlt	r12,r12,r8
80007218:	fb fc 5a 11 	st.wlt	sp[0x44],r12
8000721c:	f9 b8 05 00 	movlt	r8,0
80007220:	40 4b       	lddsp	r11,sp[0x10]
80007222:	12 0b       	add	r11,r9
80007224:	50 08       	stdsp	sp[0x0],r8
80007226:	50 4b       	stdsp	sp[0x10],r11
80007228:	12 00       	add	r0,r9
8000722a:	30 1b       	mov	r11,1
8000722c:	0e 9c       	mov	r12,r7
8000722e:	f0 1f 01 08 	mcall	8000764c <_dtoa_r+0xc60>
80007232:	40 08       	lddsp	r8,sp[0x0]
80007234:	18 94       	mov	r4,r12
80007236:	40 4a       	lddsp	r10,sp[0x10]
80007238:	58 05       	cp.w	r5,0
8000723a:	5f 99       	srgt	r9
8000723c:	58 0a       	cp.w	r10,0
8000723e:	5f 9a       	srgt	r10
80007240:	f5 e9 00 09 	and	r9,r10,r9
80007244:	c0 80       	breq	80007254 <_dtoa_r+0x868>
80007246:	40 4c       	lddsp	r12,sp[0x10]
80007248:	f8 05 0d 49 	min	r9,r12,r5
8000724c:	12 1c       	sub	r12,r9
8000724e:	12 10       	sub	r0,r9
80007250:	50 4c       	stdsp	sp[0x10],r12
80007252:	12 15       	sub	r5,r9
80007254:	58 02       	cp.w	r2,0
80007256:	e0 8a 00 27 	brle	800072a4 <_dtoa_r+0x8b8>
8000725a:	40 db       	lddsp	r11,sp[0x34]
8000725c:	58 0b       	cp.w	r11,0
8000725e:	c1 d0       	breq	80007298 <_dtoa_r+0x8ac>
80007260:	58 08       	cp.w	r8,0
80007262:	e0 8a 00 17 	brle	80007290 <_dtoa_r+0x8a4>
80007266:	10 9a       	mov	r10,r8
80007268:	50 08       	stdsp	sp[0x0],r8
8000726a:	08 9b       	mov	r11,r4
8000726c:	0e 9c       	mov	r12,r7
8000726e:	f0 1f 00 f9 	mcall	80007650 <_dtoa_r+0xc64>
80007272:	06 9a       	mov	r10,r3
80007274:	18 9b       	mov	r11,r12
80007276:	18 94       	mov	r4,r12
80007278:	0e 9c       	mov	r12,r7
8000727a:	f0 1f 00 f7 	mcall	80007654 <_dtoa_r+0xc68>
8000727e:	18 99       	mov	r9,r12
80007280:	06 9b       	mov	r11,r3
80007282:	50 19       	stdsp	sp[0x4],r9
80007284:	0e 9c       	mov	r12,r7
80007286:	f0 1f 00 f5 	mcall	80007658 <_dtoa_r+0xc6c>
8000728a:	40 19       	lddsp	r9,sp[0x4]
8000728c:	40 08       	lddsp	r8,sp[0x0]
8000728e:	12 93       	mov	r3,r9
80007290:	e4 08 01 0a 	sub	r10,r2,r8
80007294:	c0 80       	breq	800072a4 <_dtoa_r+0x8b8>
80007296:	c0 28       	rjmp	8000729a <_dtoa_r+0x8ae>
80007298:	04 9a       	mov	r10,r2
8000729a:	06 9b       	mov	r11,r3
8000729c:	0e 9c       	mov	r12,r7
8000729e:	f0 1f 00 ed 	mcall	80007650 <_dtoa_r+0xc64>
800072a2:	18 93       	mov	r3,r12
800072a4:	30 1b       	mov	r11,1
800072a6:	0e 9c       	mov	r12,r7
800072a8:	f0 1f 00 e9 	mcall	8000764c <_dtoa_r+0xc60>
800072ac:	41 1a       	lddsp	r10,sp[0x44]
800072ae:	18 92       	mov	r2,r12
800072b0:	58 0a       	cp.w	r10,0
800072b2:	e0 8a 00 07 	brle	800072c0 <_dtoa_r+0x8d4>
800072b6:	18 9b       	mov	r11,r12
800072b8:	0e 9c       	mov	r12,r7
800072ba:	f0 1f 00 e6 	mcall	80007650 <_dtoa_r+0xc64>
800072be:	18 92       	mov	r2,r12
800072c0:	40 c9       	lddsp	r9,sp[0x30]
800072c2:	58 19       	cp.w	r9,1
800072c4:	e0 89 00 14 	brgt	800072ec <_dtoa_r+0x900>
800072c8:	40 38       	lddsp	r8,sp[0xc]
800072ca:	58 08       	cp.w	r8,0
800072cc:	c1 01       	brne	800072ec <_dtoa_r+0x900>
800072ce:	40 29       	lddsp	r9,sp[0x8]
800072d0:	f1 d9 c0 14 	bfextu	r8,r9,0x0,0x14
800072d4:	c0 c1       	brne	800072ec <_dtoa_r+0x900>
800072d6:	12 98       	mov	r8,r9
800072d8:	e6 18 7f f0 	andh	r8,0x7ff0,COH
800072dc:	c0 80       	breq	800072ec <_dtoa_r+0x900>
800072de:	40 4c       	lddsp	r12,sp[0x10]
800072e0:	30 1b       	mov	r11,1
800072e2:	2f fc       	sub	r12,-1
800072e4:	2f f0       	sub	r0,-1
800072e6:	50 4c       	stdsp	sp[0x10],r12
800072e8:	50 6b       	stdsp	sp[0x18],r11
800072ea:	c0 38       	rjmp	800072f0 <_dtoa_r+0x904>
800072ec:	30 0a       	mov	r10,0
800072ee:	50 6a       	stdsp	sp[0x18],r10
800072f0:	41 19       	lddsp	r9,sp[0x44]
800072f2:	58 09       	cp.w	r9,0
800072f4:	c0 31       	brne	800072fa <_dtoa_r+0x90e>
800072f6:	30 1c       	mov	r12,1
800072f8:	c0 98       	rjmp	8000730a <_dtoa_r+0x91e>
800072fa:	64 48       	ld.w	r8,r2[0x10]
800072fc:	2f c8       	sub	r8,-4
800072fe:	e4 08 03 2c 	ld.w	r12,r2[r8<<0x2]
80007302:	f0 1f 00 d7 	mcall	8000765c <_dtoa_r+0xc70>
80007306:	f8 0c 11 20 	rsub	r12,r12,32
8000730a:	40 4b       	lddsp	r11,sp[0x10]
8000730c:	f8 0b 00 08 	add	r8,r12,r11
80007310:	f1 d8 c0 05 	bfextu	r8,r8,0x0,0x5
80007314:	c0 c0       	breq	8000732c <_dtoa_r+0x940>
80007316:	f0 08 11 20 	rsub	r8,r8,32
8000731a:	58 48       	cp.w	r8,4
8000731c:	e0 8a 00 06 	brle	80007328 <_dtoa_r+0x93c>
80007320:	20 48       	sub	r8,4
80007322:	10 0b       	add	r11,r8
80007324:	50 4b       	stdsp	sp[0x10],r11
80007326:	c0 78       	rjmp	80007334 <_dtoa_r+0x948>
80007328:	58 48       	cp.w	r8,4
8000732a:	c0 70       	breq	80007338 <_dtoa_r+0x94c>
8000732c:	40 4a       	lddsp	r10,sp[0x10]
8000732e:	2e 48       	sub	r8,-28
80007330:	10 0a       	add	r10,r8
80007332:	50 4a       	stdsp	sp[0x10],r10
80007334:	10 00       	add	r0,r8
80007336:	10 05       	add	r5,r8
80007338:	58 00       	cp.w	r0,0
8000733a:	e0 8a 00 08 	brle	8000734a <_dtoa_r+0x95e>
8000733e:	06 9b       	mov	r11,r3
80007340:	00 9a       	mov	r10,r0
80007342:	0e 9c       	mov	r12,r7
80007344:	f0 1f 00 c7 	mcall	80007660 <_dtoa_r+0xc74>
80007348:	18 93       	mov	r3,r12
8000734a:	40 49       	lddsp	r9,sp[0x10]
8000734c:	58 09       	cp.w	r9,0
8000734e:	e0 8a 00 08 	brle	8000735e <_dtoa_r+0x972>
80007352:	04 9b       	mov	r11,r2
80007354:	12 9a       	mov	r10,r9
80007356:	0e 9c       	mov	r12,r7
80007358:	f0 1f 00 c2 	mcall	80007660 <_dtoa_r+0xc74>
8000735c:	18 92       	mov	r2,r12
8000735e:	41 48       	lddsp	r8,sp[0x50]
80007360:	58 08       	cp.w	r8,0
80007362:	c1 b0       	breq	80007398 <_dtoa_r+0x9ac>
80007364:	04 9b       	mov	r11,r2
80007366:	06 9c       	mov	r12,r3
80007368:	f0 1f 00 bf 	mcall	80007664 <_dtoa_r+0xc78>
8000736c:	c1 64       	brge	80007398 <_dtoa_r+0x9ac>
8000736e:	06 9b       	mov	r11,r3
80007370:	30 09       	mov	r9,0
80007372:	30 aa       	mov	r10,10
80007374:	0e 9c       	mov	r12,r7
80007376:	f0 1f 00 bd 	mcall	80007668 <_dtoa_r+0xc7c>
8000737a:	20 16       	sub	r6,1
8000737c:	18 93       	mov	r3,r12
8000737e:	40 dc       	lddsp	r12,sp[0x34]
80007380:	58 0c       	cp.w	r12,0
80007382:	c0 31       	brne	80007388 <_dtoa_r+0x99c>
80007384:	40 91       	lddsp	r1,sp[0x24]
80007386:	c0 98       	rjmp	80007398 <_dtoa_r+0x9ac>
80007388:	08 9b       	mov	r11,r4
8000738a:	40 91       	lddsp	r1,sp[0x24]
8000738c:	30 09       	mov	r9,0
8000738e:	30 aa       	mov	r10,10
80007390:	0e 9c       	mov	r12,r7
80007392:	f0 1f 00 b6 	mcall	80007668 <_dtoa_r+0xc7c>
80007396:	18 94       	mov	r4,r12
80007398:	58 01       	cp.w	r1,0
8000739a:	5f a9       	srle	r9
8000739c:	40 cb       	lddsp	r11,sp[0x30]
8000739e:	58 2b       	cp.w	r11,2
800073a0:	5f 98       	srgt	r8
800073a2:	f3 e8 00 08 	and	r8,r9,r8
800073a6:	c2 50       	breq	800073f0 <_dtoa_r+0xa04>
800073a8:	58 01       	cp.w	r1,0
800073aa:	c1 11       	brne	800073cc <_dtoa_r+0x9e0>
800073ac:	04 9b       	mov	r11,r2
800073ae:	02 99       	mov	r9,r1
800073b0:	30 5a       	mov	r10,5
800073b2:	0e 9c       	mov	r12,r7
800073b4:	f0 1f 00 ad 	mcall	80007668 <_dtoa_r+0xc7c>
800073b8:	18 92       	mov	r2,r12
800073ba:	18 9b       	mov	r11,r12
800073bc:	06 9c       	mov	r12,r3
800073be:	f0 1f 00 aa 	mcall	80007664 <_dtoa_r+0xc78>
800073c2:	e0 89 00 0f 	brgt	800073e0 <_dtoa_r+0x9f4>
800073c6:	c0 38       	rjmp	800073cc <_dtoa_r+0x9e0>
800073c8:	30 02       	mov	r2,0
800073ca:	04 94       	mov	r4,r2
800073cc:	40 ea       	lddsp	r10,sp[0x38]
800073ce:	30 09       	mov	r9,0
800073d0:	5c da       	com	r10
800073d2:	40 85       	lddsp	r5,sp[0x20]
800073d4:	50 6a       	stdsp	sp[0x18],r10
800073d6:	50 49       	stdsp	sp[0x10],r9
800073d8:	c0 f9       	rjmp	800075f6 <_dtoa_r+0xc0a>
800073da:	08 92       	mov	r2,r4
800073dc:	40 66       	lddsp	r6,sp[0x18]
800073de:	04 94       	mov	r4,r2
800073e0:	2f f6       	sub	r6,-1
800073e2:	50 66       	stdsp	sp[0x18],r6
800073e4:	33 18       	mov	r8,49
800073e6:	40 85       	lddsp	r5,sp[0x20]
800073e8:	0a c8       	st.b	r5++,r8
800073ea:	30 08       	mov	r8,0
800073ec:	50 48       	stdsp	sp[0x10],r8
800073ee:	c0 49       	rjmp	800075f6 <_dtoa_r+0xc0a>
800073f0:	40 dc       	lddsp	r12,sp[0x34]
800073f2:	58 0c       	cp.w	r12,0
800073f4:	e0 80 00 b5 	breq	8000755e <_dtoa_r+0xb72>
800073f8:	58 05       	cp.w	r5,0
800073fa:	e0 8a 00 08 	brle	8000740a <_dtoa_r+0xa1e>
800073fe:	08 9b       	mov	r11,r4
80007400:	0a 9a       	mov	r10,r5
80007402:	0e 9c       	mov	r12,r7
80007404:	f0 1f 00 97 	mcall	80007660 <_dtoa_r+0xc74>
80007408:	18 94       	mov	r4,r12
8000740a:	40 6b       	lddsp	r11,sp[0x18]
8000740c:	58 0b       	cp.w	r11,0
8000740e:	c0 31       	brne	80007414 <_dtoa_r+0xa28>
80007410:	08 9c       	mov	r12,r4
80007412:	c1 38       	rjmp	80007438 <_dtoa_r+0xa4c>
80007414:	68 1b       	ld.w	r11,r4[0x4]
80007416:	0e 9c       	mov	r12,r7
80007418:	f0 1f 00 95 	mcall	8000766c <_dtoa_r+0xc80>
8000741c:	68 4a       	ld.w	r10,r4[0x10]
8000741e:	18 95       	mov	r5,r12
80007420:	e8 cb ff f4 	sub	r11,r4,-12
80007424:	2f ea       	sub	r10,-2
80007426:	2f 4c       	sub	r12,-12
80007428:	a3 6a       	lsl	r10,0x2
8000742a:	f0 1f 00 92 	mcall	80007670 <_dtoa_r+0xc84>
8000742e:	0a 9b       	mov	r11,r5
80007430:	30 1a       	mov	r10,1
80007432:	0e 9c       	mov	r12,r7
80007434:	f0 1f 00 8b 	mcall	80007660 <_dtoa_r+0xc74>
80007438:	50 44       	stdsp	sp[0x10],r4
8000743a:	40 3a       	lddsp	r10,sp[0xc]
8000743c:	30 19       	mov	r9,1
8000743e:	f5 da c0 01 	bfextu	r10,r10,0x0,0x1
80007442:	18 94       	mov	r4,r12
80007444:	50 da       	stdsp	sp[0x34],r10
80007446:	40 85       	lddsp	r5,sp[0x20]
80007448:	50 99       	stdsp	sp[0x24],r9
8000744a:	50 26       	stdsp	sp[0x8],r6
8000744c:	50 e1       	stdsp	sp[0x38],r1
8000744e:	04 9b       	mov	r11,r2
80007450:	06 9c       	mov	r12,r3
80007452:	f0 1f 00 89 	mcall	80007674 <_dtoa_r+0xc88>
80007456:	40 4b       	lddsp	r11,sp[0x10]
80007458:	f8 c0 ff d0 	sub	r0,r12,-48
8000745c:	06 9c       	mov	r12,r3
8000745e:	f0 1f 00 82 	mcall	80007664 <_dtoa_r+0xc78>
80007462:	08 9a       	mov	r10,r4
80007464:	50 6c       	stdsp	sp[0x18],r12
80007466:	04 9b       	mov	r11,r2
80007468:	0e 9c       	mov	r12,r7
8000746a:	f0 1f 00 84 	mcall	80007678 <_dtoa_r+0xc8c>
8000746e:	18 91       	mov	r1,r12
80007470:	78 38       	ld.w	r8,r12[0xc]
80007472:	58 08       	cp.w	r8,0
80007474:	c0 30       	breq	8000747a <_dtoa_r+0xa8e>
80007476:	30 16       	mov	r6,1
80007478:	c0 68       	rjmp	80007484 <_dtoa_r+0xa98>
8000747a:	18 9b       	mov	r11,r12
8000747c:	06 9c       	mov	r12,r3
8000747e:	f0 1f 00 7a 	mcall	80007664 <_dtoa_r+0xc78>
80007482:	18 96       	mov	r6,r12
80007484:	0e 9c       	mov	r12,r7
80007486:	02 9b       	mov	r11,r1
80007488:	f0 1f 00 74 	mcall	80007658 <_dtoa_r+0xc6c>
8000748c:	40 cc       	lddsp	r12,sp[0x30]
8000748e:	ed ec 10 08 	or	r8,r6,r12
80007492:	c0 d1       	brne	800074ac <_dtoa_r+0xac0>
80007494:	40 db       	lddsp	r11,sp[0x34]
80007496:	58 0b       	cp.w	r11,0
80007498:	c0 a1       	brne	800074ac <_dtoa_r+0xac0>
8000749a:	40 26       	lddsp	r6,sp[0x8]
8000749c:	e0 40 00 39 	cp.w	r0,57
800074a0:	c3 00       	breq	80007500 <_dtoa_r+0xb14>
800074a2:	40 6a       	lddsp	r10,sp[0x18]
800074a4:	58 0a       	cp.w	r10,0
800074a6:	e0 89 00 24 	brgt	800074ee <_dtoa_r+0xb02>
800074aa:	c2 f8       	rjmp	80007508 <_dtoa_r+0xb1c>
800074ac:	40 69       	lddsp	r9,sp[0x18]
800074ae:	58 09       	cp.w	r9,0
800074b0:	c0 85       	brlt	800074c0 <_dtoa_r+0xad4>
800074b2:	12 98       	mov	r8,r9
800074b4:	40 cc       	lddsp	r12,sp[0x30]
800074b6:	18 48       	or	r8,r12
800074b8:	c1 d1       	brne	800074f2 <_dtoa_r+0xb06>
800074ba:	40 db       	lddsp	r11,sp[0x34]
800074bc:	58 0b       	cp.w	r11,0
800074be:	c1 a1       	brne	800074f2 <_dtoa_r+0xb06>
800074c0:	0c 99       	mov	r9,r6
800074c2:	40 26       	lddsp	r6,sp[0x8]
800074c4:	58 09       	cp.w	r9,0
800074c6:	e0 8a 00 21 	brle	80007508 <_dtoa_r+0xb1c>
800074ca:	06 9b       	mov	r11,r3
800074cc:	30 1a       	mov	r10,1
800074ce:	0e 9c       	mov	r12,r7
800074d0:	f0 1f 00 64 	mcall	80007660 <_dtoa_r+0xc74>
800074d4:	04 9b       	mov	r11,r2
800074d6:	18 93       	mov	r3,r12
800074d8:	f0 1f 00 63 	mcall	80007664 <_dtoa_r+0xc78>
800074dc:	e0 89 00 06 	brgt	800074e8 <_dtoa_r+0xafc>
800074e0:	c1 41       	brne	80007508 <_dtoa_r+0xb1c>
800074e2:	ed b0 00 00 	bld	r0,0x0
800074e6:	c1 11       	brne	80007508 <_dtoa_r+0xb1c>
800074e8:	e0 40 00 39 	cp.w	r0,57
800074ec:	c0 a0       	breq	80007500 <_dtoa_r+0xb14>
800074ee:	2f f0       	sub	r0,-1
800074f0:	c0 c8       	rjmp	80007508 <_dtoa_r+0xb1c>
800074f2:	58 06       	cp.w	r6,0
800074f4:	e0 8a 00 0c 	brle	8000750c <_dtoa_r+0xb20>
800074f8:	40 26       	lddsp	r6,sp[0x8]
800074fa:	e0 40 00 39 	cp.w	r0,57
800074fe:	c0 41       	brne	80007506 <_dtoa_r+0xb1a>
80007500:	33 98       	mov	r8,57
80007502:	0a c8       	st.b	r5++,r8
80007504:	c6 78       	rjmp	800075d2 <_dtoa_r+0xbe6>
80007506:	2f f0       	sub	r0,-1
80007508:	0a c0       	st.b	r5++,r0
8000750a:	c7 58       	rjmp	800075f4 <_dtoa_r+0xc08>
8000750c:	0a c0       	st.b	r5++,r0
8000750e:	40 9a       	lddsp	r10,sp[0x24]
80007510:	40 e9       	lddsp	r9,sp[0x38]
80007512:	12 3a       	cp.w	r10,r9
80007514:	c4 30       	breq	8000759a <_dtoa_r+0xbae>
80007516:	06 9b       	mov	r11,r3
80007518:	30 09       	mov	r9,0
8000751a:	30 aa       	mov	r10,10
8000751c:	0e 9c       	mov	r12,r7
8000751e:	f0 1f 00 53 	mcall	80007668 <_dtoa_r+0xc7c>
80007522:	40 48       	lddsp	r8,sp[0x10]
80007524:	18 93       	mov	r3,r12
80007526:	08 38       	cp.w	r8,r4
80007528:	c0 91       	brne	8000753a <_dtoa_r+0xb4e>
8000752a:	10 9b       	mov	r11,r8
8000752c:	30 09       	mov	r9,0
8000752e:	30 aa       	mov	r10,10
80007530:	0e 9c       	mov	r12,r7
80007532:	f0 1f 00 4e 	mcall	80007668 <_dtoa_r+0xc7c>
80007536:	50 4c       	stdsp	sp[0x10],r12
80007538:	c0 e8       	rjmp	80007554 <_dtoa_r+0xb68>
8000753a:	40 4b       	lddsp	r11,sp[0x10]
8000753c:	30 09       	mov	r9,0
8000753e:	30 aa       	mov	r10,10
80007540:	0e 9c       	mov	r12,r7
80007542:	f0 1f 00 4a 	mcall	80007668 <_dtoa_r+0xc7c>
80007546:	08 9b       	mov	r11,r4
80007548:	50 4c       	stdsp	sp[0x10],r12
8000754a:	30 09       	mov	r9,0
8000754c:	30 aa       	mov	r10,10
8000754e:	0e 9c       	mov	r12,r7
80007550:	f0 1f 00 46 	mcall	80007668 <_dtoa_r+0xc7c>
80007554:	18 94       	mov	r4,r12
80007556:	40 9c       	lddsp	r12,sp[0x24]
80007558:	2f fc       	sub	r12,-1
8000755a:	50 9c       	stdsp	sp[0x24],r12
8000755c:	c7 9b       	rjmp	8000744e <_dtoa_r+0xa62>
8000755e:	30 18       	mov	r8,1
80007560:	06 90       	mov	r0,r3
80007562:	40 85       	lddsp	r5,sp[0x20]
80007564:	08 93       	mov	r3,r4
80007566:	0c 94       	mov	r4,r6
80007568:	10 96       	mov	r6,r8
8000756a:	04 9b       	mov	r11,r2
8000756c:	00 9c       	mov	r12,r0
8000756e:	f0 1f 00 42 	mcall	80007674 <_dtoa_r+0xc88>
80007572:	2d 0c       	sub	r12,-48
80007574:	0a cc       	st.b	r5++,r12
80007576:	02 36       	cp.w	r6,r1
80007578:	c0 a4       	brge	8000758c <_dtoa_r+0xba0>
8000757a:	00 9b       	mov	r11,r0
8000757c:	30 09       	mov	r9,0
8000757e:	30 aa       	mov	r10,10
80007580:	0e 9c       	mov	r12,r7
80007582:	2f f6       	sub	r6,-1
80007584:	f0 1f 00 39 	mcall	80007668 <_dtoa_r+0xc7c>
80007588:	18 90       	mov	r0,r12
8000758a:	cf 0b       	rjmp	8000756a <_dtoa_r+0xb7e>
8000758c:	08 96       	mov	r6,r4
8000758e:	30 0b       	mov	r11,0
80007590:	06 94       	mov	r4,r3
80007592:	50 4b       	stdsp	sp[0x10],r11
80007594:	00 93       	mov	r3,r0
80007596:	18 90       	mov	r0,r12
80007598:	c0 28       	rjmp	8000759c <_dtoa_r+0xbb0>
8000759a:	40 26       	lddsp	r6,sp[0x8]
8000759c:	06 9b       	mov	r11,r3
8000759e:	30 1a       	mov	r10,1
800075a0:	0e 9c       	mov	r12,r7
800075a2:	f0 1f 00 30 	mcall	80007660 <_dtoa_r+0xc74>
800075a6:	04 9b       	mov	r11,r2
800075a8:	18 93       	mov	r3,r12
800075aa:	f0 1f 00 2f 	mcall	80007664 <_dtoa_r+0xc78>
800075ae:	e0 89 00 12 	brgt	800075d2 <_dtoa_r+0xbe6>
800075b2:	c1 b1       	brne	800075e8 <_dtoa_r+0xbfc>
800075b4:	e1 d0 c0 01 	bfextu	r0,r0,0x0,0x1
800075b8:	c0 d1       	brne	800075d2 <_dtoa_r+0xbe6>
800075ba:	c1 78       	rjmp	800075e8 <_dtoa_r+0xbfc>
800075bc:	40 89       	lddsp	r9,sp[0x20]
800075be:	12 38       	cp.w	r8,r9
800075c0:	c0 30       	breq	800075c6 <_dtoa_r+0xbda>
800075c2:	10 95       	mov	r5,r8
800075c4:	c0 88       	rjmp	800075d4 <_dtoa_r+0xbe8>
800075c6:	2f f6       	sub	r6,-1
800075c8:	50 66       	stdsp	sp[0x18],r6
800075ca:	33 18       	mov	r8,49
800075cc:	40 8c       	lddsp	r12,sp[0x20]
800075ce:	b8 88       	st.b	r12[0x0],r8
800075d0:	c1 38       	rjmp	800075f6 <_dtoa_r+0xc0a>
800075d2:	33 9a       	mov	r10,57
800075d4:	0a 98       	mov	r8,r5
800075d6:	11 79       	ld.ub	r9,--r8
800075d8:	f4 09 18 00 	cp.b	r9,r10
800075dc:	cf 00       	breq	800075bc <_dtoa_r+0xbd0>
800075de:	2f f9       	sub	r9,-1
800075e0:	b0 89       	st.b	r8[0x0],r9
800075e2:	c0 98       	rjmp	800075f4 <_dtoa_r+0xc08>
800075e4:	10 95       	mov	r5,r8
800075e6:	c0 28       	rjmp	800075ea <_dtoa_r+0xbfe>
800075e8:	33 09       	mov	r9,48
800075ea:	0a 98       	mov	r8,r5
800075ec:	11 7a       	ld.ub	r10,--r8
800075ee:	f2 0a 18 00 	cp.b	r10,r9
800075f2:	cf 90       	breq	800075e4 <_dtoa_r+0xbf8>
800075f4:	50 66       	stdsp	sp[0x18],r6
800075f6:	04 9b       	mov	r11,r2
800075f8:	0e 9c       	mov	r12,r7
800075fa:	f0 1f 00 18 	mcall	80007658 <_dtoa_r+0xc6c>
800075fe:	58 04       	cp.w	r4,0
80007600:	c1 20       	breq	80007624 <_dtoa_r+0xc38>
80007602:	40 4b       	lddsp	r11,sp[0x10]
80007604:	08 3b       	cp.w	r11,r4
80007606:	5f 19       	srne	r9
80007608:	58 0b       	cp.w	r11,0
8000760a:	5f 18       	srne	r8
8000760c:	f3 e8 00 08 	and	r8,r9,r8
80007610:	c0 40       	breq	80007618 <_dtoa_r+0xc2c>
80007612:	0e 9c       	mov	r12,r7
80007614:	f0 1f 00 11 	mcall	80007658 <_dtoa_r+0xc6c>
80007618:	08 9b       	mov	r11,r4
8000761a:	0e 9c       	mov	r12,r7
8000761c:	f0 1f 00 0f 	mcall	80007658 <_dtoa_r+0xc6c>
80007620:	c0 28       	rjmp	80007624 <_dtoa_r+0xc38>
80007622:	50 66       	stdsp	sp[0x18],r6
80007624:	0e 9c       	mov	r12,r7
80007626:	06 9b       	mov	r11,r3
80007628:	f0 1f 00 0c 	mcall	80007658 <_dtoa_r+0xc6c>
8000762c:	30 08       	mov	r8,0
8000762e:	aa 88       	st.b	r5[0x0],r8
80007630:	40 68       	lddsp	r8,sp[0x18]
80007632:	41 5a       	lddsp	r10,sp[0x54]
80007634:	2f f8       	sub	r8,-1
80007636:	41 29       	lddsp	r9,sp[0x48]
80007638:	95 08       	st.w	r10[0x0],r8
8000763a:	40 8c       	lddsp	r12,sp[0x20]
8000763c:	58 09       	cp.w	r9,0
8000763e:	fb f8 10 12 	ld.wne	r8,sp[0x48]
80007642:	f1 f5 1a 00 	st.wne	r8[0x0],r5
80007646:	2e 6d       	sub	sp,-104
80007648:	d8 32       	popm	r0-r7,pc
8000764a:	00 00       	add	r0,r0
8000764c:	80 00       	ld.sh	r0,r0[0x0]
8000764e:	8a 4c       	ld.sh	r12,r5[0x8]
80007650:	80 00       	ld.sh	r0,r0[0x0]
80007652:	8a ec       	ld.uh	r12,r5[0xc]
80007654:	80 00       	ld.sh	r0,r0[0x0]
80007656:	89 44       	st.w	r4[0x10],r4
80007658:	80 00       	ld.sh	r0,r0[0x0]
8000765a:	86 74       	ld.sh	r4,r3[0xe]
8000765c:	80 00       	ld.sh	r0,r0[0x0]
8000765e:	85 52       	st.w	r2[0x14],r2
80007660:	80 00       	ld.sh	r0,r0[0x0]
80007662:	88 b0       	ld.uh	r0,r4[0x6]
80007664:	80 00       	ld.sh	r0,r0[0x0]
80007666:	86 40       	ld.sh	r0,r3[0x8]
80007668:	80 00       	ld.sh	r0,r0[0x0]
8000766a:	8a 64       	ld.sh	r4,r5[0xc]
8000766c:	80 00       	ld.sh	r0,r0[0x0]
8000766e:	86 ac       	ld.uh	r12,r3[0x4]
80007670:	80 00       	ld.sh	r0,r0[0x0]
80007672:	83 ba       	st.w	r1[0x2c],r10
80007674:	80 00       	ld.sh	r0,r0[0x0]
80007676:	68 c8       	ld.w	r8,r4[0x30]
80007678:	80 00       	ld.sh	r0,r0[0x0]
8000767a:	87 d8       	st.w	r3[0x34],r8

8000767c <_fflush_r>:
8000767c:	d4 21       	pushm	r4-r7,lr
8000767e:	16 97       	mov	r7,r11
80007680:	18 96       	mov	r6,r12
80007682:	76 48       	ld.w	r8,r11[0x10]
80007684:	58 08       	cp.w	r8,0
80007686:	c7 d0       	breq	80007780 <_fflush_r+0x104>
80007688:	58 0c       	cp.w	r12,0
8000768a:	c0 60       	breq	80007696 <_fflush_r+0x1a>
8000768c:	78 68       	ld.w	r8,r12[0x18]
8000768e:	58 08       	cp.w	r8,0
80007690:	c0 31       	brne	80007696 <_fflush_r+0x1a>
80007692:	f0 1f 00 3d 	mcall	80007784 <_fflush_r+0x108>
80007696:	4b d8       	lddpc	r8,80007788 <_fflush_r+0x10c>
80007698:	10 37       	cp.w	r7,r8
8000769a:	c0 31       	brne	800076a0 <_fflush_r+0x24>
8000769c:	6c 07       	ld.w	r7,r6[0x0]
8000769e:	c0 a8       	rjmp	800076b2 <_fflush_r+0x36>
800076a0:	4b b8       	lddpc	r8,8000778c <_fflush_r+0x110>
800076a2:	10 37       	cp.w	r7,r8
800076a4:	c0 31       	brne	800076aa <_fflush_r+0x2e>
800076a6:	6c 17       	ld.w	r7,r6[0x4]
800076a8:	c0 58       	rjmp	800076b2 <_fflush_r+0x36>
800076aa:	4b a8       	lddpc	r8,80007790 <_fflush_r+0x114>
800076ac:	10 37       	cp.w	r7,r8
800076ae:	ed f7 00 02 	ld.weq	r7,r6[0x8]
800076b2:	8e 6a       	ld.sh	r10,r7[0xc]
800076b4:	14 98       	mov	r8,r10
800076b6:	ed ba 00 03 	bld	r10,0x3
800076ba:	c4 20       	breq	8000773e <_fflush_r+0xc2>
800076bc:	ab ba       	sbr	r10,0xb
800076be:	ae 6a       	st.h	r7[0xc],r10
800076c0:	6e 18       	ld.w	r8,r7[0x4]
800076c2:	58 08       	cp.w	r8,0
800076c4:	e0 89 00 06 	brgt	800076d0 <_fflush_r+0x54>
800076c8:	6f 08       	ld.w	r8,r7[0x40]
800076ca:	58 08       	cp.w	r8,0
800076cc:	e0 8a 00 5a 	brle	80007780 <_fflush_r+0x104>
800076d0:	6e b8       	ld.w	r8,r7[0x2c]
800076d2:	58 08       	cp.w	r8,0
800076d4:	c5 60       	breq	80007780 <_fflush_r+0x104>
800076d6:	e2 1a 10 00 	andl	r10,0x1000,COH
800076da:	c0 30       	breq	800076e0 <_fflush_r+0x64>
800076dc:	6f 55       	ld.w	r5,r7[0x54]
800076de:	c0 f8       	rjmp	800076fc <_fflush_r+0x80>
800076e0:	30 19       	mov	r9,1
800076e2:	6e 8b       	ld.w	r11,r7[0x20]
800076e4:	0c 9c       	mov	r12,r6
800076e6:	5d 18       	icall	r8
800076e8:	18 95       	mov	r5,r12
800076ea:	5b fc       	cp.w	r12,-1
800076ec:	c0 81       	brne	800076fc <_fflush_r+0x80>
800076ee:	6c 38       	ld.w	r8,r6[0xc]
800076f0:	59 d8       	cp.w	r8,29
800076f2:	c4 70       	breq	80007780 <_fflush_r+0x104>
800076f4:	8e 68       	ld.sh	r8,r7[0xc]
800076f6:	a7 a8       	sbr	r8,0x6
800076f8:	ae 68       	st.h	r7[0xc],r8
800076fa:	d8 22       	popm	r4-r7,pc
800076fc:	8e 68       	ld.sh	r8,r7[0xc]
800076fe:	ed b8 00 02 	bld	r8,0x2
80007702:	c0 91       	brne	80007714 <_fflush_r+0x98>
80007704:	6e 18       	ld.w	r8,r7[0x4]
80007706:	10 15       	sub	r5,r8
80007708:	6e d8       	ld.w	r8,r7[0x34]
8000770a:	58 08       	cp.w	r8,0
8000770c:	ef f8 10 10 	ld.wne	r8,r7[0x40]
80007710:	eb d8 e1 15 	subne	r5,r5,r8
80007714:	6e b8       	ld.w	r8,r7[0x2c]
80007716:	0c 9c       	mov	r12,r6
80007718:	30 09       	mov	r9,0
8000771a:	0a 9a       	mov	r10,r5
8000771c:	6e 8b       	ld.w	r11,r7[0x20]
8000771e:	5d 18       	icall	r8
80007720:	8e 68       	ld.sh	r8,r7[0xc]
80007722:	0a 3c       	cp.w	r12,r5
80007724:	c2 61       	brne	80007770 <_fflush_r+0xf4>
80007726:	ab d8       	cbr	r8,0xb
80007728:	30 0c       	mov	r12,0
8000772a:	6e 49       	ld.w	r9,r7[0x10]
8000772c:	ae 68       	st.h	r7[0xc],r8
8000772e:	8f 1c       	st.w	r7[0x4],r12
80007730:	8f 09       	st.w	r7[0x0],r9
80007732:	ed b8 00 0c 	bld	r8,0xc
80007736:	c2 51       	brne	80007780 <_fflush_r+0x104>
80007738:	ef 45 00 54 	st.w	r7[84],r5
8000773c:	d8 22       	popm	r4-r7,pc
8000773e:	6e 45       	ld.w	r5,r7[0x10]
80007740:	58 05       	cp.w	r5,0
80007742:	c1 f0       	breq	80007780 <_fflush_r+0x104>
80007744:	6e 04       	ld.w	r4,r7[0x0]
80007746:	f5 da c0 02 	bfextu	r10,r10,0x0,0x2
8000774a:	8f 05       	st.w	r7[0x0],r5
8000774c:	f9 b8 01 00 	movne	r8,0
80007750:	ef f8 00 05 	ld.weq	r8,r7[0x14]
80007754:	0a 14       	sub	r4,r5
80007756:	8f 28       	st.w	r7[0x8],r8
80007758:	c1 18       	rjmp	8000777a <_fflush_r+0xfe>
8000775a:	08 99       	mov	r9,r4
8000775c:	0a 9a       	mov	r10,r5
8000775e:	6e a8       	ld.w	r8,r7[0x28]
80007760:	6e 8b       	ld.w	r11,r7[0x20]
80007762:	0c 9c       	mov	r12,r6
80007764:	5d 18       	icall	r8
80007766:	18 14       	sub	r4,r12
80007768:	58 0c       	cp.w	r12,0
8000776a:	e0 89 00 07 	brgt	80007778 <_fflush_r+0xfc>
8000776e:	8e 68       	ld.sh	r8,r7[0xc]
80007770:	a7 a8       	sbr	r8,0x6
80007772:	3f fc       	mov	r12,-1
80007774:	ae 68       	st.h	r7[0xc],r8
80007776:	d8 22       	popm	r4-r7,pc
80007778:	18 05       	add	r5,r12
8000777a:	58 04       	cp.w	r4,0
8000777c:	fe 99 ff ef 	brgt	8000775a <_fflush_r+0xde>
80007780:	d8 2a       	popm	r4-r7,pc,r12=0
80007782:	00 00       	add	r0,r0
80007784:	80 00       	ld.sh	r0,r0[0x0]
80007786:	78 58       	ld.w	r8,r12[0x14]
80007788:	80 00       	ld.sh	r0,r0[0x0]
8000778a:	a5 c4       	cbr	r4,0x4
8000778c:	80 00       	ld.sh	r0,r0[0x0]
8000778e:	a5 e4       	*unknown*
80007790:	80 00       	ld.sh	r0,r0[0x0]
80007792:	a6 04       	st.h	r3[0x0],r4

80007794 <__sfp_lock_acquire>:
80007794:	5e fc       	retal	r12

80007796 <__sfp_lock_release>:
80007796:	5e fc       	retal	r12

80007798 <_cleanup_r>:
80007798:	d4 01       	pushm	lr
8000779a:	48 3b       	lddpc	r11,800077a4 <_cleanup_r+0xc>
8000779c:	f0 1f 00 03 	mcall	800077a8 <_cleanup_r+0x10>
800077a0:	d8 02       	popm	pc
800077a2:	00 00       	add	r0,r0
800077a4:	80 00       	ld.sh	r0,r0[0x0]
800077a6:	92 44       	ld.sh	r4,r9[0x8]
800077a8:	80 00       	ld.sh	r0,r0[0x0]
800077aa:	7e 14       	ld.w	r4,pc[0x4]

800077ac <__sfmoreglue>:
800077ac:	d4 21       	pushm	r4-r7,lr
800077ae:	16 95       	mov	r5,r11
800077b0:	f6 06 10 5c 	mul	r6,r11,92
800077b4:	ec cb ff f4 	sub	r11,r6,-12
800077b8:	f0 1f 00 07 	mcall	800077d4 <__sfmoreglue+0x28>
800077bc:	18 97       	mov	r7,r12
800077be:	c0 90       	breq	800077d0 <__sfmoreglue+0x24>
800077c0:	99 15       	st.w	r12[0x4],r5
800077c2:	30 0b       	mov	r11,0
800077c4:	2f 4c       	sub	r12,-12
800077c6:	0c 9a       	mov	r10,r6
800077c8:	8f 2c       	st.w	r7[0x8],r12
800077ca:	8f 0b       	st.w	r7[0x0],r11
800077cc:	f0 1f 00 03 	mcall	800077d8 <__sfmoreglue+0x2c>
800077d0:	0e 9c       	mov	r12,r7
800077d2:	d8 22       	popm	r4-r7,pc
800077d4:	80 00       	ld.sh	r0,r0[0x0]
800077d6:	7f 54       	ld.w	r4,pc[0x54]
800077d8:	80 00       	ld.sh	r0,r0[0x0]
800077da:	85 40       	st.w	r2[0x10],r0

800077dc <__sfp>:
800077dc:	d4 21       	pushm	r4-r7,lr
800077de:	49 c8       	lddpc	r8,8000784c <__sfp+0x70>
800077e0:	18 96       	mov	r6,r12
800077e2:	70 07       	ld.w	r7,r8[0x0]
800077e4:	6e 68       	ld.w	r8,r7[0x18]
800077e6:	58 08       	cp.w	r8,0
800077e8:	c0 41       	brne	800077f0 <__sfp+0x14>
800077ea:	0e 9c       	mov	r12,r7
800077ec:	f0 1f 00 19 	mcall	80007850 <__sfp+0x74>
800077f0:	ee c7 ff 28 	sub	r7,r7,-216
800077f4:	30 05       	mov	r5,0
800077f6:	6e 2c       	ld.w	r12,r7[0x8]
800077f8:	6e 18       	ld.w	r8,r7[0x4]
800077fa:	c0 68       	rjmp	80007806 <__sfp+0x2a>
800077fc:	98 69       	ld.sh	r9,r12[0xc]
800077fe:	ea 09 19 00 	cp.h	r9,r5
80007802:	c1 20       	breq	80007826 <__sfp+0x4a>
80007804:	2a 4c       	sub	r12,-92
80007806:	20 18       	sub	r8,1
80007808:	cf a7       	brpl	800077fc <__sfp+0x20>
8000780a:	6e 08       	ld.w	r8,r7[0x0]
8000780c:	58 08       	cp.w	r8,0
8000780e:	c0 71       	brne	8000781c <__sfp+0x40>
80007810:	30 4b       	mov	r11,4
80007812:	0c 9c       	mov	r12,r6
80007814:	f0 1f 00 10 	mcall	80007854 <__sfp+0x78>
80007818:	8f 0c       	st.w	r7[0x0],r12
8000781a:	c0 30       	breq	80007820 <__sfp+0x44>
8000781c:	6e 07       	ld.w	r7,r7[0x0]
8000781e:	ce cb       	rjmp	800077f6 <__sfp+0x1a>
80007820:	30 c8       	mov	r8,12
80007822:	8d 38       	st.w	r6[0xc],r8
80007824:	d8 22       	popm	r4-r7,pc
80007826:	30 08       	mov	r8,0
80007828:	f9 48 00 4c 	st.w	r12[76],r8
8000782c:	99 08       	st.w	r12[0x0],r8
8000782e:	99 28       	st.w	r12[0x8],r8
80007830:	99 18       	st.w	r12[0x4],r8
80007832:	99 48       	st.w	r12[0x10],r8
80007834:	99 58       	st.w	r12[0x14],r8
80007836:	99 68       	st.w	r12[0x18],r8
80007838:	99 d8       	st.w	r12[0x34],r8
8000783a:	99 e8       	st.w	r12[0x38],r8
8000783c:	f9 48 00 48 	st.w	r12[72],r8
80007840:	3f f8       	mov	r8,-1
80007842:	b8 78       	st.h	r12[0xe],r8
80007844:	30 18       	mov	r8,1
80007846:	b8 68       	st.h	r12[0xc],r8
80007848:	d8 22       	popm	r4-r7,pc
8000784a:	00 00       	add	r0,r0
8000784c:	80 00       	ld.sh	r0,r0[0x0]
8000784e:	a6 28       	st.h	r3[0x4],r8
80007850:	80 00       	ld.sh	r0,r0[0x0]
80007852:	78 58       	ld.w	r8,r12[0x14]
80007854:	80 00       	ld.sh	r0,r0[0x0]
80007856:	77 ac       	ld.w	r12,r11[0x68]

80007858 <__sinit>:
80007858:	d4 21       	pushm	r4-r7,lr
8000785a:	18 96       	mov	r6,r12
8000785c:	78 67       	ld.w	r7,r12[0x18]
8000785e:	58 07       	cp.w	r7,0
80007860:	c4 71       	brne	800078ee <__sinit+0x96>
80007862:	4a 48       	lddpc	r8,800078f0 <__sinit+0x98>
80007864:	30 15       	mov	r5,1
80007866:	99 a8       	st.w	r12[0x28],r8
80007868:	f9 47 00 d8 	st.w	r12[216],r7
8000786c:	f9 47 00 dc 	st.w	r12[220],r7
80007870:	f9 47 00 e0 	st.w	r12[224],r7
80007874:	99 65       	st.w	r12[0x18],r5
80007876:	f0 1f 00 20 	mcall	800078f4 <__sinit+0x9c>
8000787a:	8d 0c       	st.w	r6[0x0],r12
8000787c:	0c 9c       	mov	r12,r6
8000787e:	f0 1f 00 1e 	mcall	800078f4 <__sinit+0x9c>
80007882:	8d 1c       	st.w	r6[0x4],r12
80007884:	0c 9c       	mov	r12,r6
80007886:	f0 1f 00 1c 	mcall	800078f4 <__sinit+0x9c>
8000788a:	6c 09       	ld.w	r9,r6[0x0]
8000788c:	30 48       	mov	r8,4
8000788e:	93 07       	st.w	r9[0x0],r7
80007890:	b2 68       	st.h	r9[0xc],r8
80007892:	93 17       	st.w	r9[0x4],r7
80007894:	93 27       	st.w	r9[0x8],r7
80007896:	6c 18       	ld.w	r8,r6[0x4]
80007898:	b2 77       	st.h	r9[0xe],r7
8000789a:	93 47       	st.w	r9[0x10],r7
8000789c:	93 57       	st.w	r9[0x14],r7
8000789e:	93 67       	st.w	r9[0x18],r7
800078a0:	93 89       	st.w	r9[0x20],r9
800078a2:	91 07       	st.w	r8[0x0],r7
800078a4:	91 17       	st.w	r8[0x4],r7
800078a6:	91 27       	st.w	r8[0x8],r7
800078a8:	49 4e       	lddpc	lr,800078f8 <__sinit+0xa0>
800078aa:	49 5b       	lddpc	r11,800078fc <__sinit+0xa4>
800078ac:	93 9e       	st.w	r9[0x24],lr
800078ae:	93 ab       	st.w	r9[0x28],r11
800078b0:	49 4a       	lddpc	r10,80007900 <__sinit+0xa8>
800078b2:	49 54       	lddpc	r4,80007904 <__sinit+0xac>
800078b4:	93 ba       	st.w	r9[0x2c],r10
800078b6:	93 c4       	st.w	r9[0x30],r4
800078b8:	30 99       	mov	r9,9
800078ba:	b0 69       	st.h	r8[0xc],r9
800078bc:	b0 75       	st.h	r8[0xe],r5
800078be:	91 c4       	st.w	r8[0x30],r4
800078c0:	91 47       	st.w	r8[0x10],r7
800078c2:	91 57       	st.w	r8[0x14],r7
800078c4:	91 67       	st.w	r8[0x18],r7
800078c6:	91 88       	st.w	r8[0x20],r8
800078c8:	91 9e       	st.w	r8[0x24],lr
800078ca:	91 ab       	st.w	r8[0x28],r11
800078cc:	91 ba       	st.w	r8[0x2c],r10
800078ce:	8d 2c       	st.w	r6[0x8],r12
800078d0:	31 28       	mov	r8,18
800078d2:	99 07       	st.w	r12[0x0],r7
800078d4:	b8 68       	st.h	r12[0xc],r8
800078d6:	99 17       	st.w	r12[0x4],r7
800078d8:	99 27       	st.w	r12[0x8],r7
800078da:	30 28       	mov	r8,2
800078dc:	b8 78       	st.h	r12[0xe],r8
800078de:	99 c4       	st.w	r12[0x30],r4
800078e0:	99 67       	st.w	r12[0x18],r7
800078e2:	99 9e       	st.w	r12[0x24],lr
800078e4:	99 ab       	st.w	r12[0x28],r11
800078e6:	99 ba       	st.w	r12[0x2c],r10
800078e8:	99 47       	st.w	r12[0x10],r7
800078ea:	99 57       	st.w	r12[0x14],r7
800078ec:	99 8c       	st.w	r12[0x20],r12
800078ee:	d8 22       	popm	r4-r7,pc
800078f0:	80 00       	ld.sh	r0,r0[0x0]
800078f2:	77 98       	ld.w	r8,r11[0x64]
800078f4:	80 00       	ld.sh	r0,r0[0x0]
800078f6:	77 dc       	ld.w	r12,r11[0x74]
800078f8:	80 00       	ld.sh	r0,r0[0x0]
800078fa:	8f 58       	st.w	r7[0x14],r8
800078fc:	80 00       	ld.sh	r0,r0[0x0]
800078fe:	8f 20       	st.w	r7[0x8],r0
80007900:	80 00       	ld.sh	r0,r0[0x0]
80007902:	8e f8       	ld.uh	r8,r7[0xe]
80007904:	80 00       	ld.sh	r0,r0[0x0]
80007906:	8e e8       	ld.uh	r8,r7[0xc]

80007908 <_malloc_trim_r>:
80007908:	d4 21       	pushm	r4-r7,lr
8000790a:	16 95       	mov	r5,r11
8000790c:	18 97       	mov	r7,r12
8000790e:	f0 1f 00 23 	mcall	80007998 <_malloc_trim_r+0x90>
80007912:	4a 34       	lddpc	r4,8000799c <_malloc_trim_r+0x94>
80007914:	68 28       	ld.w	r8,r4[0x8]
80007916:	70 16       	ld.w	r6,r8[0x4]
80007918:	e0 16 ff fc 	andl	r6,0xfffc
8000791c:	ec c8 ff 91 	sub	r8,r6,-111
80007920:	f0 05 01 05 	sub	r5,r8,r5
80007924:	e0 15 ff 80 	andl	r5,0xff80
80007928:	ea c5 00 80 	sub	r5,r5,128
8000792c:	e0 45 00 7f 	cp.w	r5,127
80007930:	e0 8a 00 23 	brle	80007976 <_malloc_trim_r+0x6e>
80007934:	30 0b       	mov	r11,0
80007936:	0e 9c       	mov	r12,r7
80007938:	f0 1f 00 1a 	mcall	800079a0 <_malloc_trim_r+0x98>
8000793c:	68 28       	ld.w	r8,r4[0x8]
8000793e:	0c 08       	add	r8,r6
80007940:	10 3c       	cp.w	r12,r8
80007942:	c1 a1       	brne	80007976 <_malloc_trim_r+0x6e>
80007944:	ea 0b 11 00 	rsub	r11,r5,0
80007948:	0e 9c       	mov	r12,r7
8000794a:	f0 1f 00 16 	mcall	800079a0 <_malloc_trim_r+0x98>
8000794e:	5b fc       	cp.w	r12,-1
80007950:	c1 71       	brne	8000797e <_malloc_trim_r+0x76>
80007952:	30 0b       	mov	r11,0
80007954:	0e 9c       	mov	r12,r7
80007956:	f0 1f 00 13 	mcall	800079a0 <_malloc_trim_r+0x98>
8000795a:	68 28       	ld.w	r8,r4[0x8]
8000795c:	f8 08 01 09 	sub	r9,r12,r8
80007960:	58 f9       	cp.w	r9,15
80007962:	e0 8a 00 0a 	brle	80007976 <_malloc_trim_r+0x6e>
80007966:	a1 a9       	sbr	r9,0x0
80007968:	91 19       	st.w	r8[0x4],r9
8000796a:	48 f8       	lddpc	r8,800079a4 <_malloc_trim_r+0x9c>
8000796c:	70 09       	ld.w	r9,r8[0x0]
8000796e:	48 f8       	lddpc	r8,800079a8 <_malloc_trim_r+0xa0>
80007970:	f8 09 01 09 	sub	r9,r12,r9
80007974:	91 09       	st.w	r8[0x0],r9
80007976:	0e 9c       	mov	r12,r7
80007978:	f0 1f 00 0d 	mcall	800079ac <_malloc_trim_r+0xa4>
8000797c:	d8 2a       	popm	r4-r7,pc,r12=0
8000797e:	68 28       	ld.w	r8,r4[0x8]
80007980:	0a 16       	sub	r6,r5
80007982:	a1 a6       	sbr	r6,0x0
80007984:	91 16       	st.w	r8[0x4],r6
80007986:	48 98       	lddpc	r8,800079a8 <_malloc_trim_r+0xa0>
80007988:	70 09       	ld.w	r9,r8[0x0]
8000798a:	0a 19       	sub	r9,r5
8000798c:	0e 9c       	mov	r12,r7
8000798e:	91 09       	st.w	r8[0x0],r9
80007990:	f0 1f 00 07 	mcall	800079ac <_malloc_trim_r+0xa4>
80007994:	da 2a       	popm	r4-r7,pc,r12=1
80007996:	00 00       	add	r0,r0
80007998:	80 00       	ld.sh	r0,r0[0x0]
8000799a:	85 4e       	st.w	r2[0x10],lr
8000799c:	00 00       	add	r0,r0
8000799e:	00 f8       	st.b	--r0,r8
800079a0:	80 00       	ld.sh	r0,r0[0x0]
800079a2:	8e c0       	ld.uh	r0,r7[0x8]
800079a4:	00 00       	add	r0,r0
800079a6:	05 04       	ld.w	r4,r2++
800079a8:	00 00       	add	r0,r0
800079aa:	06 54       	eor	r4,r3
800079ac:	80 00       	ld.sh	r0,r0[0x0]
800079ae:	85 50       	st.w	r2[0x14],r0

800079b0 <_free_r>:
800079b0:	d4 21       	pushm	r4-r7,lr
800079b2:	16 96       	mov	r6,r11
800079b4:	18 97       	mov	r7,r12
800079b6:	58 0b       	cp.w	r11,0
800079b8:	e0 80 00 c8 	breq	80007b48 <_free_r+0x198>
800079bc:	f0 1f 00 4c 	mcall	80007aec <_free_r+0x13c>
800079c0:	20 86       	sub	r6,8
800079c2:	4c ca       	lddpc	r10,80007af0 <_free_r+0x140>
800079c4:	6c 18       	ld.w	r8,r6[0x4]
800079c6:	74 2e       	ld.w	lr,r10[0x8]
800079c8:	f9 d8 c0 01 	bfextu	r12,r8,0x0,0x1
800079cc:	a1 c8       	cbr	r8,0x0
800079ce:	ec 08 00 09 	add	r9,r6,r8
800079d2:	72 1b       	ld.w	r11,r9[0x4]
800079d4:	e0 1b ff fc 	andl	r11,0xfffc
800079d8:	1c 39       	cp.w	r9,lr
800079da:	c1 d1       	brne	80007a14 <_free_r+0x64>
800079dc:	f6 08 00 08 	add	r8,r11,r8
800079e0:	58 0c       	cp.w	r12,0
800079e2:	c0 81       	brne	800079f2 <_free_r+0x42>
800079e4:	6c 09       	ld.w	r9,r6[0x0]
800079e6:	12 16       	sub	r6,r9
800079e8:	12 08       	add	r8,r9
800079ea:	6c 3b       	ld.w	r11,r6[0xc]
800079ec:	6c 29       	ld.w	r9,r6[0x8]
800079ee:	97 29       	st.w	r11[0x8],r9
800079f0:	93 3b       	st.w	r9[0xc],r11
800079f2:	10 99       	mov	r9,r8
800079f4:	95 26       	st.w	r10[0x8],r6
800079f6:	a1 a9       	sbr	r9,0x0
800079f8:	8d 19       	st.w	r6[0x4],r9
800079fa:	4b f9       	lddpc	r9,80007af4 <_free_r+0x144>
800079fc:	72 09       	ld.w	r9,r9[0x0]
800079fe:	12 38       	cp.w	r8,r9
80007a00:	c0 63       	brcs	80007a0c <_free_r+0x5c>
80007a02:	4b e8       	lddpc	r8,80007af8 <_free_r+0x148>
80007a04:	0e 9c       	mov	r12,r7
80007a06:	70 0b       	ld.w	r11,r8[0x0]
80007a08:	f0 1f 00 3d 	mcall	80007afc <_free_r+0x14c>
80007a0c:	0e 9c       	mov	r12,r7
80007a0e:	f0 1f 00 3d 	mcall	80007b00 <_free_r+0x150>
80007a12:	d8 22       	popm	r4-r7,pc
80007a14:	93 1b       	st.w	r9[0x4],r11
80007a16:	58 0c       	cp.w	r12,0
80007a18:	c0 30       	breq	80007a1e <_free_r+0x6e>
80007a1a:	30 0c       	mov	r12,0
80007a1c:	c1 08       	rjmp	80007a3c <_free_r+0x8c>
80007a1e:	6c 0e       	ld.w	lr,r6[0x0]
80007a20:	f4 c5 ff f8 	sub	r5,r10,-8
80007a24:	1c 16       	sub	r6,lr
80007a26:	1c 08       	add	r8,lr
80007a28:	6c 2e       	ld.w	lr,r6[0x8]
80007a2a:	0a 3e       	cp.w	lr,r5
80007a2c:	f9 bc 00 01 	moveq	r12,1
80007a30:	ed f5 10 03 	ld.wne	r5,r6[0xc]
80007a34:	eb fe 1a 02 	st.wne	r5[0x8],lr
80007a38:	fd f5 1a 03 	st.wne	lr[0xc],r5
80007a3c:	f2 0b 00 0e 	add	lr,r9,r11
80007a40:	7c 1e       	ld.w	lr,lr[0x4]
80007a42:	ed be 00 00 	bld	lr,0x0
80007a46:	c1 30       	breq	80007a6c <_free_r+0xbc>
80007a48:	16 08       	add	r8,r11
80007a4a:	58 0c       	cp.w	r12,0
80007a4c:	c0 c1       	brne	80007a64 <_free_r+0xb4>
80007a4e:	4a 9e       	lddpc	lr,80007af0 <_free_r+0x140>
80007a50:	72 2b       	ld.w	r11,r9[0x8]
80007a52:	2f 8e       	sub	lr,-8
80007a54:	1c 3b       	cp.w	r11,lr
80007a56:	c0 71       	brne	80007a64 <_free_r+0xb4>
80007a58:	97 36       	st.w	r11[0xc],r6
80007a5a:	97 26       	st.w	r11[0x8],r6
80007a5c:	8d 2b       	st.w	r6[0x8],r11
80007a5e:	8d 3b       	st.w	r6[0xc],r11
80007a60:	30 1c       	mov	r12,1
80007a62:	c0 58       	rjmp	80007a6c <_free_r+0xbc>
80007a64:	72 2b       	ld.w	r11,r9[0x8]
80007a66:	72 39       	ld.w	r9,r9[0xc]
80007a68:	93 2b       	st.w	r9[0x8],r11
80007a6a:	97 39       	st.w	r11[0xc],r9
80007a6c:	10 99       	mov	r9,r8
80007a6e:	ec 08 09 08 	st.w	r6[r8],r8
80007a72:	a1 a9       	sbr	r9,0x0
80007a74:	8d 19       	st.w	r6[0x4],r9
80007a76:	58 0c       	cp.w	r12,0
80007a78:	c6 51       	brne	80007b42 <_free_r+0x192>
80007a7a:	e0 48 01 ff 	cp.w	r8,511
80007a7e:	e0 8b 00 13 	brhi	80007aa4 <_free_r+0xf4>
80007a82:	a3 98       	lsr	r8,0x3
80007a84:	f4 08 00 39 	add	r9,r10,r8<<0x3
80007a88:	72 2b       	ld.w	r11,r9[0x8]
80007a8a:	8d 39       	st.w	r6[0xc],r9
80007a8c:	8d 2b       	st.w	r6[0x8],r11
80007a8e:	97 36       	st.w	r11[0xc],r6
80007a90:	93 26       	st.w	r9[0x8],r6
80007a92:	a3 48       	asr	r8,0x2
80007a94:	74 19       	ld.w	r9,r10[0x4]
80007a96:	30 1b       	mov	r11,1
80007a98:	f6 08 09 48 	lsl	r8,r11,r8
80007a9c:	f3 e8 10 08 	or	r8,r9,r8
80007aa0:	95 18       	st.w	r10[0x4],r8
80007aa2:	c5 08       	rjmp	80007b42 <_free_r+0x192>
80007aa4:	f0 0b 16 09 	lsr	r11,r8,0x9
80007aa8:	58 4b       	cp.w	r11,4
80007aaa:	e0 8b 00 06 	brhi	80007ab6 <_free_r+0x106>
80007aae:	f0 0b 16 06 	lsr	r11,r8,0x6
80007ab2:	2c 8b       	sub	r11,-56
80007ab4:	c2 b8       	rjmp	80007b0a <_free_r+0x15a>
80007ab6:	59 4b       	cp.w	r11,20
80007ab8:	e0 8b 00 04 	brhi	80007ac0 <_free_r+0x110>
80007abc:	2a 5b       	sub	r11,-91
80007abe:	c2 68       	rjmp	80007b0a <_free_r+0x15a>
80007ac0:	e0 4b 00 54 	cp.w	r11,84
80007ac4:	e0 8b 00 06 	brhi	80007ad0 <_free_r+0x120>
80007ac8:	f0 0b 16 0c 	lsr	r11,r8,0xc
80007acc:	29 2b       	sub	r11,-110
80007ace:	c1 e8       	rjmp	80007b0a <_free_r+0x15a>
80007ad0:	e0 4b 01 54 	cp.w	r11,340
80007ad4:	e0 8b 00 06 	brhi	80007ae0 <_free_r+0x130>
80007ad8:	f0 0b 16 0f 	lsr	r11,r8,0xf
80007adc:	28 9b       	sub	r11,-119
80007ade:	c1 68       	rjmp	80007b0a <_free_r+0x15a>
80007ae0:	e0 4b 05 54 	cp.w	r11,1364
80007ae4:	e0 88 00 10 	brls	80007b04 <_free_r+0x154>
80007ae8:	37 eb       	mov	r11,126
80007aea:	c1 08       	rjmp	80007b0a <_free_r+0x15a>
80007aec:	80 00       	ld.sh	r0,r0[0x0]
80007aee:	85 4e       	st.w	r2[0x10],lr
80007af0:	00 00       	add	r0,r0
80007af2:	00 f8       	st.b	--r0,r8
80007af4:	00 00       	add	r0,r0
80007af6:	05 00       	ld.w	r0,r2++
80007af8:	00 00       	add	r0,r0
80007afa:	06 50       	eor	r0,r3
80007afc:	80 00       	ld.sh	r0,r0[0x0]
80007afe:	79 08       	ld.w	r8,r12[0x40]
80007b00:	80 00       	ld.sh	r0,r0[0x0]
80007b02:	85 50       	st.w	r2[0x14],r0
80007b04:	f0 0b 16 12 	lsr	r11,r8,0x12
80007b08:	28 4b       	sub	r11,-124
80007b0a:	f4 0b 00 3c 	add	r12,r10,r11<<0x3
80007b0e:	78 29       	ld.w	r9,r12[0x8]
80007b10:	18 39       	cp.w	r9,r12
80007b12:	c0 e1       	brne	80007b2e <_free_r+0x17e>
80007b14:	74 18       	ld.w	r8,r10[0x4]
80007b16:	a3 4b       	asr	r11,0x2
80007b18:	30 1c       	mov	r12,1
80007b1a:	f8 0b 09 4b 	lsl	r11,r12,r11
80007b1e:	f1 eb 10 0b 	or	r11,r8,r11
80007b22:	12 98       	mov	r8,r9
80007b24:	95 1b       	st.w	r10[0x4],r11
80007b26:	c0 a8       	rjmp	80007b3a <_free_r+0x18a>
80007b28:	72 29       	ld.w	r9,r9[0x8]
80007b2a:	18 39       	cp.w	r9,r12
80007b2c:	c0 60       	breq	80007b38 <_free_r+0x188>
80007b2e:	72 1a       	ld.w	r10,r9[0x4]
80007b30:	e0 1a ff fc 	andl	r10,0xfffc
80007b34:	14 38       	cp.w	r8,r10
80007b36:	cf 93       	brcs	80007b28 <_free_r+0x178>
80007b38:	72 38       	ld.w	r8,r9[0xc]
80007b3a:	8d 38       	st.w	r6[0xc],r8
80007b3c:	8d 29       	st.w	r6[0x8],r9
80007b3e:	93 36       	st.w	r9[0xc],r6
80007b40:	91 26       	st.w	r8[0x8],r6
80007b42:	0e 9c       	mov	r12,r7
80007b44:	f0 1f 00 02 	mcall	80007b4c <_free_r+0x19c>
80007b48:	d8 22       	popm	r4-r7,pc
80007b4a:	00 00       	add	r0,r0
80007b4c:	80 00       	ld.sh	r0,r0[0x0]
80007b4e:	85 50       	st.w	r2[0x14],r0

80007b50 <__sfvwrite_r>:
80007b50:	d4 31       	pushm	r0-r7,lr
80007b52:	20 3d       	sub	sp,12
80007b54:	14 94       	mov	r4,r10
80007b56:	18 95       	mov	r5,r12
80007b58:	16 97       	mov	r7,r11
80007b5a:	74 28       	ld.w	r8,r10[0x8]
80007b5c:	58 08       	cp.w	r8,0
80007b5e:	e0 80 01 47 	breq	80007dec <__sfvwrite_r+0x29c>
80007b62:	96 68       	ld.sh	r8,r11[0xc]
80007b64:	ed b8 00 03 	bld	r8,0x3
80007b68:	c0 41       	brne	80007b70 <__sfvwrite_r+0x20>
80007b6a:	76 48       	ld.w	r8,r11[0x10]
80007b6c:	58 08       	cp.w	r8,0
80007b6e:	c0 c1       	brne	80007b86 <__sfvwrite_r+0x36>
80007b70:	0e 9b       	mov	r11,r7
80007b72:	0a 9c       	mov	r12,r5
80007b74:	f0 1f 00 a0 	mcall	80007df4 <__sfvwrite_r+0x2a4>
80007b78:	c0 70       	breq	80007b86 <__sfvwrite_r+0x36>
80007b7a:	8e 68       	ld.sh	r8,r7[0xc]
80007b7c:	a7 a8       	sbr	r8,0x6
80007b7e:	ae 68       	st.h	r7[0xc],r8
80007b80:	30 98       	mov	r8,9
80007b82:	8b 38       	st.w	r5[0xc],r8
80007b84:	c3 29       	rjmp	80007de8 <__sfvwrite_r+0x298>
80007b86:	8e 63       	ld.sh	r3,r7[0xc]
80007b88:	68 00       	ld.w	r0,r4[0x0]
80007b8a:	06 96       	mov	r6,r3
80007b8c:	e2 16 00 02 	andl	r6,0x2,COH
80007b90:	c2 10       	breq	80007bd2 <__sfvwrite_r+0x82>
80007b92:	30 03       	mov	r3,0
80007b94:	e0 62 04 00 	mov	r2,1024
80007b98:	06 96       	mov	r6,r3
80007b9a:	c0 48       	rjmp	80007ba2 <__sfvwrite_r+0x52>
80007b9c:	60 03       	ld.w	r3,r0[0x0]
80007b9e:	60 16       	ld.w	r6,r0[0x4]
80007ba0:	2f 80       	sub	r0,-8
80007ba2:	58 06       	cp.w	r6,0
80007ba4:	cf c0       	breq	80007b9c <__sfvwrite_r+0x4c>
80007ba6:	e0 46 04 00 	cp.w	r6,1024
80007baa:	ec 09 17 80 	movls	r9,r6
80007bae:	e4 09 17 b0 	movhi	r9,r2
80007bb2:	06 9a       	mov	r10,r3
80007bb4:	6e a8       	ld.w	r8,r7[0x28]
80007bb6:	6e 8b       	ld.w	r11,r7[0x20]
80007bb8:	0a 9c       	mov	r12,r5
80007bba:	5d 18       	icall	r8
80007bbc:	18 16       	sub	r6,r12
80007bbe:	58 0c       	cp.w	r12,0
80007bc0:	e0 8a 01 11 	brle	80007de2 <__sfvwrite_r+0x292>
80007bc4:	68 28       	ld.w	r8,r4[0x8]
80007bc6:	18 18       	sub	r8,r12
80007bc8:	89 28       	st.w	r4[0x8],r8
80007bca:	e0 80 01 11 	breq	80007dec <__sfvwrite_r+0x29c>
80007bce:	18 03       	add	r3,r12
80007bd0:	ce 9b       	rjmp	80007ba2 <__sfvwrite_r+0x52>
80007bd2:	e7 d3 c0 01 	bfextu	r3,r3,0x0,0x1
80007bd6:	c0 70       	breq	80007be4 <__sfvwrite_r+0x94>
80007bd8:	50 06       	stdsp	sp[0x0],r6
80007bda:	0c 93       	mov	r3,r6
80007bdc:	0c 91       	mov	r1,r6
80007bde:	50 15       	stdsp	sp[0x4],r5
80007be0:	08 92       	mov	r2,r4
80007be2:	ca 08       	rjmp	80007d22 <__sfvwrite_r+0x1d2>
80007be4:	06 96       	mov	r6,r3
80007be6:	08 91       	mov	r1,r4
80007be8:	c0 48       	rjmp	80007bf0 <__sfvwrite_r+0xa0>
80007bea:	60 03       	ld.w	r3,r0[0x0]
80007bec:	60 16       	ld.w	r6,r0[0x4]
80007bee:	2f 80       	sub	r0,-8
80007bf0:	58 06       	cp.w	r6,0
80007bf2:	cf c0       	breq	80007bea <__sfvwrite_r+0x9a>
80007bf4:	8e 68       	ld.sh	r8,r7[0xc]
80007bf6:	6e 24       	ld.w	r4,r7[0x8]
80007bf8:	10 99       	mov	r9,r8
80007bfa:	e2 19 02 00 	andl	r9,0x200,COH
80007bfe:	c5 70       	breq	80007cac <__sfvwrite_r+0x15c>
80007c00:	08 36       	cp.w	r6,r4
80007c02:	c4 53       	brcs	80007c8c <__sfvwrite_r+0x13c>
80007c04:	10 99       	mov	r9,r8
80007c06:	e2 19 04 80 	andl	r9,0x480,COH
80007c0a:	c4 10       	breq	80007c8c <__sfvwrite_r+0x13c>
80007c0c:	6e 4b       	ld.w	r11,r7[0x10]
80007c0e:	6e 09       	ld.w	r9,r7[0x0]
80007c10:	16 19       	sub	r9,r11
80007c12:	50 09       	stdsp	sp[0x0],r9
80007c14:	6e 59       	ld.w	r9,r7[0x14]
80007c16:	10 9c       	mov	r12,r8
80007c18:	f2 09 00 1a 	add	r10,r9,r9<<0x1
80007c1c:	30 28       	mov	r8,2
80007c1e:	f4 08 0c 08 	divs	r8,r10,r8
80007c22:	fa e9 00 04 	st.d	sp[4],r8
80007c26:	10 94       	mov	r4,r8
80007c28:	40 09       	lddsp	r9,sp[0x0]
80007c2a:	e2 1c 04 00 	andl	r12,0x400,COH
80007c2e:	2f f9       	sub	r9,-1
80007c30:	0c 09       	add	r9,r6
80007c32:	12 38       	cp.w	r8,r9
80007c34:	f2 04 17 30 	movlo	r4,r9
80007c38:	58 0c       	cp.w	r12,0
80007c3a:	c1 10       	breq	80007c5c <__sfvwrite_r+0x10c>
80007c3c:	08 9b       	mov	r11,r4
80007c3e:	0a 9c       	mov	r12,r5
80007c40:	f0 1f 00 6e 	mcall	80007df8 <__sfvwrite_r+0x2a8>
80007c44:	18 92       	mov	r2,r12
80007c46:	c1 50       	breq	80007c70 <__sfvwrite_r+0x120>
80007c48:	40 0a       	lddsp	r10,sp[0x0]
80007c4a:	6e 4b       	ld.w	r11,r7[0x10]
80007c4c:	f0 1f 00 6c 	mcall	80007dfc <__sfvwrite_r+0x2ac>
80007c50:	8e 68       	ld.sh	r8,r7[0xc]
80007c52:	e0 18 fb 7f 	andl	r8,0xfb7f
80007c56:	a7 b8       	sbr	r8,0x7
80007c58:	ae 68       	st.h	r7[0xc],r8
80007c5a:	c0 e8       	rjmp	80007c76 <__sfvwrite_r+0x126>
80007c5c:	08 9a       	mov	r10,r4
80007c5e:	0a 9c       	mov	r12,r5
80007c60:	f0 1f 00 68 	mcall	80007e00 <__sfvwrite_r+0x2b0>
80007c64:	18 92       	mov	r2,r12
80007c66:	c0 81       	brne	80007c76 <__sfvwrite_r+0x126>
80007c68:	6e 4b       	ld.w	r11,r7[0x10]
80007c6a:	0a 9c       	mov	r12,r5
80007c6c:	f0 1f 00 66 	mcall	80007e04 <__sfvwrite_r+0x2b4>
80007c70:	30 c8       	mov	r8,12
80007c72:	8b 38       	st.w	r5[0xc],r8
80007c74:	cb 78       	rjmp	80007de2 <__sfvwrite_r+0x292>
80007c76:	40 0a       	lddsp	r10,sp[0x0]
80007c78:	40 09       	lddsp	r9,sp[0x0]
80007c7a:	e8 0a 01 0a 	sub	r10,r4,r10
80007c7e:	e4 09 00 08 	add	r8,r2,r9
80007c82:	8f 54       	st.w	r7[0x14],r4
80007c84:	8f 2a       	st.w	r7[0x8],r10
80007c86:	8f 08       	st.w	r7[0x0],r8
80007c88:	8f 42       	st.w	r7[0x10],r2
80007c8a:	0c 94       	mov	r4,r6
80007c8c:	08 36       	cp.w	r6,r4
80007c8e:	ec 04 17 30 	movlo	r4,r6
80007c92:	06 9b       	mov	r11,r3
80007c94:	08 9a       	mov	r10,r4
80007c96:	6e 0c       	ld.w	r12,r7[0x0]
80007c98:	f0 1f 00 5c 	mcall	80007e08 <__sfvwrite_r+0x2b8>
80007c9c:	6e 08       	ld.w	r8,r7[0x0]
80007c9e:	08 08       	add	r8,r4
80007ca0:	8f 08       	st.w	r7[0x0],r8
80007ca2:	6e 28       	ld.w	r8,r7[0x8]
80007ca4:	08 18       	sub	r8,r4
80007ca6:	0c 94       	mov	r4,r6
80007ca8:	8f 28       	st.w	r7[0x8],r8
80007caa:	c3 08       	rjmp	80007d0a <__sfvwrite_r+0x1ba>
80007cac:	08 36       	cp.w	r6,r4
80007cae:	5f ba       	srhi	r10
80007cb0:	6e 0c       	ld.w	r12,r7[0x0]
80007cb2:	6e 48       	ld.w	r8,r7[0x10]
80007cb4:	10 3c       	cp.w	r12,r8
80007cb6:	5f b8       	srhi	r8
80007cb8:	f5 e8 00 08 	and	r8,r10,r8
80007cbc:	f2 08 18 00 	cp.b	r8,r9
80007cc0:	c0 e0       	breq	80007cdc <__sfvwrite_r+0x18c>
80007cc2:	06 9b       	mov	r11,r3
80007cc4:	08 9a       	mov	r10,r4
80007cc6:	f0 1f 00 51 	mcall	80007e08 <__sfvwrite_r+0x2b8>
80007cca:	6e 08       	ld.w	r8,r7[0x0]
80007ccc:	08 08       	add	r8,r4
80007cce:	0e 9b       	mov	r11,r7
80007cd0:	8f 08       	st.w	r7[0x0],r8
80007cd2:	0a 9c       	mov	r12,r5
80007cd4:	f0 1f 00 4e 	mcall	80007e0c <__sfvwrite_r+0x2bc>
80007cd8:	c1 90       	breq	80007d0a <__sfvwrite_r+0x1ba>
80007cda:	c8 48       	rjmp	80007de2 <__sfvwrite_r+0x292>
80007cdc:	6e 59       	ld.w	r9,r7[0x14]
80007cde:	12 36       	cp.w	r6,r9
80007ce0:	c0 a3       	brcs	80007cf4 <__sfvwrite_r+0x1a4>
80007ce2:	6e a8       	ld.w	r8,r7[0x28]
80007ce4:	06 9a       	mov	r10,r3
80007ce6:	6e 8b       	ld.w	r11,r7[0x20]
80007ce8:	0a 9c       	mov	r12,r5
80007cea:	5d 18       	icall	r8
80007cec:	18 94       	mov	r4,r12
80007cee:	e0 89 00 0e 	brgt	80007d0a <__sfvwrite_r+0x1ba>
80007cf2:	c7 88       	rjmp	80007de2 <__sfvwrite_r+0x292>
80007cf4:	0c 9a       	mov	r10,r6
80007cf6:	06 9b       	mov	r11,r3
80007cf8:	f0 1f 00 44 	mcall	80007e08 <__sfvwrite_r+0x2b8>
80007cfc:	6e 08       	ld.w	r8,r7[0x0]
80007cfe:	0c 08       	add	r8,r6
80007d00:	0c 94       	mov	r4,r6
80007d02:	8f 08       	st.w	r7[0x0],r8
80007d04:	6e 28       	ld.w	r8,r7[0x8]
80007d06:	0c 18       	sub	r8,r6
80007d08:	8f 28       	st.w	r7[0x8],r8
80007d0a:	62 28       	ld.w	r8,r1[0x8]
80007d0c:	08 18       	sub	r8,r4
80007d0e:	83 28       	st.w	r1[0x8],r8
80007d10:	c6 e0       	breq	80007dec <__sfvwrite_r+0x29c>
80007d12:	08 16       	sub	r6,r4
80007d14:	08 03       	add	r3,r4
80007d16:	c6 db       	rjmp	80007bf0 <__sfvwrite_r+0xa0>
80007d18:	60 03       	ld.w	r3,r0[0x0]
80007d1a:	60 11       	ld.w	r1,r0[0x4]
80007d1c:	30 08       	mov	r8,0
80007d1e:	2f 80       	sub	r0,-8
80007d20:	50 08       	stdsp	sp[0x0],r8
80007d22:	58 01       	cp.w	r1,0
80007d24:	cf a0       	breq	80007d18 <__sfvwrite_r+0x1c8>
80007d26:	40 0a       	lddsp	r10,sp[0x0]
80007d28:	58 0a       	cp.w	r10,0
80007d2a:	c1 51       	brne	80007d54 <__sfvwrite_r+0x204>
80007d2c:	e2 c6 ff ff 	sub	r6,r1,-1
80007d30:	02 9a       	mov	r10,r1
80007d32:	30 ab       	mov	r11,10
80007d34:	06 9c       	mov	r12,r3
80007d36:	f0 1f 00 37 	mcall	80007e10 <__sfvwrite_r+0x2c0>
80007d3a:	f8 c8 ff ff 	sub	r8,r12,-1
80007d3e:	58 0c       	cp.w	r12,0
80007d40:	f1 d3 e1 16 	subne	r6,r8,r3
80007d44:	f9 b9 01 01 	movne	r9,1
80007d48:	fb f9 1a 00 	st.wne	sp[0x0],r9
80007d4c:	f9 b8 00 01 	moveq	r8,1
80007d50:	fb f8 0a 00 	st.weq	sp[0x0],r8
80007d54:	02 36       	cp.w	r6,r1
80007d56:	ec 04 17 80 	movls	r4,r6
80007d5a:	e2 04 17 b0 	movhi	r4,r1
80007d5e:	6e 59       	ld.w	r9,r7[0x14]
80007d60:	6e 25       	ld.w	r5,r7[0x8]
80007d62:	f2 05 00 05 	add	r5,r9,r5
80007d66:	0a 34       	cp.w	r4,r5
80007d68:	5f 9a       	srgt	r10
80007d6a:	6e 0c       	ld.w	r12,r7[0x0]
80007d6c:	6e 48       	ld.w	r8,r7[0x10]
80007d6e:	10 3c       	cp.w	r12,r8
80007d70:	5f b8       	srhi	r8
80007d72:	f5 e8 00 08 	and	r8,r10,r8
80007d76:	30 0a       	mov	r10,0
80007d78:	f4 08 18 00 	cp.b	r8,r10
80007d7c:	c0 e0       	breq	80007d98 <__sfvwrite_r+0x248>
80007d7e:	06 9b       	mov	r11,r3
80007d80:	0a 9a       	mov	r10,r5
80007d82:	f0 1f 00 22 	mcall	80007e08 <__sfvwrite_r+0x2b8>
80007d86:	6e 08       	ld.w	r8,r7[0x0]
80007d88:	0a 08       	add	r8,r5
80007d8a:	0e 9b       	mov	r11,r7
80007d8c:	8f 08       	st.w	r7[0x0],r8
80007d8e:	40 1c       	lddsp	r12,sp[0x4]
80007d90:	f0 1f 00 1f 	mcall	80007e0c <__sfvwrite_r+0x2bc>
80007d94:	c1 80       	breq	80007dc4 <__sfvwrite_r+0x274>
80007d96:	c2 68       	rjmp	80007de2 <__sfvwrite_r+0x292>
80007d98:	12 34       	cp.w	r4,r9
80007d9a:	c0 a5       	brlt	80007dae <__sfvwrite_r+0x25e>
80007d9c:	6e a8       	ld.w	r8,r7[0x28]
80007d9e:	06 9a       	mov	r10,r3
80007da0:	6e 8b       	ld.w	r11,r7[0x20]
80007da2:	40 1c       	lddsp	r12,sp[0x4]
80007da4:	5d 18       	icall	r8
80007da6:	18 95       	mov	r5,r12
80007da8:	e0 89 00 0e 	brgt	80007dc4 <__sfvwrite_r+0x274>
80007dac:	c1 b8       	rjmp	80007de2 <__sfvwrite_r+0x292>
80007dae:	08 9a       	mov	r10,r4
80007db0:	06 9b       	mov	r11,r3
80007db2:	f0 1f 00 16 	mcall	80007e08 <__sfvwrite_r+0x2b8>
80007db6:	6e 08       	ld.w	r8,r7[0x0]
80007db8:	08 08       	add	r8,r4
80007dba:	08 95       	mov	r5,r4
80007dbc:	8f 08       	st.w	r7[0x0],r8
80007dbe:	6e 28       	ld.w	r8,r7[0x8]
80007dc0:	08 18       	sub	r8,r4
80007dc2:	8f 28       	st.w	r7[0x8],r8
80007dc4:	0a 16       	sub	r6,r5
80007dc6:	c0 71       	brne	80007dd4 <__sfvwrite_r+0x284>
80007dc8:	0e 9b       	mov	r11,r7
80007dca:	40 1c       	lddsp	r12,sp[0x4]
80007dcc:	f0 1f 00 10 	mcall	80007e0c <__sfvwrite_r+0x2bc>
80007dd0:	c0 91       	brne	80007de2 <__sfvwrite_r+0x292>
80007dd2:	50 06       	stdsp	sp[0x0],r6
80007dd4:	64 28       	ld.w	r8,r2[0x8]
80007dd6:	0a 18       	sub	r8,r5
80007dd8:	85 28       	st.w	r2[0x8],r8
80007dda:	c0 90       	breq	80007dec <__sfvwrite_r+0x29c>
80007ddc:	0a 11       	sub	r1,r5
80007dde:	0a 03       	add	r3,r5
80007de0:	ca 1b       	rjmp	80007d22 <__sfvwrite_r+0x1d2>
80007de2:	8e 68       	ld.sh	r8,r7[0xc]
80007de4:	a7 a8       	sbr	r8,0x6
80007de6:	ae 68       	st.h	r7[0xc],r8
80007de8:	3f fc       	mov	r12,-1
80007dea:	c0 28       	rjmp	80007dee <__sfvwrite_r+0x29e>
80007dec:	30 0c       	mov	r12,0
80007dee:	2f dd       	sub	sp,-12
80007df0:	d8 32       	popm	r0-r7,pc
80007df2:	00 00       	add	r0,r0
80007df4:	80 00       	ld.sh	r0,r0[0x0]
80007df6:	67 e0       	ld.w	r0,r3[0x78]
80007df8:	80 00       	ld.sh	r0,r0[0x0]
80007dfa:	7f 54       	ld.w	r4,pc[0x54]
80007dfc:	80 00       	ld.sh	r0,r0[0x0]
80007dfe:	83 ba       	st.w	r1[0x2c],r10
80007e00:	80 00       	ld.sh	r0,r0[0x0]
80007e02:	8b 98       	st.w	r5[0x24],r8
80007e04:	80 00       	ld.sh	r0,r0[0x0]
80007e06:	79 b0       	ld.w	r0,r12[0x6c]
80007e08:	80 00       	ld.sh	r0,r0[0x0]
80007e0a:	85 02       	st.w	r2[0x0],r2
80007e0c:	80 00       	ld.sh	r0,r0[0x0]
80007e0e:	76 7c       	ld.w	r12,r11[0x1c]
80007e10:	80 00       	ld.sh	r0,r0[0x0]
80007e12:	83 a4       	st.w	r1[0x28],r4

80007e14 <_fwalk>:
80007e14:	d4 31       	pushm	r0-r7,lr
80007e16:	30 05       	mov	r5,0
80007e18:	16 91       	mov	r1,r11
80007e1a:	f8 c7 ff 28 	sub	r7,r12,-216
80007e1e:	0a 92       	mov	r2,r5
80007e20:	f0 1f 00 10 	mcall	80007e60 <_fwalk+0x4c>
80007e24:	3f f3       	mov	r3,-1
80007e26:	c1 68       	rjmp	80007e52 <_fwalk+0x3e>
80007e28:	6e 26       	ld.w	r6,r7[0x8]
80007e2a:	6e 14       	ld.w	r4,r7[0x4]
80007e2c:	2f 46       	sub	r6,-12
80007e2e:	c0 c8       	rjmp	80007e46 <_fwalk+0x32>
80007e30:	8c 08       	ld.sh	r8,r6[0x0]
80007e32:	e4 08 19 00 	cp.h	r8,r2
80007e36:	c0 70       	breq	80007e44 <_fwalk+0x30>
80007e38:	8c 18       	ld.sh	r8,r6[0x2]
80007e3a:	e6 08 19 00 	cp.h	r8,r3
80007e3e:	c0 30       	breq	80007e44 <_fwalk+0x30>
80007e40:	5d 11       	icall	r1
80007e42:	18 45       	or	r5,r12
80007e44:	2a 46       	sub	r6,-92
80007e46:	20 14       	sub	r4,1
80007e48:	ec cc 00 0c 	sub	r12,r6,12
80007e4c:	58 04       	cp.w	r4,0
80007e4e:	cf 14       	brge	80007e30 <_fwalk+0x1c>
80007e50:	6e 07       	ld.w	r7,r7[0x0]
80007e52:	58 07       	cp.w	r7,0
80007e54:	ce a1       	brne	80007e28 <_fwalk+0x14>
80007e56:	f0 1f 00 04 	mcall	80007e64 <_fwalk+0x50>
80007e5a:	0a 9c       	mov	r12,r5
80007e5c:	d8 32       	popm	r0-r7,pc
80007e5e:	00 00       	add	r0,r0
80007e60:	80 00       	ld.sh	r0,r0[0x0]
80007e62:	77 94       	ld.w	r4,r11[0x64]
80007e64:	80 00       	ld.sh	r0,r0[0x0]
80007e66:	77 96       	ld.w	r6,r11[0x64]

80007e68 <_localeconv_r>:
80007e68:	48 1c       	lddpc	r12,80007e6c <_localeconv_r+0x4>
80007e6a:	5e fc       	retal	r12
80007e6c:	80 00       	ld.sh	r0,r0[0x0]
80007e6e:	a6 2c       	st.h	r3[0x4],r12

80007e70 <__smakebuf_r>:
80007e70:	d4 21       	pushm	r4-r7,lr
80007e72:	20 fd       	sub	sp,60
80007e74:	96 68       	ld.sh	r8,r11[0xc]
80007e76:	16 97       	mov	r7,r11
80007e78:	18 96       	mov	r6,r12
80007e7a:	e2 18 00 02 	andl	r8,0x2,COH
80007e7e:	c3 c1       	brne	80007ef6 <__smakebuf_r+0x86>
80007e80:	96 7b       	ld.sh	r11,r11[0xe]
80007e82:	f0 0b 19 00 	cp.h	r11,r8
80007e86:	c0 55       	brlt	80007e90 <__smakebuf_r+0x20>
80007e88:	1a 9a       	mov	r10,sp
80007e8a:	f0 1f 00 28 	mcall	80007f28 <__smakebuf_r+0xb8>
80007e8e:	c0 f4       	brge	80007eac <__smakebuf_r+0x3c>
80007e90:	8e 65       	ld.sh	r5,r7[0xc]
80007e92:	0a 98       	mov	r8,r5
80007e94:	ab b8       	sbr	r8,0xb
80007e96:	e2 15 00 80 	andl	r5,0x80,COH
80007e9a:	ae 68       	st.h	r7[0xc],r8
80007e9c:	30 04       	mov	r4,0
80007e9e:	e0 68 04 00 	mov	r8,1024
80007ea2:	f9 b5 01 40 	movne	r5,64
80007ea6:	f0 05 17 00 	moveq	r5,r8
80007eaa:	c1 b8       	rjmp	80007ee0 <__smakebuf_r+0x70>
80007eac:	40 18       	lddsp	r8,sp[0x4]
80007eae:	e2 18 f0 00 	andl	r8,0xf000,COH
80007eb2:	e0 48 20 00 	cp.w	r8,8192
80007eb6:	5f 04       	sreq	r4
80007eb8:	e0 48 80 00 	cp.w	r8,32768
80007ebc:	c0 d1       	brne	80007ed6 <__smakebuf_r+0x66>
80007ebe:	6e b9       	ld.w	r9,r7[0x2c]
80007ec0:	49 b8       	lddpc	r8,80007f2c <__smakebuf_r+0xbc>
80007ec2:	10 39       	cp.w	r9,r8
80007ec4:	c0 91       	brne	80007ed6 <__smakebuf_r+0x66>
80007ec6:	8e 68       	ld.sh	r8,r7[0xc]
80007ec8:	e0 65 04 00 	mov	r5,1024
80007ecc:	ab a8       	sbr	r8,0xa
80007ece:	ef 45 00 50 	st.w	r7[80],r5
80007ed2:	ae 68       	st.h	r7[0xc],r8
80007ed4:	c0 68       	rjmp	80007ee0 <__smakebuf_r+0x70>
80007ed6:	8e 68       	ld.sh	r8,r7[0xc]
80007ed8:	e0 65 04 00 	mov	r5,1024
80007edc:	ab b8       	sbr	r8,0xb
80007ede:	ae 68       	st.h	r7[0xc],r8
80007ee0:	0a 9b       	mov	r11,r5
80007ee2:	0c 9c       	mov	r12,r6
80007ee4:	f0 1f 00 13 	mcall	80007f30 <__smakebuf_r+0xc0>
80007ee8:	8e 68       	ld.sh	r8,r7[0xc]
80007eea:	c0 d1       	brne	80007f04 <__smakebuf_r+0x94>
80007eec:	ed b8 00 09 	bld	r8,0x9
80007ef0:	c1 a0       	breq	80007f24 <__smakebuf_r+0xb4>
80007ef2:	a1 b8       	sbr	r8,0x1
80007ef4:	ae 68       	st.h	r7[0xc],r8
80007ef6:	ee c8 ff b9 	sub	r8,r7,-71
80007efa:	8f 48       	st.w	r7[0x10],r8
80007efc:	8f 08       	st.w	r7[0x0],r8
80007efe:	30 18       	mov	r8,1
80007f00:	8f 58       	st.w	r7[0x14],r8
80007f02:	c1 18       	rjmp	80007f24 <__smakebuf_r+0xb4>
80007f04:	a7 b8       	sbr	r8,0x7
80007f06:	8f 4c       	st.w	r7[0x10],r12
80007f08:	ae 68       	st.h	r7[0xc],r8
80007f0a:	8f 55       	st.w	r7[0x14],r5
80007f0c:	48 a8       	lddpc	r8,80007f34 <__smakebuf_r+0xc4>
80007f0e:	8f 0c       	st.w	r7[0x0],r12
80007f10:	8d a8       	st.w	r6[0x28],r8
80007f12:	58 04       	cp.w	r4,0
80007f14:	c0 80       	breq	80007f24 <__smakebuf_r+0xb4>
80007f16:	8e 7c       	ld.sh	r12,r7[0xe]
80007f18:	f0 1f 00 08 	mcall	80007f38 <__smakebuf_r+0xc8>
80007f1c:	c0 40       	breq	80007f24 <__smakebuf_r+0xb4>
80007f1e:	8e 68       	ld.sh	r8,r7[0xc]
80007f20:	a1 a8       	sbr	r8,0x0
80007f22:	ae 68       	st.h	r7[0xc],r8
80007f24:	2f 1d       	sub	sp,-60
80007f26:	d8 22       	popm	r4-r7,pc
80007f28:	80 00       	ld.sh	r0,r0[0x0]
80007f2a:	92 5c       	ld.sh	r12,r9[0xa]
80007f2c:	80 00       	ld.sh	r0,r0[0x0]
80007f2e:	8e f8       	ld.uh	r8,r7[0xe]
80007f30:	80 00       	ld.sh	r0,r0[0x0]
80007f32:	7f 54       	ld.w	r4,pc[0x54]
80007f34:	80 00       	ld.sh	r0,r0[0x0]
80007f36:	77 98       	ld.w	r8,r11[0x64]
80007f38:	80 00       	ld.sh	r0,r0[0x0]
80007f3a:	8f f4       	st.w	r7[0x3c],r4

80007f3c <malloc>:
80007f3c:	d4 01       	pushm	lr
80007f3e:	48 48       	lddpc	r8,80007f4c <malloc+0x10>
80007f40:	18 9b       	mov	r11,r12
80007f42:	70 0c       	ld.w	r12,r8[0x0]
80007f44:	f0 1f 00 03 	mcall	80007f50 <malloc+0x14>
80007f48:	d8 02       	popm	pc
80007f4a:	00 00       	add	r0,r0
80007f4c:	00 00       	add	r0,r0
80007f4e:	00 f4       	st.b	--r0,r4
80007f50:	80 00       	ld.sh	r0,r0[0x0]
80007f52:	7f 54       	ld.w	r4,pc[0x54]

80007f54 <_malloc_r>:
80007f54:	d4 31       	pushm	r0-r7,lr
80007f56:	f6 c8 ff f5 	sub	r8,r11,-11
80007f5a:	18 95       	mov	r5,r12
80007f5c:	10 97       	mov	r7,r8
80007f5e:	e0 17 ff f8 	andl	r7,0xfff8
80007f62:	59 68       	cp.w	r8,22
80007f64:	f9 b7 08 10 	movls	r7,16
80007f68:	16 37       	cp.w	r7,r11
80007f6a:	5f 38       	srlo	r8
80007f6c:	f1 e7 13 f8 	or	r8,r8,r7>>0x1f
80007f70:	c0 50       	breq	80007f7a <_malloc_r+0x26>
80007f72:	30 c8       	mov	r8,12
80007f74:	99 38       	st.w	r12[0xc],r8
80007f76:	e0 8f 01 f3 	bral	8000835c <_malloc_r+0x408>
80007f7a:	f0 1f 00 50 	mcall	800080b8 <_malloc_r+0x164>
80007f7e:	e0 47 01 f7 	cp.w	r7,503
80007f82:	e0 8b 00 1c 	brhi	80007fba <_malloc_r+0x66>
80007f86:	ee 03 16 03 	lsr	r3,r7,0x3
80007f8a:	4c d8       	lddpc	r8,800080bc <_malloc_r+0x168>
80007f8c:	f0 03 00 38 	add	r8,r8,r3<<0x3
80007f90:	70 36       	ld.w	r6,r8[0xc]
80007f92:	10 36       	cp.w	r6,r8
80007f94:	c0 61       	brne	80007fa0 <_malloc_r+0x4c>
80007f96:	ec c8 ff f8 	sub	r8,r6,-8
80007f9a:	70 36       	ld.w	r6,r8[0xc]
80007f9c:	10 36       	cp.w	r6,r8
80007f9e:	c0 c0       	breq	80007fb6 <_malloc_r+0x62>
80007fa0:	6c 18       	ld.w	r8,r6[0x4]
80007fa2:	e0 18 ff fc 	andl	r8,0xfffc
80007fa6:	6c 3a       	ld.w	r10,r6[0xc]
80007fa8:	ec 08 00 09 	add	r9,r6,r8
80007fac:	0a 9c       	mov	r12,r5
80007fae:	6c 28       	ld.w	r8,r6[0x8]
80007fb0:	95 28       	st.w	r10[0x8],r8
80007fb2:	91 3a       	st.w	r8[0xc],r10
80007fb4:	c4 68       	rjmp	80008040 <_malloc_r+0xec>
80007fb6:	2f e3       	sub	r3,-2
80007fb8:	c4 c8       	rjmp	80008050 <_malloc_r+0xfc>
80007fba:	ee 03 16 09 	lsr	r3,r7,0x9
80007fbe:	c0 41       	brne	80007fc6 <_malloc_r+0x72>
80007fc0:	ee 03 16 03 	lsr	r3,r7,0x3
80007fc4:	c2 68       	rjmp	80008010 <_malloc_r+0xbc>
80007fc6:	58 43       	cp.w	r3,4
80007fc8:	e0 8b 00 06 	brhi	80007fd4 <_malloc_r+0x80>
80007fcc:	ee 03 16 06 	lsr	r3,r7,0x6
80007fd0:	2c 83       	sub	r3,-56
80007fd2:	c1 f8       	rjmp	80008010 <_malloc_r+0xbc>
80007fd4:	59 43       	cp.w	r3,20
80007fd6:	e0 8b 00 04 	brhi	80007fde <_malloc_r+0x8a>
80007fda:	2a 53       	sub	r3,-91
80007fdc:	c1 a8       	rjmp	80008010 <_malloc_r+0xbc>
80007fde:	e0 43 00 54 	cp.w	r3,84
80007fe2:	e0 8b 00 06 	brhi	80007fee <_malloc_r+0x9a>
80007fe6:	ee 03 16 0c 	lsr	r3,r7,0xc
80007fea:	29 23       	sub	r3,-110
80007fec:	c1 28       	rjmp	80008010 <_malloc_r+0xbc>
80007fee:	e0 43 01 54 	cp.w	r3,340
80007ff2:	e0 8b 00 06 	brhi	80007ffe <_malloc_r+0xaa>
80007ff6:	ee 03 16 0f 	lsr	r3,r7,0xf
80007ffa:	28 93       	sub	r3,-119
80007ffc:	c0 a8       	rjmp	80008010 <_malloc_r+0xbc>
80007ffe:	e0 43 05 54 	cp.w	r3,1364
80008002:	e0 88 00 04 	brls	8000800a <_malloc_r+0xb6>
80008006:	37 e3       	mov	r3,126
80008008:	c0 48       	rjmp	80008010 <_malloc_r+0xbc>
8000800a:	ee 03 16 12 	lsr	r3,r7,0x12
8000800e:	28 43       	sub	r3,-124
80008010:	4a ba       	lddpc	r10,800080bc <_malloc_r+0x168>
80008012:	f4 03 00 3a 	add	r10,r10,r3<<0x3
80008016:	74 36       	ld.w	r6,r10[0xc]
80008018:	c1 98       	rjmp	8000804a <_malloc_r+0xf6>
8000801a:	6c 19       	ld.w	r9,r6[0x4]
8000801c:	e0 19 ff fc 	andl	r9,0xfffc
80008020:	f2 07 01 0b 	sub	r11,r9,r7
80008024:	58 fb       	cp.w	r11,15
80008026:	e0 8a 00 04 	brle	8000802e <_malloc_r+0xda>
8000802a:	20 13       	sub	r3,1
8000802c:	c1 18       	rjmp	8000804e <_malloc_r+0xfa>
8000802e:	6c 38       	ld.w	r8,r6[0xc]
80008030:	58 0b       	cp.w	r11,0
80008032:	c0 b5       	brlt	80008048 <_malloc_r+0xf4>
80008034:	6c 2a       	ld.w	r10,r6[0x8]
80008036:	ec 09 00 09 	add	r9,r6,r9
8000803a:	0a 9c       	mov	r12,r5
8000803c:	91 2a       	st.w	r8[0x8],r10
8000803e:	95 38       	st.w	r10[0xc],r8
80008040:	72 18       	ld.w	r8,r9[0x4]
80008042:	a1 a8       	sbr	r8,0x0
80008044:	93 18       	st.w	r9[0x4],r8
80008046:	cb c8       	rjmp	800081be <_malloc_r+0x26a>
80008048:	10 96       	mov	r6,r8
8000804a:	14 36       	cp.w	r6,r10
8000804c:	ce 71       	brne	8000801a <_malloc_r+0xc6>
8000804e:	2f f3       	sub	r3,-1
80008050:	49 ba       	lddpc	r10,800080bc <_malloc_r+0x168>
80008052:	f4 cc ff f8 	sub	r12,r10,-8
80008056:	78 26       	ld.w	r6,r12[0x8]
80008058:	18 36       	cp.w	r6,r12
8000805a:	c6 e0       	breq	80008136 <_malloc_r+0x1e2>
8000805c:	6c 19       	ld.w	r9,r6[0x4]
8000805e:	e0 19 ff fc 	andl	r9,0xfffc
80008062:	f2 07 01 08 	sub	r8,r9,r7
80008066:	58 f8       	cp.w	r8,15
80008068:	e0 89 00 90 	brgt	80008188 <_malloc_r+0x234>
8000806c:	99 3c       	st.w	r12[0xc],r12
8000806e:	99 2c       	st.w	r12[0x8],r12
80008070:	58 08       	cp.w	r8,0
80008072:	c0 55       	brlt	8000807c <_malloc_r+0x128>
80008074:	ec 09 00 09 	add	r9,r6,r9
80008078:	0a 9c       	mov	r12,r5
8000807a:	ce 3b       	rjmp	80008040 <_malloc_r+0xec>
8000807c:	e0 49 01 ff 	cp.w	r9,511
80008080:	e0 8b 00 13 	brhi	800080a6 <_malloc_r+0x152>
80008084:	a3 99       	lsr	r9,0x3
80008086:	f4 09 00 38 	add	r8,r10,r9<<0x3
8000808a:	70 2b       	ld.w	r11,r8[0x8]
8000808c:	8d 38       	st.w	r6[0xc],r8
8000808e:	8d 2b       	st.w	r6[0x8],r11
80008090:	97 36       	st.w	r11[0xc],r6
80008092:	91 26       	st.w	r8[0x8],r6
80008094:	a3 49       	asr	r9,0x2
80008096:	74 18       	ld.w	r8,r10[0x4]
80008098:	30 1b       	mov	r11,1
8000809a:	f6 09 09 49 	lsl	r9,r11,r9
8000809e:	f1 e9 10 09 	or	r9,r8,r9
800080a2:	95 19       	st.w	r10[0x4],r9
800080a4:	c4 98       	rjmp	80008136 <_malloc_r+0x1e2>
800080a6:	f2 0a 16 09 	lsr	r10,r9,0x9
800080aa:	58 4a       	cp.w	r10,4
800080ac:	e0 8b 00 0a 	brhi	800080c0 <_malloc_r+0x16c>
800080b0:	f2 0a 16 06 	lsr	r10,r9,0x6
800080b4:	2c 8a       	sub	r10,-56
800080b6:	c2 38       	rjmp	800080fc <_malloc_r+0x1a8>
800080b8:	80 00       	ld.sh	r0,r0[0x0]
800080ba:	85 4e       	st.w	r2[0x10],lr
800080bc:	00 00       	add	r0,r0
800080be:	00 f8       	st.b	--r0,r8
800080c0:	59 4a       	cp.w	r10,20
800080c2:	e0 8b 00 04 	brhi	800080ca <_malloc_r+0x176>
800080c6:	2a 5a       	sub	r10,-91
800080c8:	c1 a8       	rjmp	800080fc <_malloc_r+0x1a8>
800080ca:	e0 4a 00 54 	cp.w	r10,84
800080ce:	e0 8b 00 06 	brhi	800080da <_malloc_r+0x186>
800080d2:	f2 0a 16 0c 	lsr	r10,r9,0xc
800080d6:	29 2a       	sub	r10,-110
800080d8:	c1 28       	rjmp	800080fc <_malloc_r+0x1a8>
800080da:	e0 4a 01 54 	cp.w	r10,340
800080de:	e0 8b 00 06 	brhi	800080ea <_malloc_r+0x196>
800080e2:	f2 0a 16 0f 	lsr	r10,r9,0xf
800080e6:	28 9a       	sub	r10,-119
800080e8:	c0 a8       	rjmp	800080fc <_malloc_r+0x1a8>
800080ea:	e0 4a 05 54 	cp.w	r10,1364
800080ee:	e0 88 00 04 	brls	800080f6 <_malloc_r+0x1a2>
800080f2:	37 ea       	mov	r10,126
800080f4:	c0 48       	rjmp	800080fc <_malloc_r+0x1a8>
800080f6:	f2 0a 16 12 	lsr	r10,r9,0x12
800080fa:	28 4a       	sub	r10,-124
800080fc:	4c 8b       	lddpc	r11,8000821c <_malloc_r+0x2c8>
800080fe:	f6 0a 00 34 	add	r4,r11,r10<<0x3
80008102:	68 28       	ld.w	r8,r4[0x8]
80008104:	08 38       	cp.w	r8,r4
80008106:	c0 e1       	brne	80008122 <_malloc_r+0x1ce>
80008108:	76 19       	ld.w	r9,r11[0x4]
8000810a:	a3 4a       	asr	r10,0x2
8000810c:	30 1e       	mov	lr,1
8000810e:	fc 0a 09 4a 	lsl	r10,lr,r10
80008112:	f3 ea 10 0a 	or	r10,r9,r10
80008116:	10 99       	mov	r9,r8
80008118:	97 1a       	st.w	r11[0x4],r10
8000811a:	c0 a8       	rjmp	8000812e <_malloc_r+0x1da>
8000811c:	70 28       	ld.w	r8,r8[0x8]
8000811e:	08 38       	cp.w	r8,r4
80008120:	c0 60       	breq	8000812c <_malloc_r+0x1d8>
80008122:	70 1a       	ld.w	r10,r8[0x4]
80008124:	e0 1a ff fc 	andl	r10,0xfffc
80008128:	14 39       	cp.w	r9,r10
8000812a:	cf 93       	brcs	8000811c <_malloc_r+0x1c8>
8000812c:	70 39       	ld.w	r9,r8[0xc]
8000812e:	8d 39       	st.w	r6[0xc],r9
80008130:	8d 28       	st.w	r6[0x8],r8
80008132:	91 36       	st.w	r8[0xc],r6
80008134:	93 26       	st.w	r9[0x8],r6
80008136:	e6 08 14 02 	asr	r8,r3,0x2
8000813a:	30 1b       	mov	r11,1
8000813c:	4b 84       	lddpc	r4,8000821c <_malloc_r+0x2c8>
8000813e:	f6 08 09 4b 	lsl	r11,r11,r8
80008142:	68 18       	ld.w	r8,r4[0x4]
80008144:	10 3b       	cp.w	r11,r8
80008146:	e0 8b 00 6f 	brhi	80008224 <_malloc_r+0x2d0>
8000814a:	f7 e8 00 09 	and	r9,r11,r8
8000814e:	c0 b1       	brne	80008164 <_malloc_r+0x210>
80008150:	e0 13 ff fc 	andl	r3,0xfffc
80008154:	a1 7b       	lsl	r11,0x1
80008156:	2f c3       	sub	r3,-4
80008158:	c0 38       	rjmp	8000815e <_malloc_r+0x20a>
8000815a:	2f c3       	sub	r3,-4
8000815c:	a1 7b       	lsl	r11,0x1
8000815e:	f7 e8 00 09 	and	r9,r11,r8
80008162:	cf c0       	breq	8000815a <_malloc_r+0x206>
80008164:	e8 03 00 3e 	add	lr,r4,r3<<0x3
80008168:	06 92       	mov	r2,r3
8000816a:	1c 91       	mov	r1,lr
8000816c:	62 36       	ld.w	r6,r1[0xc]
8000816e:	c2 e8       	rjmp	800081ca <_malloc_r+0x276>
80008170:	6c 1a       	ld.w	r10,r6[0x4]
80008172:	e0 1a ff fc 	andl	r10,0xfffc
80008176:	f4 07 01 08 	sub	r8,r10,r7
8000817a:	58 f8       	cp.w	r8,15
8000817c:	e0 8a 00 15 	brle	800081a6 <_malloc_r+0x252>
80008180:	6c 3a       	ld.w	r10,r6[0xc]
80008182:	6c 29       	ld.w	r9,r6[0x8]
80008184:	95 29       	st.w	r10[0x8],r9
80008186:	93 3a       	st.w	r9[0xc],r10
80008188:	0e 99       	mov	r9,r7
8000818a:	ec 07 00 07 	add	r7,r6,r7
8000818e:	a1 a9       	sbr	r9,0x0
80008190:	99 37       	st.w	r12[0xc],r7
80008192:	99 27       	st.w	r12[0x8],r7
80008194:	8d 19       	st.w	r6[0x4],r9
80008196:	ee 08 09 08 	st.w	r7[r8],r8
8000819a:	8f 2c       	st.w	r7[0x8],r12
8000819c:	8f 3c       	st.w	r7[0xc],r12
8000819e:	a1 a8       	sbr	r8,0x0
800081a0:	0a 9c       	mov	r12,r5
800081a2:	8f 18       	st.w	r7[0x4],r8
800081a4:	c0 d8       	rjmp	800081be <_malloc_r+0x26a>
800081a6:	6c 39       	ld.w	r9,r6[0xc]
800081a8:	58 08       	cp.w	r8,0
800081aa:	c0 f5       	brlt	800081c8 <_malloc_r+0x274>
800081ac:	ec 0a 00 0a 	add	r10,r6,r10
800081b0:	74 18       	ld.w	r8,r10[0x4]
800081b2:	a1 a8       	sbr	r8,0x0
800081b4:	0a 9c       	mov	r12,r5
800081b6:	95 18       	st.w	r10[0x4],r8
800081b8:	6c 28       	ld.w	r8,r6[0x8]
800081ba:	93 28       	st.w	r9[0x8],r8
800081bc:	91 39       	st.w	r8[0xc],r9
800081be:	f0 1f 00 19 	mcall	80008220 <_malloc_r+0x2cc>
800081c2:	ec cc ff f8 	sub	r12,r6,-8
800081c6:	d8 32       	popm	r0-r7,pc
800081c8:	12 96       	mov	r6,r9
800081ca:	02 36       	cp.w	r6,r1
800081cc:	cd 21       	brne	80008170 <_malloc_r+0x21c>
800081ce:	2f f2       	sub	r2,-1
800081d0:	f1 d2 c0 02 	bfextu	r8,r2,0x0,0x2
800081d4:	c0 30       	breq	800081da <_malloc_r+0x286>
800081d6:	2f 81       	sub	r1,-8
800081d8:	cc ab       	rjmp	8000816c <_malloc_r+0x218>
800081da:	1c 98       	mov	r8,lr
800081dc:	f3 d3 c0 02 	bfextu	r9,r3,0x0,0x2
800081e0:	c0 81       	brne	800081f0 <_malloc_r+0x29c>
800081e2:	68 19       	ld.w	r9,r4[0x4]
800081e4:	f6 08 11 ff 	rsub	r8,r11,-1
800081e8:	f3 e8 00 08 	and	r8,r9,r8
800081ec:	89 18       	st.w	r4[0x4],r8
800081ee:	c0 78       	rjmp	800081fc <_malloc_r+0x2a8>
800081f0:	f0 c9 00 08 	sub	r9,r8,8
800081f4:	20 13       	sub	r3,1
800081f6:	70 08       	ld.w	r8,r8[0x0]
800081f8:	12 38       	cp.w	r8,r9
800081fa:	cf 10       	breq	800081dc <_malloc_r+0x288>
800081fc:	a1 7b       	lsl	r11,0x1
800081fe:	68 18       	ld.w	r8,r4[0x4]
80008200:	10 3b       	cp.w	r11,r8
80008202:	e0 8b 00 11 	brhi	80008224 <_malloc_r+0x2d0>
80008206:	58 0b       	cp.w	r11,0
80008208:	c0 e0       	breq	80008224 <_malloc_r+0x2d0>
8000820a:	04 93       	mov	r3,r2
8000820c:	c0 38       	rjmp	80008212 <_malloc_r+0x2be>
8000820e:	2f c3       	sub	r3,-4
80008210:	a1 7b       	lsl	r11,0x1
80008212:	f7 e8 00 09 	and	r9,r11,r8
80008216:	ca 71       	brne	80008164 <_malloc_r+0x210>
80008218:	cf bb       	rjmp	8000820e <_malloc_r+0x2ba>
8000821a:	00 00       	add	r0,r0
8000821c:	00 00       	add	r0,r0
8000821e:	00 f8       	st.b	--r0,r8
80008220:	80 00       	ld.sh	r0,r0[0x0]
80008222:	85 50       	st.w	r2[0x14],r0
80008224:	68 23       	ld.w	r3,r4[0x8]
80008226:	66 12       	ld.w	r2,r3[0x4]
80008228:	e0 12 ff fc 	andl	r2,0xfffc
8000822c:	0e 32       	cp.w	r2,r7
8000822e:	5f 39       	srlo	r9
80008230:	e4 07 01 08 	sub	r8,r2,r7
80008234:	58 f8       	cp.w	r8,15
80008236:	5f aa       	srle	r10
80008238:	f5 e9 10 09 	or	r9,r10,r9
8000823c:	e0 80 00 a2 	breq	80008380 <_malloc_r+0x42c>
80008240:	4c 88       	lddpc	r8,80008360 <_malloc_r+0x40c>
80008242:	70 01       	ld.w	r1,r8[0x0]
80008244:	4c 88       	lddpc	r8,80008364 <_malloc_r+0x410>
80008246:	2f 01       	sub	r1,-16
80008248:	70 08       	ld.w	r8,r8[0x0]
8000824a:	0e 01       	add	r1,r7
8000824c:	5b f8       	cp.w	r8,-1
8000824e:	c0 40       	breq	80008256 <_malloc_r+0x302>
80008250:	28 11       	sub	r1,-127
80008252:	e0 11 ff 80 	andl	r1,0xff80
80008256:	02 9b       	mov	r11,r1
80008258:	0a 9c       	mov	r12,r5
8000825a:	f0 1f 00 44 	mcall	80008368 <_malloc_r+0x414>
8000825e:	18 96       	mov	r6,r12
80008260:	5b fc       	cp.w	r12,-1
80008262:	c6 e0       	breq	8000833e <_malloc_r+0x3ea>
80008264:	e6 02 00 08 	add	r8,r3,r2
80008268:	10 3c       	cp.w	r12,r8
8000826a:	c0 32       	brcc	80008270 <_malloc_r+0x31c>
8000826c:	08 33       	cp.w	r3,r4
8000826e:	c6 81       	brne	8000833e <_malloc_r+0x3ea>
80008270:	4b fa       	lddpc	r10,8000836c <_malloc_r+0x418>
80008272:	74 09       	ld.w	r9,r10[0x0]
80008274:	e2 09 00 09 	add	r9,r1,r9
80008278:	95 09       	st.w	r10[0x0],r9
8000827a:	10 36       	cp.w	r6,r8
8000827c:	c0 a1       	brne	80008290 <_malloc_r+0x33c>
8000827e:	f5 d6 c0 07 	bfextu	r10,r6,0x0,0x7
80008282:	c0 71       	brne	80008290 <_malloc_r+0x33c>
80008284:	e2 02 00 02 	add	r2,r1,r2
80008288:	68 28       	ld.w	r8,r4[0x8]
8000828a:	a1 a2       	sbr	r2,0x0
8000828c:	91 12       	st.w	r8[0x4],r2
8000828e:	c4 c8       	rjmp	80008326 <_malloc_r+0x3d2>
80008290:	4b 5a       	lddpc	r10,80008364 <_malloc_r+0x410>
80008292:	74 0b       	ld.w	r11,r10[0x0]
80008294:	5b fb       	cp.w	r11,-1
80008296:	c0 31       	brne	8000829c <_malloc_r+0x348>
80008298:	95 06       	st.w	r10[0x0],r6
8000829a:	c0 68       	rjmp	800082a6 <_malloc_r+0x352>
8000829c:	ec 09 00 09 	add	r9,r6,r9
800082a0:	4b 3a       	lddpc	r10,8000836c <_malloc_r+0x418>
800082a2:	10 19       	sub	r9,r8
800082a4:	95 09       	st.w	r10[0x0],r9
800082a6:	f1 d6 c0 03 	bfextu	r8,r6,0x0,0x3
800082aa:	f0 09 11 08 	rsub	r9,r8,8
800082ae:	58 08       	cp.w	r8,0
800082b0:	f2 08 17 10 	movne	r8,r9
800082b4:	ed d8 e1 06 	addne	r6,r6,r8
800082b8:	28 08       	sub	r8,-128
800082ba:	ec 01 00 01 	add	r1,r6,r1
800082be:	0a 9c       	mov	r12,r5
800082c0:	e3 d1 c0 07 	bfextu	r1,r1,0x0,0x7
800082c4:	f0 01 01 01 	sub	r1,r8,r1
800082c8:	02 9b       	mov	r11,r1
800082ca:	f0 1f 00 28 	mcall	80008368 <_malloc_r+0x414>
800082ce:	4a 88       	lddpc	r8,8000836c <_malloc_r+0x418>
800082d0:	5b fc       	cp.w	r12,-1
800082d2:	ec 0c 17 00 	moveq	r12,r6
800082d6:	f9 b1 00 00 	moveq	r1,0
800082da:	70 09       	ld.w	r9,r8[0x0]
800082dc:	0c 1c       	sub	r12,r6
800082de:	89 26       	st.w	r4[0x8],r6
800082e0:	02 0c       	add	r12,r1
800082e2:	12 01       	add	r1,r9
800082e4:	a1 ac       	sbr	r12,0x0
800082e6:	91 01       	st.w	r8[0x0],r1
800082e8:	8d 1c       	st.w	r6[0x4],r12
800082ea:	08 33       	cp.w	r3,r4
800082ec:	c1 d0       	breq	80008326 <_malloc_r+0x3d2>
800082ee:	58 f2       	cp.w	r2,15
800082f0:	e0 8b 00 05 	brhi	800082fa <_malloc_r+0x3a6>
800082f4:	30 18       	mov	r8,1
800082f6:	8d 18       	st.w	r6[0x4],r8
800082f8:	c2 38       	rjmp	8000833e <_malloc_r+0x3ea>
800082fa:	30 59       	mov	r9,5
800082fc:	20 c2       	sub	r2,12
800082fe:	e0 12 ff f8 	andl	r2,0xfff8
80008302:	e6 02 00 08 	add	r8,r3,r2
80008306:	91 29       	st.w	r8[0x8],r9
80008308:	91 19       	st.w	r8[0x4],r9
8000830a:	66 18       	ld.w	r8,r3[0x4]
8000830c:	f1 d8 c0 01 	bfextu	r8,r8,0x0,0x1
80008310:	e5 e8 10 08 	or	r8,r2,r8
80008314:	87 18       	st.w	r3[0x4],r8
80008316:	58 f2       	cp.w	r2,15
80008318:	e0 88 00 07 	brls	80008326 <_malloc_r+0x3d2>
8000831c:	e6 cb ff f8 	sub	r11,r3,-8
80008320:	0a 9c       	mov	r12,r5
80008322:	f0 1f 00 14 	mcall	80008370 <_malloc_r+0x41c>
80008326:	49 49       	lddpc	r9,80008374 <_malloc_r+0x420>
80008328:	72 0a       	ld.w	r10,r9[0x0]
8000832a:	49 18       	lddpc	r8,8000836c <_malloc_r+0x418>
8000832c:	70 08       	ld.w	r8,r8[0x0]
8000832e:	14 38       	cp.w	r8,r10
80008330:	f3 f8 ba 00 	st.whi	r9[0x0],r8
80008334:	49 19       	lddpc	r9,80008378 <_malloc_r+0x424>
80008336:	72 0a       	ld.w	r10,r9[0x0]
80008338:	14 38       	cp.w	r8,r10
8000833a:	f3 f8 ba 00 	st.whi	r9[0x0],r8
8000833e:	68 28       	ld.w	r8,r4[0x8]
80008340:	70 18       	ld.w	r8,r8[0x4]
80008342:	e0 18 ff fc 	andl	r8,0xfffc
80008346:	0e 38       	cp.w	r8,r7
80008348:	5f 39       	srlo	r9
8000834a:	0e 18       	sub	r8,r7
8000834c:	58 f8       	cp.w	r8,15
8000834e:	5f aa       	srle	r10
80008350:	f5 e9 10 09 	or	r9,r10,r9
80008354:	c1 60       	breq	80008380 <_malloc_r+0x42c>
80008356:	0a 9c       	mov	r12,r5
80008358:	f0 1f 00 09 	mcall	8000837c <_malloc_r+0x428>
8000835c:	d8 3a       	popm	r0-r7,pc,r12=0
8000835e:	00 00       	add	r0,r0
80008360:	00 00       	add	r0,r0
80008362:	06 50       	eor	r0,r3
80008364:	00 00       	add	r0,r0
80008366:	05 04       	ld.w	r4,r2++
80008368:	80 00       	ld.sh	r0,r0[0x0]
8000836a:	8e c0       	ld.uh	r0,r7[0x8]
8000836c:	00 00       	add	r0,r0
8000836e:	06 54       	eor	r4,r3
80008370:	80 00       	ld.sh	r0,r0[0x0]
80008372:	79 b0       	ld.w	r0,r12[0x6c]
80008374:	00 00       	add	r0,r0
80008376:	06 4c       	or	r12,r3
80008378:	00 00       	add	r0,r0
8000837a:	06 48       	or	r8,r3
8000837c:	80 00       	ld.sh	r0,r0[0x0]
8000837e:	85 50       	st.w	r2[0x14],r0
80008380:	68 26       	ld.w	r6,r4[0x8]
80008382:	a1 a8       	sbr	r8,0x0
80008384:	0e 99       	mov	r9,r7
80008386:	a1 a9       	sbr	r9,0x0
80008388:	8d 19       	st.w	r6[0x4],r9
8000838a:	ec 07 00 07 	add	r7,r6,r7
8000838e:	0a 9c       	mov	r12,r5
80008390:	89 27       	st.w	r4[0x8],r7
80008392:	8f 18       	st.w	r7[0x4],r8
80008394:	f0 1f 00 03 	mcall	800083a0 <_malloc_r+0x44c>
80008398:	ec cc ff f8 	sub	r12,r6,-8
8000839c:	d8 32       	popm	r0-r7,pc
8000839e:	00 00       	add	r0,r0
800083a0:	80 00       	ld.sh	r0,r0[0x0]
800083a2:	85 50       	st.w	r2[0x14],r0

800083a4 <memchr>:
800083a4:	f7 db c0 08 	bfextu	r11,r11,0x0,0x8
800083a8:	c0 68       	rjmp	800083b4 <memchr+0x10>
800083aa:	20 1a       	sub	r10,1
800083ac:	19 88       	ld.ub	r8,r12[0x0]
800083ae:	16 38       	cp.w	r8,r11
800083b0:	5e 0c       	reteq	r12
800083b2:	2f fc       	sub	r12,-1
800083b4:	58 0a       	cp.w	r10,0
800083b6:	cf a1       	brne	800083aa <memchr+0x6>
800083b8:	5e fa       	retal	r10

800083ba <memcpy>:
800083ba:	58 8a       	cp.w	r10,8
800083bc:	c2 f5       	brlt	8000841a <memcpy+0x60>
800083be:	f9 eb 10 09 	or	r9,r12,r11
800083c2:	e2 19 00 03 	andl	r9,0x3,COH
800083c6:	e0 81 00 97 	brne	800084f4 <memcpy+0x13a>
800083ca:	e0 4a 00 20 	cp.w	r10,32
800083ce:	c3 b4       	brge	80008444 <memcpy+0x8a>
800083d0:	f4 08 14 02 	asr	r8,r10,0x2
800083d4:	f0 09 11 08 	rsub	r9,r8,8
800083d8:	fe 09 00 2f 	add	pc,pc,r9<<0x2
800083dc:	76 69       	ld.w	r9,r11[0x18]
800083de:	99 69       	st.w	r12[0x18],r9
800083e0:	76 59       	ld.w	r9,r11[0x14]
800083e2:	99 59       	st.w	r12[0x14],r9
800083e4:	76 49       	ld.w	r9,r11[0x10]
800083e6:	99 49       	st.w	r12[0x10],r9
800083e8:	76 39       	ld.w	r9,r11[0xc]
800083ea:	99 39       	st.w	r12[0xc],r9
800083ec:	76 29       	ld.w	r9,r11[0x8]
800083ee:	99 29       	st.w	r12[0x8],r9
800083f0:	76 19       	ld.w	r9,r11[0x4]
800083f2:	99 19       	st.w	r12[0x4],r9
800083f4:	76 09       	ld.w	r9,r11[0x0]
800083f6:	99 09       	st.w	r12[0x0],r9
800083f8:	f6 08 00 2b 	add	r11,r11,r8<<0x2
800083fc:	f8 08 00 28 	add	r8,r12,r8<<0x2
80008400:	e0 1a 00 03 	andl	r10,0x3
80008404:	f4 0a 11 04 	rsub	r10,r10,4
80008408:	fe 0a 00 2f 	add	pc,pc,r10<<0x2
8000840c:	17 a9       	ld.ub	r9,r11[0x2]
8000840e:	b0 a9       	st.b	r8[0x2],r9
80008410:	17 99       	ld.ub	r9,r11[0x1]
80008412:	b0 99       	st.b	r8[0x1],r9
80008414:	17 89       	ld.ub	r9,r11[0x0]
80008416:	b0 89       	st.b	r8[0x0],r9
80008418:	5e fc       	retal	r12
8000841a:	f4 0a 11 09 	rsub	r10,r10,9
8000841e:	fe 0a 00 2f 	add	pc,pc,r10<<0x2
80008422:	17 f9       	ld.ub	r9,r11[0x7]
80008424:	b8 f9       	st.b	r12[0x7],r9
80008426:	17 e9       	ld.ub	r9,r11[0x6]
80008428:	b8 e9       	st.b	r12[0x6],r9
8000842a:	17 d9       	ld.ub	r9,r11[0x5]
8000842c:	b8 d9       	st.b	r12[0x5],r9
8000842e:	17 c9       	ld.ub	r9,r11[0x4]
80008430:	b8 c9       	st.b	r12[0x4],r9
80008432:	17 b9       	ld.ub	r9,r11[0x3]
80008434:	b8 b9       	st.b	r12[0x3],r9
80008436:	17 a9       	ld.ub	r9,r11[0x2]
80008438:	b8 a9       	st.b	r12[0x2],r9
8000843a:	17 99       	ld.ub	r9,r11[0x1]
8000843c:	b8 99       	st.b	r12[0x1],r9
8000843e:	17 89       	ld.ub	r9,r11[0x0]
80008440:	b8 89       	st.b	r12[0x0],r9
80008442:	5e fc       	retal	r12
80008444:	eb cd 40 c0 	pushm	r6-r7,lr
80008448:	18 99       	mov	r9,r12
8000844a:	22 0a       	sub	r10,32
8000844c:	b7 07       	ld.d	r6,r11++
8000844e:	b3 26       	st.d	r9++,r6
80008450:	b7 07       	ld.d	r6,r11++
80008452:	b3 26       	st.d	r9++,r6
80008454:	b7 07       	ld.d	r6,r11++
80008456:	b3 26       	st.d	r9++,r6
80008458:	b7 07       	ld.d	r6,r11++
8000845a:	b3 26       	st.d	r9++,r6
8000845c:	22 0a       	sub	r10,32
8000845e:	cf 74       	brge	8000844c <memcpy+0x92>
80008460:	2f 0a       	sub	r10,-16
80008462:	c0 65       	brlt	8000846e <memcpy+0xb4>
80008464:	b7 07       	ld.d	r6,r11++
80008466:	b3 26       	st.d	r9++,r6
80008468:	b7 07       	ld.d	r6,r11++
8000846a:	b3 26       	st.d	r9++,r6
8000846c:	21 0a       	sub	r10,16
8000846e:	5c 3a       	neg	r10
80008470:	fe 0a 00 3f 	add	pc,pc,r10<<0x3
80008474:	d7 03       	nop
80008476:	d7 03       	nop
80008478:	f7 36 00 0e 	ld.ub	r6,r11[14]
8000847c:	f3 66 00 0e 	st.b	r9[14],r6
80008480:	f7 36 00 0d 	ld.ub	r6,r11[13]
80008484:	f3 66 00 0d 	st.b	r9[13],r6
80008488:	f7 36 00 0c 	ld.ub	r6,r11[12]
8000848c:	f3 66 00 0c 	st.b	r9[12],r6
80008490:	f7 36 00 0b 	ld.ub	r6,r11[11]
80008494:	f3 66 00 0b 	st.b	r9[11],r6
80008498:	f7 36 00 0a 	ld.ub	r6,r11[10]
8000849c:	f3 66 00 0a 	st.b	r9[10],r6
800084a0:	f7 36 00 09 	ld.ub	r6,r11[9]
800084a4:	f3 66 00 09 	st.b	r9[9],r6
800084a8:	f7 36 00 08 	ld.ub	r6,r11[8]
800084ac:	f3 66 00 08 	st.b	r9[8],r6
800084b0:	f7 36 00 07 	ld.ub	r6,r11[7]
800084b4:	f3 66 00 07 	st.b	r9[7],r6
800084b8:	f7 36 00 06 	ld.ub	r6,r11[6]
800084bc:	f3 66 00 06 	st.b	r9[6],r6
800084c0:	f7 36 00 05 	ld.ub	r6,r11[5]
800084c4:	f3 66 00 05 	st.b	r9[5],r6
800084c8:	f7 36 00 04 	ld.ub	r6,r11[4]
800084cc:	f3 66 00 04 	st.b	r9[4],r6
800084d0:	f7 36 00 03 	ld.ub	r6,r11[3]
800084d4:	f3 66 00 03 	st.b	r9[3],r6
800084d8:	f7 36 00 02 	ld.ub	r6,r11[2]
800084dc:	f3 66 00 02 	st.b	r9[2],r6
800084e0:	f7 36 00 01 	ld.ub	r6,r11[1]
800084e4:	f3 66 00 01 	st.b	r9[1],r6
800084e8:	f7 36 00 00 	ld.ub	r6,r11[0]
800084ec:	f3 66 00 00 	st.b	r9[0],r6
800084f0:	e3 cd 80 c0 	ldm	sp++,r6-r7,pc
800084f4:	20 1a       	sub	r10,1
800084f6:	f6 0a 07 09 	ld.ub	r9,r11[r10]
800084fa:	f8 0a 0b 09 	st.b	r12[r10],r9
800084fe:	cf b1       	brne	800084f4 <memcpy+0x13a>
80008500:	5e fc       	retal	r12

80008502 <memmove>:
80008502:	d4 01       	pushm	lr
80008504:	18 3b       	cp.w	r11,r12
80008506:	c1 92       	brcc	80008538 <memmove+0x36>
80008508:	f6 0a 00 09 	add	r9,r11,r10
8000850c:	12 3c       	cp.w	r12,r9
8000850e:	c1 52       	brcc	80008538 <memmove+0x36>
80008510:	f8 0a 00 0b 	add	r11,r12,r10
80008514:	30 08       	mov	r8,0
80008516:	c0 68       	rjmp	80008522 <memmove+0x20>
80008518:	f2 08 07 0e 	ld.ub	lr,r9[r8]
8000851c:	20 1a       	sub	r10,1
8000851e:	f6 08 0b 0e 	st.b	r11[r8],lr
80008522:	20 18       	sub	r8,1
80008524:	58 0a       	cp.w	r10,0
80008526:	cf 91       	brne	80008518 <memmove+0x16>
80008528:	d8 02       	popm	pc
8000852a:	f6 08 07 09 	ld.ub	r9,r11[r8]
8000852e:	20 1a       	sub	r10,1
80008530:	f8 08 0b 09 	st.b	r12[r8],r9
80008534:	2f f8       	sub	r8,-1
80008536:	c0 28       	rjmp	8000853a <memmove+0x38>
80008538:	30 08       	mov	r8,0
8000853a:	58 0a       	cp.w	r10,0
8000853c:	cf 71       	brne	8000852a <memmove+0x28>
8000853e:	d8 02       	popm	pc

80008540 <memset>:
80008540:	18 98       	mov	r8,r12
80008542:	c0 38       	rjmp	80008548 <memset+0x8>
80008544:	10 cb       	st.b	r8++,r11
80008546:	20 1a       	sub	r10,1
80008548:	58 0a       	cp.w	r10,0
8000854a:	cf d1       	brne	80008544 <memset+0x4>
8000854c:	5e fc       	retal	r12

8000854e <__malloc_lock>:
8000854e:	5e fc       	retal	r12

80008550 <__malloc_unlock>:
80008550:	5e fc       	retal	r12

80008552 <__hi0bits>:
80008552:	18 98       	mov	r8,r12
80008554:	e0 1c 00 00 	andl	r12,0x0
80008558:	f0 09 15 10 	lsl	r9,r8,0x10
8000855c:	58 0c       	cp.w	r12,0
8000855e:	f2 08 17 00 	moveq	r8,r9
80008562:	f9 bc 00 10 	moveq	r12,16
80008566:	f9 bc 01 00 	movne	r12,0
8000856a:	10 9a       	mov	r10,r8
8000856c:	f0 09 15 08 	lsl	r9,r8,0x8
80008570:	e6 1a ff 00 	andh	r10,0xff00,COH
80008574:	f7 bc 00 f8 	subeq	r12,-8
80008578:	f2 08 17 00 	moveq	r8,r9
8000857c:	10 9a       	mov	r10,r8
8000857e:	f0 09 15 04 	lsl	r9,r8,0x4
80008582:	e6 1a f0 00 	andh	r10,0xf000,COH
80008586:	f7 bc 00 fc 	subeq	r12,-4
8000858a:	f2 08 17 00 	moveq	r8,r9
8000858e:	10 9a       	mov	r10,r8
80008590:	f0 09 15 02 	lsl	r9,r8,0x2
80008594:	e6 1a c0 00 	andh	r10,0xc000,COH
80008598:	f7 bc 00 fe 	subeq	r12,-2
8000859c:	f2 08 17 00 	moveq	r8,r9
800085a0:	58 08       	cp.w	r8,0
800085a2:	5e 5c       	retlt	r12
800085a4:	ed b8 00 1e 	bld	r8,0x1e
800085a8:	f9 bc 01 20 	movne	r12,32
800085ac:	f7 bc 00 ff 	subeq	r12,-1
800085b0:	5e fc       	retal	r12

800085b2 <__lo0bits>:
800085b2:	18 99       	mov	r9,r12
800085b4:	78 08       	ld.w	r8,r12[0x0]
800085b6:	f9 d8 c0 03 	bfextu	r12,r8,0x0,0x3
800085ba:	c1 50       	breq	800085e4 <__lo0bits+0x32>
800085bc:	ed b8 00 00 	bld	r8,0x0
800085c0:	c0 21       	brne	800085c4 <__lo0bits+0x12>
800085c2:	5e fd       	retal	0
800085c4:	10 9b       	mov	r11,r8
800085c6:	f0 0a 16 01 	lsr	r10,r8,0x1
800085ca:	e2 1b 00 02 	andl	r11,0x2,COH
800085ce:	a3 88       	lsr	r8,0x2
800085d0:	58 0b       	cp.w	r11,0
800085d2:	f3 fa 1a 00 	st.wne	r9[0x0],r10
800085d6:	f9 bc 01 01 	movne	r12,1
800085da:	f3 f8 0a 00 	st.weq	r9[0x0],r8
800085de:	f9 bc 00 02 	moveq	r12,2
800085e2:	5e fc       	retal	r12
800085e4:	f5 d8 c0 10 	bfextu	r10,r8,0x0,0x10
800085e8:	f0 0b 16 10 	lsr	r11,r8,0x10
800085ec:	58 0a       	cp.w	r10,0
800085ee:	f6 08 17 00 	moveq	r8,r11
800085f2:	f9 bc 00 10 	moveq	r12,16
800085f6:	f7 d8 c0 08 	bfextu	r11,r8,0x0,0x8
800085fa:	f0 0a 16 08 	lsr	r10,r8,0x8
800085fe:	58 0b       	cp.w	r11,0
80008600:	f7 bc 00 f8 	subeq	r12,-8
80008604:	f4 08 17 00 	moveq	r8,r10
80008608:	f7 d8 c0 04 	bfextu	r11,r8,0x0,0x4
8000860c:	f0 0a 16 04 	lsr	r10,r8,0x4
80008610:	58 0b       	cp.w	r11,0
80008612:	f7 bc 00 fc 	subeq	r12,-4
80008616:	f4 08 17 00 	moveq	r8,r10
8000861a:	f7 d8 c0 02 	bfextu	r11,r8,0x0,0x2
8000861e:	f0 0a 16 02 	lsr	r10,r8,0x2
80008622:	58 0b       	cp.w	r11,0
80008624:	f7 bc 00 fe 	subeq	r12,-2
80008628:	f4 08 17 00 	moveq	r8,r10
8000862c:	ed b8 00 00 	bld	r8,0x0
80008630:	c0 60       	breq	8000863c <__lo0bits+0x8a>
80008632:	a1 98       	lsr	r8,0x1
80008634:	c0 31       	brne	8000863a <__lo0bits+0x88>
80008636:	32 0c       	mov	r12,32
80008638:	5e fc       	retal	r12
8000863a:	2f fc       	sub	r12,-1
8000863c:	93 08       	st.w	r9[0x0],r8
8000863e:	5e fc       	retal	r12

80008640 <__mcmp>:
80008640:	d4 01       	pushm	lr
80008642:	18 98       	mov	r8,r12
80008644:	76 49       	ld.w	r9,r11[0x10]
80008646:	78 4c       	ld.w	r12,r12[0x10]
80008648:	12 1c       	sub	r12,r9
8000864a:	c1 31       	brne	80008670 <__mcmp+0x30>
8000864c:	2f b9       	sub	r9,-5
8000864e:	a3 69       	lsl	r9,0x2
80008650:	12 0b       	add	r11,r9
80008652:	f0 09 00 09 	add	r9,r8,r9
80008656:	2e c8       	sub	r8,-20
80008658:	13 4e       	ld.w	lr,--r9
8000865a:	17 4a       	ld.w	r10,--r11
8000865c:	14 3e       	cp.w	lr,r10
8000865e:	c0 60       	breq	8000866a <__mcmp+0x2a>
80008660:	f9 bc 03 ff 	movlo	r12,-1
80008664:	f9 bc 02 01 	movhs	r12,1
80008668:	d8 02       	popm	pc
8000866a:	10 39       	cp.w	r9,r8
8000866c:	fe 9b ff f6 	brhi	80008658 <__mcmp+0x18>
80008670:	d8 02       	popm	pc
80008672:	d7 03       	nop

80008674 <_Bfree>:
80008674:	d4 21       	pushm	r4-r7,lr
80008676:	18 97       	mov	r7,r12
80008678:	16 95       	mov	r5,r11
8000867a:	78 96       	ld.w	r6,r12[0x24]
8000867c:	58 06       	cp.w	r6,0
8000867e:	c0 91       	brne	80008690 <_Bfree+0x1c>
80008680:	31 0c       	mov	r12,16
80008682:	f0 1f 00 0a 	mcall	800086a8 <_Bfree+0x34>
80008686:	99 36       	st.w	r12[0xc],r6
80008688:	8f 9c       	st.w	r7[0x24],r12
8000868a:	99 16       	st.w	r12[0x4],r6
8000868c:	99 26       	st.w	r12[0x8],r6
8000868e:	99 06       	st.w	r12[0x0],r6
80008690:	58 05       	cp.w	r5,0
80008692:	c0 90       	breq	800086a4 <_Bfree+0x30>
80008694:	6a 19       	ld.w	r9,r5[0x4]
80008696:	6e 98       	ld.w	r8,r7[0x24]
80008698:	70 38       	ld.w	r8,r8[0xc]
8000869a:	f0 09 03 2a 	ld.w	r10,r8[r9<<0x2]
8000869e:	8b 0a       	st.w	r5[0x0],r10
800086a0:	f0 09 09 25 	st.w	r8[r9<<0x2],r5
800086a4:	d8 22       	popm	r4-r7,pc
800086a6:	00 00       	add	r0,r0
800086a8:	80 00       	ld.sh	r0,r0[0x0]
800086aa:	7f 3c       	ld.w	r12,pc[0x4c]

800086ac <_Balloc>:
800086ac:	d4 21       	pushm	r4-r7,lr
800086ae:	18 97       	mov	r7,r12
800086b0:	16 96       	mov	r6,r11
800086b2:	78 95       	ld.w	r5,r12[0x24]
800086b4:	58 05       	cp.w	r5,0
800086b6:	c0 91       	brne	800086c8 <_Balloc+0x1c>
800086b8:	31 0c       	mov	r12,16
800086ba:	f0 1f 00 19 	mcall	8000871c <_Balloc+0x70>
800086be:	99 35       	st.w	r12[0xc],r5
800086c0:	8f 9c       	st.w	r7[0x24],r12
800086c2:	99 15       	st.w	r12[0x4],r5
800086c4:	99 25       	st.w	r12[0x8],r5
800086c6:	99 05       	st.w	r12[0x0],r5
800086c8:	6e 95       	ld.w	r5,r7[0x24]
800086ca:	6a 38       	ld.w	r8,r5[0xc]
800086cc:	58 08       	cp.w	r8,0
800086ce:	c0 b1       	brne	800086e4 <_Balloc+0x38>
800086d0:	31 0a       	mov	r10,16
800086d2:	30 4b       	mov	r11,4
800086d4:	0e 9c       	mov	r12,r7
800086d6:	f0 1f 00 13 	mcall	80008720 <_Balloc+0x74>
800086da:	8b 3c       	st.w	r5[0xc],r12
800086dc:	6e 98       	ld.w	r8,r7[0x24]
800086de:	70 3c       	ld.w	r12,r8[0xc]
800086e0:	58 0c       	cp.w	r12,0
800086e2:	c1 b0       	breq	80008718 <_Balloc+0x6c>
800086e4:	6e 98       	ld.w	r8,r7[0x24]
800086e6:	70 38       	ld.w	r8,r8[0xc]
800086e8:	f0 06 00 28 	add	r8,r8,r6<<0x2
800086ec:	70 0c       	ld.w	r12,r8[0x0]
800086ee:	58 0c       	cp.w	r12,0
800086f0:	c0 40       	breq	800086f8 <_Balloc+0x4c>
800086f2:	78 09       	ld.w	r9,r12[0x0]
800086f4:	91 09       	st.w	r8[0x0],r9
800086f6:	c0 e8       	rjmp	80008712 <_Balloc+0x66>
800086f8:	0e 9c       	mov	r12,r7
800086fa:	30 17       	mov	r7,1
800086fc:	0e 9b       	mov	r11,r7
800086fe:	ee 06 09 47 	lsl	r7,r7,r6
80008702:	ee ca ff fb 	sub	r10,r7,-5
80008706:	a3 6a       	lsl	r10,0x2
80008708:	f0 1f 00 06 	mcall	80008720 <_Balloc+0x74>
8000870c:	c0 60       	breq	80008718 <_Balloc+0x6c>
8000870e:	99 16       	st.w	r12[0x4],r6
80008710:	99 27       	st.w	r12[0x8],r7
80008712:	30 08       	mov	r8,0
80008714:	99 38       	st.w	r12[0xc],r8
80008716:	99 48       	st.w	r12[0x10],r8
80008718:	d8 22       	popm	r4-r7,pc
8000871a:	00 00       	add	r0,r0
8000871c:	80 00       	ld.sh	r0,r0[0x0]
8000871e:	7f 3c       	ld.w	r12,pc[0x4c]
80008720:	80 00       	ld.sh	r0,r0[0x0]
80008722:	90 e0       	ld.uh	r0,r8[0xc]

80008724 <__d2b>:
80008724:	d4 31       	pushm	r0-r7,lr
80008726:	20 2d       	sub	sp,8
80008728:	16 93       	mov	r3,r11
8000872a:	12 96       	mov	r6,r9
8000872c:	10 95       	mov	r5,r8
8000872e:	14 92       	mov	r2,r10
80008730:	30 1b       	mov	r11,1
80008732:	f0 1f 00 27 	mcall	800087cc <__d2b+0xa8>
80008736:	f3 d3 c0 14 	bfextu	r9,r3,0x0,0x14
8000873a:	50 09       	stdsp	sp[0x0],r9
8000873c:	f1 d3 c0 1f 	bfextu	r8,r3,0x0,0x1f
80008740:	b5 a9       	sbr	r9,0x14
80008742:	f0 01 16 14 	lsr	r1,r8,0x14
80008746:	fb f9 1a 00 	st.wne	sp[0x0],r9
8000874a:	18 94       	mov	r4,r12
8000874c:	58 02       	cp.w	r2,0
8000874e:	c1 e0       	breq	8000878a <__d2b+0x66>
80008750:	fa cc ff f8 	sub	r12,sp,-8
80008754:	18 d2       	st.w	--r12,r2
80008756:	f0 1f 00 1f 	mcall	800087d0 <__d2b+0xac>
8000875a:	40 18       	lddsp	r8,sp[0x4]
8000875c:	c0 d0       	breq	80008776 <__d2b+0x52>
8000875e:	40 09       	lddsp	r9,sp[0x0]
80008760:	f8 0a 11 20 	rsub	r10,r12,32
80008764:	f2 0a 09 4a 	lsl	r10,r9,r10
80008768:	f5 e8 10 08 	or	r8,r10,r8
8000876c:	89 58       	st.w	r4[0x14],r8
8000876e:	f2 0c 0a 49 	lsr	r9,r9,r12
80008772:	50 09       	stdsp	sp[0x0],r9
80008774:	c0 28       	rjmp	80008778 <__d2b+0x54>
80008776:	89 58       	st.w	r4[0x14],r8
80008778:	40 08       	lddsp	r8,sp[0x0]
8000877a:	58 08       	cp.w	r8,0
8000877c:	f9 b3 01 02 	movne	r3,2
80008780:	f9 b3 00 01 	moveq	r3,1
80008784:	89 68       	st.w	r4[0x18],r8
80008786:	89 43       	st.w	r4[0x10],r3
80008788:	c0 98       	rjmp	8000879a <__d2b+0x76>
8000878a:	1a 9c       	mov	r12,sp
8000878c:	f0 1f 00 11 	mcall	800087d0 <__d2b+0xac>
80008790:	30 13       	mov	r3,1
80008792:	40 08       	lddsp	r8,sp[0x0]
80008794:	2e 0c       	sub	r12,-32
80008796:	89 43       	st.w	r4[0x10],r3
80008798:	89 58       	st.w	r4[0x14],r8
8000879a:	58 01       	cp.w	r1,0
8000879c:	c0 90       	breq	800087ae <__d2b+0x8a>
8000879e:	e2 c1 04 33 	sub	r1,r1,1075
800087a2:	18 01       	add	r1,r12
800087a4:	8d 01       	st.w	r6[0x0],r1
800087a6:	f8 0c 11 35 	rsub	r12,r12,53
800087aa:	8b 0c       	st.w	r5[0x0],r12
800087ac:	c0 d8       	rjmp	800087c6 <__d2b+0xa2>
800087ae:	e6 c8 ff fc 	sub	r8,r3,-4
800087b2:	f8 cc 04 32 	sub	r12,r12,1074
800087b6:	a5 73       	lsl	r3,0x5
800087b8:	8d 0c       	st.w	r6[0x0],r12
800087ba:	e8 08 03 2c 	ld.w	r12,r4[r8<<0x2]
800087be:	f0 1f 00 06 	mcall	800087d4 <__d2b+0xb0>
800087c2:	18 13       	sub	r3,r12
800087c4:	8b 03       	st.w	r5[0x0],r3
800087c6:	08 9c       	mov	r12,r4
800087c8:	2f ed       	sub	sp,-8
800087ca:	d8 32       	popm	r0-r7,pc
800087cc:	80 00       	ld.sh	r0,r0[0x0]
800087ce:	86 ac       	ld.uh	r12,r3[0x4]
800087d0:	80 00       	ld.sh	r0,r0[0x0]
800087d2:	85 b2       	st.w	r2[0x2c],r2
800087d4:	80 00       	ld.sh	r0,r0[0x0]
800087d6:	85 52       	st.w	r2[0x14],r2

800087d8 <__mdiff>:
800087d8:	d4 31       	pushm	r0-r7,lr
800087da:	74 48       	ld.w	r8,r10[0x10]
800087dc:	76 45       	ld.w	r5,r11[0x10]
800087de:	16 97       	mov	r7,r11
800087e0:	14 96       	mov	r6,r10
800087e2:	10 15       	sub	r5,r8
800087e4:	c1 31       	brne	8000880a <__mdiff+0x32>
800087e6:	2f b8       	sub	r8,-5
800087e8:	ee ce ff ec 	sub	lr,r7,-20
800087ec:	a3 68       	lsl	r8,0x2
800087ee:	f4 08 00 0b 	add	r11,r10,r8
800087f2:	ee 08 00 08 	add	r8,r7,r8
800087f6:	11 4a       	ld.w	r10,--r8
800087f8:	17 49       	ld.w	r9,--r11
800087fa:	12 3a       	cp.w	r10,r9
800087fc:	c0 30       	breq	80008802 <__mdiff+0x2a>
800087fe:	c0 e2       	brcc	8000881a <__mdiff+0x42>
80008800:	c0 78       	rjmp	8000880e <__mdiff+0x36>
80008802:	1c 38       	cp.w	r8,lr
80008804:	fe 9b ff f9 	brhi	800087f6 <__mdiff+0x1e>
80008808:	c4 a8       	rjmp	8000889c <__mdiff+0xc4>
8000880a:	58 05       	cp.w	r5,0
8000880c:	c0 64       	brge	80008818 <__mdiff+0x40>
8000880e:	0e 98       	mov	r8,r7
80008810:	30 15       	mov	r5,1
80008812:	0c 97       	mov	r7,r6
80008814:	10 96       	mov	r6,r8
80008816:	c0 28       	rjmp	8000881a <__mdiff+0x42>
80008818:	30 05       	mov	r5,0
8000881a:	6e 1b       	ld.w	r11,r7[0x4]
8000881c:	f0 1f 00 24 	mcall	800088ac <__mdiff+0xd4>
80008820:	6e 49       	ld.w	r9,r7[0x10]
80008822:	6c 44       	ld.w	r4,r6[0x10]
80008824:	99 35       	st.w	r12[0xc],r5
80008826:	2f b4       	sub	r4,-5
80008828:	f2 c5 ff fb 	sub	r5,r9,-5
8000882c:	ec 04 00 24 	add	r4,r6,r4<<0x2
80008830:	ee 05 00 25 	add	r5,r7,r5<<0x2
80008834:	2e c6       	sub	r6,-20
80008836:	2e c7       	sub	r7,-20
80008838:	f8 c8 ff ec 	sub	r8,r12,-20
8000883c:	30 0a       	mov	r10,0
8000883e:	0f 0e       	ld.w	lr,r7++
80008840:	0d 0b       	ld.w	r11,r6++
80008842:	fc 02 16 10 	lsr	r2,lr,0x10
80008846:	f6 03 16 10 	lsr	r3,r11,0x10
8000884a:	fd de c0 10 	bfextu	lr,lr,0x0,0x10
8000884e:	e4 03 01 03 	sub	r3,r2,r3
80008852:	f7 db c0 10 	bfextu	r11,r11,0x0,0x10
80008856:	fc 0b 01 0b 	sub	r11,lr,r11
8000885a:	f6 0a 00 0a 	add	r10,r11,r10
8000885e:	b0 1a       	st.h	r8[0x2],r10
80008860:	b1 4a       	asr	r10,0x10
80008862:	e6 0a 00 0a 	add	r10,r3,r10
80008866:	b0 0a       	st.h	r8[0x0],r10
80008868:	2f c8       	sub	r8,-4
8000886a:	b1 4a       	asr	r10,0x10
8000886c:	08 36       	cp.w	r6,r4
8000886e:	ce 83       	brcs	8000883e <__mdiff+0x66>
80008870:	c0 d8       	rjmp	8000888a <__mdiff+0xb2>
80008872:	0f 0b       	ld.w	r11,r7++
80008874:	f6 0e 16 10 	lsr	lr,r11,0x10
80008878:	f7 db c0 10 	bfextu	r11,r11,0x0,0x10
8000887c:	16 0a       	add	r10,r11
8000887e:	b0 1a       	st.h	r8[0x2],r10
80008880:	b1 4a       	asr	r10,0x10
80008882:	1c 0a       	add	r10,lr
80008884:	b0 0a       	st.h	r8[0x0],r10
80008886:	2f c8       	sub	r8,-4
80008888:	b1 4a       	asr	r10,0x10
8000888a:	0a 37       	cp.w	r7,r5
8000888c:	cf 33       	brcs	80008872 <__mdiff+0x9a>
8000888e:	c0 28       	rjmp	80008892 <__mdiff+0xba>
80008890:	20 19       	sub	r9,1
80008892:	11 4a       	ld.w	r10,--r8
80008894:	58 0a       	cp.w	r10,0
80008896:	cf d0       	breq	80008890 <__mdiff+0xb8>
80008898:	99 49       	st.w	r12[0x10],r9
8000889a:	d8 32       	popm	r0-r7,pc
8000889c:	30 0b       	mov	r11,0
8000889e:	f0 1f 00 04 	mcall	800088ac <__mdiff+0xd4>
800088a2:	30 18       	mov	r8,1
800088a4:	99 48       	st.w	r12[0x10],r8
800088a6:	30 08       	mov	r8,0
800088a8:	99 58       	st.w	r12[0x14],r8
800088aa:	d8 32       	popm	r0-r7,pc
800088ac:	80 00       	ld.sh	r0,r0[0x0]
800088ae:	86 ac       	ld.uh	r12,r3[0x4]

800088b0 <__lshift>:
800088b0:	d4 31       	pushm	r0-r7,lr
800088b2:	16 97       	mov	r7,r11
800088b4:	76 46       	ld.w	r6,r11[0x10]
800088b6:	f4 02 14 05 	asr	r2,r10,0x5
800088ba:	2f f6       	sub	r6,-1
800088bc:	14 93       	mov	r3,r10
800088be:	18 94       	mov	r4,r12
800088c0:	04 06       	add	r6,r2
800088c2:	76 1b       	ld.w	r11,r11[0x4]
800088c4:	6e 28       	ld.w	r8,r7[0x8]
800088c6:	c0 38       	rjmp	800088cc <__lshift+0x1c>
800088c8:	2f fb       	sub	r11,-1
800088ca:	a1 78       	lsl	r8,0x1
800088cc:	10 36       	cp.w	r6,r8
800088ce:	fe 99 ff fd 	brgt	800088c8 <__lshift+0x18>
800088d2:	08 9c       	mov	r12,r4
800088d4:	f0 1f 00 1a 	mcall	8000893c <__lshift+0x8c>
800088d8:	30 09       	mov	r9,0
800088da:	18 95       	mov	r5,r12
800088dc:	f8 c8 ff ec 	sub	r8,r12,-20
800088e0:	12 9a       	mov	r10,r9
800088e2:	c0 38       	rjmp	800088e8 <__lshift+0x38>
800088e4:	10 aa       	st.w	r8++,r10
800088e6:	2f f9       	sub	r9,-1
800088e8:	04 39       	cp.w	r9,r2
800088ea:	cf d5       	brlt	800088e4 <__lshift+0x34>
800088ec:	6e 4b       	ld.w	r11,r7[0x10]
800088ee:	e7 d3 c0 05 	bfextu	r3,r3,0x0,0x5
800088f2:	2f bb       	sub	r11,-5
800088f4:	ee c9 ff ec 	sub	r9,r7,-20
800088f8:	ee 0b 00 2b 	add	r11,r7,r11<<0x2
800088fc:	58 03       	cp.w	r3,0
800088fe:	c1 30       	breq	80008924 <__lshift+0x74>
80008900:	e6 0c 11 20 	rsub	r12,r3,32
80008904:	30 0a       	mov	r10,0
80008906:	72 02       	ld.w	r2,r9[0x0]
80008908:	e4 03 09 42 	lsl	r2,r2,r3
8000890c:	04 4a       	or	r10,r2
8000890e:	10 aa       	st.w	r8++,r10
80008910:	13 0a       	ld.w	r10,r9++
80008912:	f4 0c 0a 4a 	lsr	r10,r10,r12
80008916:	16 39       	cp.w	r9,r11
80008918:	cf 73       	brcs	80008906 <__lshift+0x56>
8000891a:	91 0a       	st.w	r8[0x0],r10
8000891c:	58 0a       	cp.w	r10,0
8000891e:	c0 70       	breq	8000892c <__lshift+0x7c>
80008920:	2f f6       	sub	r6,-1
80008922:	c0 58       	rjmp	8000892c <__lshift+0x7c>
80008924:	13 0a       	ld.w	r10,r9++
80008926:	10 aa       	st.w	r8++,r10
80008928:	16 39       	cp.w	r9,r11
8000892a:	cf d3       	brcs	80008924 <__lshift+0x74>
8000892c:	08 9c       	mov	r12,r4
8000892e:	20 16       	sub	r6,1
80008930:	0e 9b       	mov	r11,r7
80008932:	8b 46       	st.w	r5[0x10],r6
80008934:	f0 1f 00 03 	mcall	80008940 <__lshift+0x90>
80008938:	0a 9c       	mov	r12,r5
8000893a:	d8 32       	popm	r0-r7,pc
8000893c:	80 00       	ld.sh	r0,r0[0x0]
8000893e:	86 ac       	ld.uh	r12,r3[0x4]
80008940:	80 00       	ld.sh	r0,r0[0x0]
80008942:	86 74       	ld.sh	r4,r3[0xe]

80008944 <__multiply>:
80008944:	d4 31       	pushm	r0-r7,lr
80008946:	20 2d       	sub	sp,8
80008948:	76 49       	ld.w	r9,r11[0x10]
8000894a:	74 48       	ld.w	r8,r10[0x10]
8000894c:	16 96       	mov	r6,r11
8000894e:	14 95       	mov	r5,r10
80008950:	10 39       	cp.w	r9,r8
80008952:	ec 08 17 50 	movlt	r8,r6
80008956:	ea 06 17 50 	movlt	r6,r5
8000895a:	f0 05 17 50 	movlt	r5,r8
8000895e:	6c 28       	ld.w	r8,r6[0x8]
80008960:	76 43       	ld.w	r3,r11[0x10]
80008962:	74 42       	ld.w	r2,r10[0x10]
80008964:	76 1b       	ld.w	r11,r11[0x4]
80008966:	e4 03 00 07 	add	r7,r2,r3
8000896a:	10 37       	cp.w	r7,r8
8000896c:	f7 bb 09 ff 	subgt	r11,-1
80008970:	f0 1f 00 36 	mcall	80008a48 <__multiply+0x104>
80008974:	ee c4 ff fb 	sub	r4,r7,-5
80008978:	f8 c9 ff ec 	sub	r9,r12,-20
8000897c:	f8 04 00 24 	add	r4,r12,r4<<0x2
80008980:	30 0a       	mov	r10,0
80008982:	12 98       	mov	r8,r9
80008984:	c0 28       	rjmp	80008988 <__multiply+0x44>
80008986:	10 aa       	st.w	r8++,r10
80008988:	08 38       	cp.w	r8,r4
8000898a:	cf e3       	brcs	80008986 <__multiply+0x42>
8000898c:	2f b3       	sub	r3,-5
8000898e:	2f b2       	sub	r2,-5
80008990:	ec 03 00 23 	add	r3,r6,r3<<0x2
80008994:	ea 02 00 22 	add	r2,r5,r2<<0x2
80008998:	ec cb ff ec 	sub	r11,r6,-20
8000899c:	50 12       	stdsp	sp[0x4],r2
8000899e:	ea ca ff ec 	sub	r10,r5,-20
800089a2:	c4 48       	rjmp	80008a2a <__multiply+0xe6>
800089a4:	94 95       	ld.uh	r5,r10[0x2]
800089a6:	58 05       	cp.w	r5,0
800089a8:	c2 00       	breq	800089e8 <__multiply+0xa4>
800089aa:	12 98       	mov	r8,r9
800089ac:	16 96       	mov	r6,r11
800089ae:	30 0e       	mov	lr,0
800089b0:	50 09       	stdsp	sp[0x0],r9
800089b2:	0d 02       	ld.w	r2,r6++
800089b4:	e4 00 16 10 	lsr	r0,r2,0x10
800089b8:	70 01       	ld.w	r1,r8[0x0]
800089ba:	70 09       	ld.w	r9,r8[0x0]
800089bc:	b1 81       	lsr	r1,0x10
800089be:	e5 d2 c0 10 	bfextu	r2,r2,0x0,0x10
800089c2:	e0 05 03 41 	mac	r1,r0,r5
800089c6:	ab 32       	mul	r2,r5
800089c8:	e1 d9 c0 10 	bfextu	r0,r9,0x0,0x10
800089cc:	00 02       	add	r2,r0
800089ce:	e4 0e 00 0e 	add	lr,r2,lr
800089d2:	b0 1e       	st.h	r8[0x2],lr
800089d4:	b1 8e       	lsr	lr,0x10
800089d6:	1c 01       	add	r1,lr
800089d8:	b0 01       	st.h	r8[0x0],r1
800089da:	e2 0e 16 10 	lsr	lr,r1,0x10
800089de:	2f c8       	sub	r8,-4
800089e0:	06 36       	cp.w	r6,r3
800089e2:	ce 83       	brcs	800089b2 <__multiply+0x6e>
800089e4:	40 09       	lddsp	r9,sp[0x0]
800089e6:	91 0e       	st.w	r8[0x0],lr
800089e8:	94 86       	ld.uh	r6,r10[0x0]
800089ea:	58 06       	cp.w	r6,0
800089ec:	c1 d0       	breq	80008a26 <__multiply+0xe2>
800089ee:	72 02       	ld.w	r2,r9[0x0]
800089f0:	12 98       	mov	r8,r9
800089f2:	16 9e       	mov	lr,r11
800089f4:	30 05       	mov	r5,0
800089f6:	b0 12       	st.h	r8[0x2],r2
800089f8:	1d 01       	ld.w	r1,lr++
800089fa:	90 82       	ld.uh	r2,r8[0x0]
800089fc:	e1 d1 c0 10 	bfextu	r0,r1,0x0,0x10
80008a00:	ad 30       	mul	r0,r6
80008a02:	e0 02 00 02 	add	r2,r0,r2
80008a06:	e4 05 00 05 	add	r5,r2,r5
80008a0a:	b0 05       	st.h	r8[0x0],r5
80008a0c:	b1 85       	lsr	r5,0x10
80008a0e:	b1 81       	lsr	r1,0x10
80008a10:	2f c8       	sub	r8,-4
80008a12:	ad 31       	mul	r1,r6
80008a14:	90 92       	ld.uh	r2,r8[0x2]
80008a16:	e2 02 00 02 	add	r2,r1,r2
80008a1a:	0a 02       	add	r2,r5
80008a1c:	e4 05 16 10 	lsr	r5,r2,0x10
80008a20:	06 3e       	cp.w	lr,r3
80008a22:	ce a3       	brcs	800089f6 <__multiply+0xb2>
80008a24:	91 02       	st.w	r8[0x0],r2
80008a26:	2f ca       	sub	r10,-4
80008a28:	2f c9       	sub	r9,-4
80008a2a:	40 18       	lddsp	r8,sp[0x4]
80008a2c:	10 3a       	cp.w	r10,r8
80008a2e:	cb b3       	brcs	800089a4 <__multiply+0x60>
80008a30:	c0 28       	rjmp	80008a34 <__multiply+0xf0>
80008a32:	20 17       	sub	r7,1
80008a34:	58 07       	cp.w	r7,0
80008a36:	e0 8a 00 05 	brle	80008a40 <__multiply+0xfc>
80008a3a:	09 48       	ld.w	r8,--r4
80008a3c:	58 08       	cp.w	r8,0
80008a3e:	cf a0       	breq	80008a32 <__multiply+0xee>
80008a40:	99 47       	st.w	r12[0x10],r7
80008a42:	2f ed       	sub	sp,-8
80008a44:	d8 32       	popm	r0-r7,pc
80008a46:	00 00       	add	r0,r0
80008a48:	80 00       	ld.sh	r0,r0[0x0]
80008a4a:	86 ac       	ld.uh	r12,r3[0x4]

80008a4c <__i2b>:
80008a4c:	d4 21       	pushm	r4-r7,lr
80008a4e:	16 97       	mov	r7,r11
80008a50:	30 1b       	mov	r11,1
80008a52:	f0 1f 00 04 	mcall	80008a60 <__i2b+0x14>
80008a56:	30 19       	mov	r9,1
80008a58:	99 57       	st.w	r12[0x14],r7
80008a5a:	99 49       	st.w	r12[0x10],r9
80008a5c:	d8 22       	popm	r4-r7,pc
80008a5e:	00 00       	add	r0,r0
80008a60:	80 00       	ld.sh	r0,r0[0x0]
80008a62:	86 ac       	ld.uh	r12,r3[0x4]

80008a64 <__multadd>:
80008a64:	d4 31       	pushm	r0-r7,lr
80008a66:	30 08       	mov	r8,0
80008a68:	12 95       	mov	r5,r9
80008a6a:	16 97       	mov	r7,r11
80008a6c:	18 96       	mov	r6,r12
80008a6e:	76 44       	ld.w	r4,r11[0x10]
80008a70:	f6 c9 ff ec 	sub	r9,r11,-20
80008a74:	72 0b       	ld.w	r11,r9[0x0]
80008a76:	f6 0c 16 10 	lsr	r12,r11,0x10
80008a7a:	f7 db c0 10 	bfextu	r11,r11,0x0,0x10
80008a7e:	f4 0c 02 4c 	mul	r12,r10,r12
80008a82:	f4 0b 03 45 	mac	r5,r10,r11
80008a86:	f7 d5 c0 10 	bfextu	r11,r5,0x0,0x10
80008a8a:	b1 85       	lsr	r5,0x10
80008a8c:	18 05       	add	r5,r12
80008a8e:	ea 0c 15 10 	lsl	r12,r5,0x10
80008a92:	f8 0b 00 0b 	add	r11,r12,r11
80008a96:	12 ab       	st.w	r9++,r11
80008a98:	2f f8       	sub	r8,-1
80008a9a:	b1 85       	lsr	r5,0x10
80008a9c:	08 38       	cp.w	r8,r4
80008a9e:	ce b5       	brlt	80008a74 <__multadd+0x10>
80008aa0:	58 05       	cp.w	r5,0
80008aa2:	c1 d0       	breq	80008adc <__multadd+0x78>
80008aa4:	6e 28       	ld.w	r8,r7[0x8]
80008aa6:	10 34       	cp.w	r4,r8
80008aa8:	c1 45       	brlt	80008ad0 <__multadd+0x6c>
80008aaa:	6e 1b       	ld.w	r11,r7[0x4]
80008aac:	0c 9c       	mov	r12,r6
80008aae:	2f fb       	sub	r11,-1
80008ab0:	f0 1f 00 0c 	mcall	80008ae0 <__multadd+0x7c>
80008ab4:	6e 4a       	ld.w	r10,r7[0x10]
80008ab6:	ee cb ff f4 	sub	r11,r7,-12
80008aba:	18 93       	mov	r3,r12
80008abc:	2f ea       	sub	r10,-2
80008abe:	2f 4c       	sub	r12,-12
80008ac0:	a3 6a       	lsl	r10,0x2
80008ac2:	f0 1f 00 09 	mcall	80008ae4 <__multadd+0x80>
80008ac6:	0e 9b       	mov	r11,r7
80008ac8:	0c 9c       	mov	r12,r6
80008aca:	f0 1f 00 08 	mcall	80008ae8 <__multadd+0x84>
80008ace:	06 97       	mov	r7,r3
80008ad0:	e8 c8 ff ff 	sub	r8,r4,-1
80008ad4:	2f b4       	sub	r4,-5
80008ad6:	8f 48       	st.w	r7[0x10],r8
80008ad8:	ee 04 09 25 	st.w	r7[r4<<0x2],r5
80008adc:	0e 9c       	mov	r12,r7
80008ade:	d8 32       	popm	r0-r7,pc
80008ae0:	80 00       	ld.sh	r0,r0[0x0]
80008ae2:	86 ac       	ld.uh	r12,r3[0x4]
80008ae4:	80 00       	ld.sh	r0,r0[0x0]
80008ae6:	83 ba       	st.w	r1[0x2c],r10
80008ae8:	80 00       	ld.sh	r0,r0[0x0]
80008aea:	86 74       	ld.sh	r4,r3[0xe]

80008aec <__pow5mult>:
80008aec:	d4 31       	pushm	r0-r7,lr
80008aee:	14 96       	mov	r6,r10
80008af0:	18 97       	mov	r7,r12
80008af2:	16 94       	mov	r4,r11
80008af4:	f1 da c0 02 	bfextu	r8,r10,0x0,0x2
80008af8:	c0 90       	breq	80008b0a <__pow5mult+0x1e>
80008afa:	20 18       	sub	r8,1
80008afc:	4a 19       	lddpc	r9,80008b80 <__pow5mult+0x94>
80008afe:	f2 08 03 2a 	ld.w	r10,r9[r8<<0x2]
80008b02:	30 09       	mov	r9,0
80008b04:	f0 1f 00 20 	mcall	80008b84 <__pow5mult+0x98>
80008b08:	18 94       	mov	r4,r12
80008b0a:	a3 46       	asr	r6,0x2
80008b0c:	c3 70       	breq	80008b7a <__pow5mult+0x8e>
80008b0e:	6e 95       	ld.w	r5,r7[0x24]
80008b10:	58 05       	cp.w	r5,0
80008b12:	c0 91       	brne	80008b24 <__pow5mult+0x38>
80008b14:	31 0c       	mov	r12,16
80008b16:	f0 1f 00 1d 	mcall	80008b88 <__pow5mult+0x9c>
80008b1a:	99 35       	st.w	r12[0xc],r5
80008b1c:	8f 9c       	st.w	r7[0x24],r12
80008b1e:	99 15       	st.w	r12[0x4],r5
80008b20:	99 25       	st.w	r12[0x8],r5
80008b22:	99 05       	st.w	r12[0x0],r5
80008b24:	6e 93       	ld.w	r3,r7[0x24]
80008b26:	66 25       	ld.w	r5,r3[0x8]
80008b28:	58 05       	cp.w	r5,0
80008b2a:	c0 d1       	brne	80008b44 <__pow5mult+0x58>
80008b2c:	e0 6b 02 71 	mov	r11,625
80008b30:	0e 9c       	mov	r12,r7
80008b32:	f0 1f 00 17 	mcall	80008b8c <__pow5mult+0xa0>
80008b36:	87 2c       	st.w	r3[0x8],r12
80008b38:	30 08       	mov	r8,0
80008b3a:	18 95       	mov	r5,r12
80008b3c:	99 08       	st.w	r12[0x0],r8
80008b3e:	c0 38       	rjmp	80008b44 <__pow5mult+0x58>
80008b40:	06 9c       	mov	r12,r3
80008b42:	18 95       	mov	r5,r12
80008b44:	ed b6 00 00 	bld	r6,0x0
80008b48:	c0 c1       	brne	80008b60 <__pow5mult+0x74>
80008b4a:	08 9b       	mov	r11,r4
80008b4c:	0a 9a       	mov	r10,r5
80008b4e:	0e 9c       	mov	r12,r7
80008b50:	f0 1f 00 10 	mcall	80008b90 <__pow5mult+0xa4>
80008b54:	08 9b       	mov	r11,r4
80008b56:	18 93       	mov	r3,r12
80008b58:	0e 9c       	mov	r12,r7
80008b5a:	06 94       	mov	r4,r3
80008b5c:	f0 1f 00 0e 	mcall	80008b94 <__pow5mult+0xa8>
80008b60:	a1 56       	asr	r6,0x1
80008b62:	c0 c0       	breq	80008b7a <__pow5mult+0x8e>
80008b64:	6a 03       	ld.w	r3,r5[0x0]
80008b66:	58 03       	cp.w	r3,0
80008b68:	ce c1       	brne	80008b40 <__pow5mult+0x54>
80008b6a:	0a 9a       	mov	r10,r5
80008b6c:	0a 9b       	mov	r11,r5
80008b6e:	0e 9c       	mov	r12,r7
80008b70:	f0 1f 00 08 	mcall	80008b90 <__pow5mult+0xa4>
80008b74:	8b 0c       	st.w	r5[0x0],r12
80008b76:	99 03       	st.w	r12[0x0],r3
80008b78:	ce 5b       	rjmp	80008b42 <__pow5mult+0x56>
80008b7a:	08 9c       	mov	r12,r4
80008b7c:	d8 32       	popm	r0-r7,pc
80008b7e:	00 00       	add	r0,r0
80008b80:	80 00       	ld.sh	r0,r0[0x0]
80008b82:	a6 6c       	st.h	r3[0xc],r12
80008b84:	80 00       	ld.sh	r0,r0[0x0]
80008b86:	8a 64       	ld.sh	r4,r5[0xc]
80008b88:	80 00       	ld.sh	r0,r0[0x0]
80008b8a:	7f 3c       	ld.w	r12,pc[0x4c]
80008b8c:	80 00       	ld.sh	r0,r0[0x0]
80008b8e:	8a 4c       	ld.sh	r12,r5[0x8]
80008b90:	80 00       	ld.sh	r0,r0[0x0]
80008b92:	89 44       	st.w	r4[0x10],r4
80008b94:	80 00       	ld.sh	r0,r0[0x0]
80008b96:	86 74       	ld.sh	r4,r3[0xe]

80008b98 <_realloc_r>:
80008b98:	d4 31       	pushm	r0-r7,lr
80008b9a:	20 1d       	sub	sp,4
80008b9c:	16 94       	mov	r4,r11
80008b9e:	18 92       	mov	r2,r12
80008ba0:	14 9b       	mov	r11,r10
80008ba2:	58 04       	cp.w	r4,0
80008ba4:	c0 51       	brne	80008bae <_realloc_r+0x16>
80008ba6:	f0 1f 00 5b 	mcall	80008d10 <_realloc_r+0x178>
80008baa:	18 95       	mov	r5,r12
80008bac:	c5 b9       	rjmp	80008e62 <_realloc_r+0x2ca>
80008bae:	50 0a       	stdsp	sp[0x0],r10
80008bb0:	f0 1f 00 59 	mcall	80008d14 <_realloc_r+0x17c>
80008bb4:	40 0b       	lddsp	r11,sp[0x0]
80008bb6:	f6 c8 ff f5 	sub	r8,r11,-11
80008bba:	e8 c1 00 08 	sub	r1,r4,8
80008bbe:	10 96       	mov	r6,r8
80008bc0:	62 1c       	ld.w	r12,r1[0x4]
80008bc2:	e0 16 ff f8 	andl	r6,0xfff8
80008bc6:	59 68       	cp.w	r8,22
80008bc8:	f9 b6 08 10 	movls	r6,16
80008bcc:	16 36       	cp.w	r6,r11
80008bce:	5f 38       	srlo	r8
80008bd0:	f1 e6 13 f8 	or	r8,r8,r6>>0x1f
80008bd4:	c0 50       	breq	80008bde <_realloc_r+0x46>
80008bd6:	30 c8       	mov	r8,12
80008bd8:	30 05       	mov	r5,0
80008bda:	85 38       	st.w	r2[0xc],r8
80008bdc:	c4 39       	rjmp	80008e62 <_realloc_r+0x2ca>
80008bde:	18 90       	mov	r0,r12
80008be0:	e0 10 ff fc 	andl	r0,0xfffc
80008be4:	0c 30       	cp.w	r0,r6
80008be6:	e0 84 01 13 	brge	80008e0c <_realloc_r+0x274>
80008bea:	4c c8       	lddpc	r8,80008d18 <_realloc_r+0x180>
80008bec:	e2 00 00 09 	add	r9,r1,r0
80008bf0:	70 25       	ld.w	r5,r8[0x8]
80008bf2:	0a 39       	cp.w	r9,r5
80008bf4:	c0 90       	breq	80008c06 <_realloc_r+0x6e>
80008bf6:	72 1a       	ld.w	r10,r9[0x4]
80008bf8:	a1 ca       	cbr	r10,0x0
80008bfa:	f2 0a 00 0a 	add	r10,r9,r10
80008bfe:	74 1a       	ld.w	r10,r10[0x4]
80008c00:	ed ba 00 00 	bld	r10,0x0
80008c04:	c2 20       	breq	80008c48 <_realloc_r+0xb0>
80008c06:	72 1a       	ld.w	r10,r9[0x4]
80008c08:	e0 1a ff fc 	andl	r10,0xfffc
80008c0c:	f4 00 00 03 	add	r3,r10,r0
80008c10:	0a 39       	cp.w	r9,r5
80008c12:	c1 31       	brne	80008c38 <_realloc_r+0xa0>
80008c14:	ec c7 ff f0 	sub	r7,r6,-16
80008c18:	0e 33       	cp.w	r3,r7
80008c1a:	c1 95       	brlt	80008c4c <_realloc_r+0xb4>
80008c1c:	e2 06 00 09 	add	r9,r1,r6
80008c20:	0c 13       	sub	r3,r6
80008c22:	a1 a3       	sbr	r3,0x0
80008c24:	93 13       	st.w	r9[0x4],r3
80008c26:	91 29       	st.w	r8[0x8],r9
80008c28:	04 9c       	mov	r12,r2
80008c2a:	62 18       	ld.w	r8,r1[0x4]
80008c2c:	08 95       	mov	r5,r4
80008c2e:	f1 d8 c0 01 	bfextu	r8,r8,0x0,0x1
80008c32:	10 46       	or	r6,r8
80008c34:	83 16       	st.w	r1[0x4],r6
80008c36:	c1 49       	rjmp	80008e5e <_realloc_r+0x2c6>
80008c38:	0c 33       	cp.w	r3,r6
80008c3a:	c0 95       	brlt	80008c4c <_realloc_r+0xb4>
80008c3c:	72 28       	ld.w	r8,r9[0x8]
80008c3e:	02 97       	mov	r7,r1
80008c40:	72 39       	ld.w	r9,r9[0xc]
80008c42:	93 28       	st.w	r9[0x8],r8
80008c44:	91 39       	st.w	r8[0xc],r9
80008c46:	ce 58       	rjmp	80008e10 <_realloc_r+0x278>
80008c48:	30 0a       	mov	r10,0
80008c4a:	14 99       	mov	r9,r10
80008c4c:	ed bc 00 00 	bld	r12,0x0
80008c50:	e0 80 00 9e 	breq	80008d8c <_realloc_r+0x1f4>
80008c54:	62 07       	ld.w	r7,r1[0x0]
80008c56:	e2 07 01 07 	sub	r7,r1,r7
80008c5a:	6e 1c       	ld.w	r12,r7[0x4]
80008c5c:	e0 1c ff fc 	andl	r12,0xfffc
80008c60:	58 09       	cp.w	r9,0
80008c62:	c5 f0       	breq	80008d20 <_realloc_r+0x188>
80008c64:	f8 00 00 03 	add	r3,r12,r0
80008c68:	0a 39       	cp.w	r9,r5
80008c6a:	c4 81       	brne	80008cfa <_realloc_r+0x162>
80008c6c:	14 03       	add	r3,r10
80008c6e:	ec c9 ff f0 	sub	r9,r6,-16
80008c72:	12 33       	cp.w	r3,r9
80008c74:	c5 65       	brlt	80008d20 <_realloc_r+0x188>
80008c76:	6e 3a       	ld.w	r10,r7[0xc]
80008c78:	6e 29       	ld.w	r9,r7[0x8]
80008c7a:	95 29       	st.w	r10[0x8],r9
80008c7c:	93 3a       	st.w	r9[0xc],r10
80008c7e:	ee c5 ff f8 	sub	r5,r7,-8
80008c82:	e0 ca 00 04 	sub	r10,r0,4
80008c86:	e0 4a 00 24 	cp.w	r10,36
80008c8a:	e0 8b 00 25 	brhi	80008cd4 <_realloc_r+0x13c>
80008c8e:	0a 99       	mov	r9,r5
80008c90:	59 3a       	cp.w	r10,19
80008c92:	e0 88 00 1a 	brls	80008cc6 <_realloc_r+0x12e>
80008c96:	09 09       	ld.w	r9,r4++
80008c98:	8b 09       	st.w	r5[0x0],r9
80008c9a:	09 09       	ld.w	r9,r4++
80008c9c:	8f 39       	st.w	r7[0xc],r9
80008c9e:	ee c9 ff f0 	sub	r9,r7,-16
80008ca2:	59 ba       	cp.w	r10,27
80008ca4:	e0 88 00 11 	brls	80008cc6 <_realloc_r+0x12e>
80008ca8:	09 0b       	ld.w	r11,r4++
80008caa:	93 0b       	st.w	r9[0x0],r11
80008cac:	09 09       	ld.w	r9,r4++
80008cae:	8f 59       	st.w	r7[0x14],r9
80008cb0:	ee c9 ff e8 	sub	r9,r7,-24
80008cb4:	e0 4a 00 24 	cp.w	r10,36
80008cb8:	c0 71       	brne	80008cc6 <_realloc_r+0x12e>
80008cba:	09 0a       	ld.w	r10,r4++
80008cbc:	93 0a       	st.w	r9[0x0],r10
80008cbe:	ee c9 ff e0 	sub	r9,r7,-32
80008cc2:	09 0a       	ld.w	r10,r4++
80008cc4:	8f 7a       	st.w	r7[0x1c],r10
80008cc6:	09 0a       	ld.w	r10,r4++
80008cc8:	12 aa       	st.w	r9++,r10
80008cca:	68 0a       	ld.w	r10,r4[0x0]
80008ccc:	93 0a       	st.w	r9[0x0],r10
80008cce:	68 1a       	ld.w	r10,r4[0x4]
80008cd0:	93 1a       	st.w	r9[0x4],r10
80008cd2:	c0 78       	rjmp	80008ce0 <_realloc_r+0x148>
80008cd4:	50 08       	stdsp	sp[0x0],r8
80008cd6:	08 9b       	mov	r11,r4
80008cd8:	0a 9c       	mov	r12,r5
80008cda:	f0 1f 00 11 	mcall	80008d1c <_realloc_r+0x184>
80008cde:	40 08       	lddsp	r8,sp[0x0]
80008ce0:	ee 06 00 09 	add	r9,r7,r6
80008ce4:	0c 13       	sub	r3,r6
80008ce6:	a1 a3       	sbr	r3,0x0
80008ce8:	93 13       	st.w	r9[0x4],r3
80008cea:	91 29       	st.w	r8[0x8],r9
80008cec:	04 9c       	mov	r12,r2
80008cee:	6e 18       	ld.w	r8,r7[0x4]
80008cf0:	f1 d8 c0 01 	bfextu	r8,r8,0x0,0x1
80008cf4:	10 46       	or	r6,r8
80008cf6:	8f 16       	st.w	r7[0x4],r6
80008cf8:	cb 38       	rjmp	80008e5e <_realloc_r+0x2c6>
80008cfa:	14 03       	add	r3,r10
80008cfc:	0c 33       	cp.w	r3,r6
80008cfe:	c1 15       	brlt	80008d20 <_realloc_r+0x188>
80008d00:	72 28       	ld.w	r8,r9[0x8]
80008d02:	72 39       	ld.w	r9,r9[0xc]
80008d04:	93 28       	st.w	r9[0x8],r8
80008d06:	91 39       	st.w	r8[0xc],r9
80008d08:	6e 28       	ld.w	r8,r7[0x8]
80008d0a:	6e 39       	ld.w	r9,r7[0xc]
80008d0c:	c1 08       	rjmp	80008d2c <_realloc_r+0x194>
80008d0e:	00 00       	add	r0,r0
80008d10:	80 00       	ld.sh	r0,r0[0x0]
80008d12:	7f 54       	ld.w	r4,pc[0x54]
80008d14:	80 00       	ld.sh	r0,r0[0x0]
80008d16:	85 4e       	st.w	r2[0x10],lr
80008d18:	00 00       	add	r0,r0
80008d1a:	00 f8       	st.b	--r0,r8
80008d1c:	80 00       	ld.sh	r0,r0[0x0]
80008d1e:	85 02       	st.w	r2[0x0],r2
80008d20:	f8 00 00 03 	add	r3,r12,r0
80008d24:	0c 33       	cp.w	r3,r6
80008d26:	c3 35       	brlt	80008d8c <_realloc_r+0x1f4>
80008d28:	6e 39       	ld.w	r9,r7[0xc]
80008d2a:	6e 28       	ld.w	r8,r7[0x8]
80008d2c:	93 28       	st.w	r9[0x8],r8
80008d2e:	91 39       	st.w	r8[0xc],r9
80008d30:	e0 ca 00 04 	sub	r10,r0,4
80008d34:	ee cc ff f8 	sub	r12,r7,-8
80008d38:	e0 4a 00 24 	cp.w	r10,36
80008d3c:	e0 8b 00 24 	brhi	80008d84 <_realloc_r+0x1ec>
80008d40:	59 3a       	cp.w	r10,19
80008d42:	e0 88 00 1a 	brls	80008d76 <_realloc_r+0x1de>
80008d46:	09 08       	ld.w	r8,r4++
80008d48:	99 08       	st.w	r12[0x0],r8
80008d4a:	09 08       	ld.w	r8,r4++
80008d4c:	8f 38       	st.w	r7[0xc],r8
80008d4e:	ee cc ff f0 	sub	r12,r7,-16
80008d52:	59 ba       	cp.w	r10,27
80008d54:	e0 88 00 11 	brls	80008d76 <_realloc_r+0x1de>
80008d58:	09 08       	ld.w	r8,r4++
80008d5a:	99 08       	st.w	r12[0x0],r8
80008d5c:	09 08       	ld.w	r8,r4++
80008d5e:	8f 58       	st.w	r7[0x14],r8
80008d60:	ee cc ff e8 	sub	r12,r7,-24
80008d64:	e0 4a 00 24 	cp.w	r10,36
80008d68:	c0 71       	brne	80008d76 <_realloc_r+0x1de>
80008d6a:	09 08       	ld.w	r8,r4++
80008d6c:	99 08       	st.w	r12[0x0],r8
80008d6e:	ee cc ff e0 	sub	r12,r7,-32
80008d72:	09 08       	ld.w	r8,r4++
80008d74:	8f 78       	st.w	r7[0x1c],r8
80008d76:	09 08       	ld.w	r8,r4++
80008d78:	18 a8       	st.w	r12++,r8
80008d7a:	68 08       	ld.w	r8,r4[0x0]
80008d7c:	99 08       	st.w	r12[0x0],r8
80008d7e:	68 18       	ld.w	r8,r4[0x4]
80008d80:	99 18       	st.w	r12[0x4],r8
80008d82:	c4 78       	rjmp	80008e10 <_realloc_r+0x278>
80008d84:	08 9b       	mov	r11,r4
80008d86:	f0 1f 00 39 	mcall	80008e68 <_realloc_r+0x2d0>
80008d8a:	c4 38       	rjmp	80008e10 <_realloc_r+0x278>
80008d8c:	04 9c       	mov	r12,r2
80008d8e:	f0 1f 00 38 	mcall	80008e6c <_realloc_r+0x2d4>
80008d92:	18 95       	mov	r5,r12
80008d94:	c3 a0       	breq	80008e08 <_realloc_r+0x270>
80008d96:	62 18       	ld.w	r8,r1[0x4]
80008d98:	f8 c9 00 08 	sub	r9,r12,8
80008d9c:	a1 c8       	cbr	r8,0x0
80008d9e:	e2 08 00 08 	add	r8,r1,r8
80008da2:	10 39       	cp.w	r9,r8
80008da4:	c0 71       	brne	80008db2 <_realloc_r+0x21a>
80008da6:	72 13       	ld.w	r3,r9[0x4]
80008da8:	02 97       	mov	r7,r1
80008daa:	e0 13 ff fc 	andl	r3,0xfffc
80008dae:	00 03       	add	r3,r0
80008db0:	c3 08       	rjmp	80008e10 <_realloc_r+0x278>
80008db2:	e0 ca 00 04 	sub	r10,r0,4
80008db6:	e0 4a 00 24 	cp.w	r10,36
80008dba:	e0 8b 00 20 	brhi	80008dfa <_realloc_r+0x262>
80008dbe:	08 99       	mov	r9,r4
80008dc0:	18 98       	mov	r8,r12
80008dc2:	59 3a       	cp.w	r10,19
80008dc4:	e0 88 00 14 	brls	80008dec <_realloc_r+0x254>
80008dc8:	13 0b       	ld.w	r11,r9++
80008dca:	10 ab       	st.w	r8++,r11
80008dcc:	13 0b       	ld.w	r11,r9++
80008dce:	10 ab       	st.w	r8++,r11
80008dd0:	59 ba       	cp.w	r10,27
80008dd2:	e0 88 00 0d 	brls	80008dec <_realloc_r+0x254>
80008dd6:	13 0b       	ld.w	r11,r9++
80008dd8:	10 ab       	st.w	r8++,r11
80008dda:	13 0b       	ld.w	r11,r9++
80008ddc:	10 ab       	st.w	r8++,r11
80008dde:	e0 4a 00 24 	cp.w	r10,36
80008de2:	c0 51       	brne	80008dec <_realloc_r+0x254>
80008de4:	13 0a       	ld.w	r10,r9++
80008de6:	10 aa       	st.w	r8++,r10
80008de8:	13 0a       	ld.w	r10,r9++
80008dea:	10 aa       	st.w	r8++,r10
80008dec:	13 0a       	ld.w	r10,r9++
80008dee:	10 aa       	st.w	r8++,r10
80008df0:	72 0a       	ld.w	r10,r9[0x0]
80008df2:	91 0a       	st.w	r8[0x0],r10
80008df4:	72 19       	ld.w	r9,r9[0x4]
80008df6:	91 19       	st.w	r8[0x4],r9
80008df8:	c0 48       	rjmp	80008e00 <_realloc_r+0x268>
80008dfa:	08 9b       	mov	r11,r4
80008dfc:	f0 1f 00 1b 	mcall	80008e68 <_realloc_r+0x2d0>
80008e00:	08 9b       	mov	r11,r4
80008e02:	04 9c       	mov	r12,r2
80008e04:	f0 1f 00 1b 	mcall	80008e70 <_realloc_r+0x2d8>
80008e08:	04 9c       	mov	r12,r2
80008e0a:	c2 a8       	rjmp	80008e5e <_realloc_r+0x2c6>
80008e0c:	00 93       	mov	r3,r0
80008e0e:	02 97       	mov	r7,r1
80008e10:	e6 06 01 09 	sub	r9,r3,r6
80008e14:	6e 18       	ld.w	r8,r7[0x4]
80008e16:	58 f9       	cp.w	r9,15
80008e18:	e0 88 00 16 	brls	80008e44 <_realloc_r+0x2ac>
80008e1c:	f1 d8 c0 01 	bfextu	r8,r8,0x0,0x1
80008e20:	ed e8 10 08 	or	r8,r6,r8
80008e24:	8f 18       	st.w	r7[0x4],r8
80008e26:	12 98       	mov	r8,r9
80008e28:	a1 a8       	sbr	r8,0x0
80008e2a:	ee 06 00 0b 	add	r11,r7,r6
80008e2e:	f6 09 00 09 	add	r9,r11,r9
80008e32:	97 18       	st.w	r11[0x4],r8
80008e34:	72 18       	ld.w	r8,r9[0x4]
80008e36:	a1 a8       	sbr	r8,0x0
80008e38:	2f 8b       	sub	r11,-8
80008e3a:	93 18       	st.w	r9[0x4],r8
80008e3c:	04 9c       	mov	r12,r2
80008e3e:	f0 1f 00 0d 	mcall	80008e70 <_realloc_r+0x2d8>
80008e42:	c0 b8       	rjmp	80008e58 <_realloc_r+0x2c0>
80008e44:	f1 d8 c0 01 	bfextu	r8,r8,0x0,0x1
80008e48:	e7 e8 10 08 	or	r8,r3,r8
80008e4c:	8f 18       	st.w	r7[0x4],r8
80008e4e:	ee 03 00 03 	add	r3,r7,r3
80008e52:	66 18       	ld.w	r8,r3[0x4]
80008e54:	a1 a8       	sbr	r8,0x0
80008e56:	87 18       	st.w	r3[0x4],r8
80008e58:	04 9c       	mov	r12,r2
80008e5a:	ee c5 ff f8 	sub	r5,r7,-8
80008e5e:	f0 1f 00 06 	mcall	80008e74 <_realloc_r+0x2dc>
80008e62:	0a 9c       	mov	r12,r5
80008e64:	2f fd       	sub	sp,-4
80008e66:	d8 32       	popm	r0-r7,pc
80008e68:	80 00       	ld.sh	r0,r0[0x0]
80008e6a:	85 02       	st.w	r2[0x0],r2
80008e6c:	80 00       	ld.sh	r0,r0[0x0]
80008e6e:	7f 54       	ld.w	r4,pc[0x54]
80008e70:	80 00       	ld.sh	r0,r0[0x0]
80008e72:	79 b0       	ld.w	r0,r12[0x6c]
80008e74:	80 00       	ld.sh	r0,r0[0x0]
80008e76:	85 50       	st.w	r2[0x14],r0

80008e78 <__isinfd>:
80008e78:	14 98       	mov	r8,r10
80008e7a:	fc 19 7f f0 	movh	r9,0x7ff0
80008e7e:	f5 db c0 1f 	bfextu	r10,r11,0x0,0x1f
80008e82:	f0 0b 11 00 	rsub	r11,r8,0
80008e86:	f7 e8 10 08 	or	r8,r11,r8
80008e8a:	f5 e8 13 f8 	or	r8,r10,r8>>0x1f
80008e8e:	f2 08 01 08 	sub	r8,r9,r8
80008e92:	f0 0c 11 00 	rsub	r12,r8,0
80008e96:	f9 e8 10 08 	or	r8,r12,r8
80008e9a:	f0 0c 14 1f 	asr	r12,r8,0x1f
80008e9e:	2f fc       	sub	r12,-1
80008ea0:	5e fc       	retal	r12

80008ea2 <__isnand>:
80008ea2:	14 98       	mov	r8,r10
80008ea4:	f5 db c0 1f 	bfextu	r10,r11,0x0,0x1f
80008ea8:	f0 0c 11 00 	rsub	r12,r8,0
80008eac:	10 4c       	or	r12,r8
80008eae:	fc 18 7f f0 	movh	r8,0x7ff0
80008eb2:	f5 ec 13 fc 	or	r12,r10,r12>>0x1f
80008eb6:	f0 0c 01 0c 	sub	r12,r8,r12
80008eba:	bf 9c       	lsr	r12,0x1f
80008ebc:	5e fc       	retal	r12
80008ebe:	d7 03       	nop

80008ec0 <_sbrk_r>:
80008ec0:	d4 21       	pushm	r4-r7,lr
80008ec2:	30 08       	mov	r8,0
80008ec4:	18 97       	mov	r7,r12
80008ec6:	48 76       	lddpc	r6,80008ee0 <_sbrk_r+0x20>
80008ec8:	16 9c       	mov	r12,r11
80008eca:	8d 08       	st.w	r6[0x0],r8
80008ecc:	f0 1f 00 06 	mcall	80008ee4 <_sbrk_r+0x24>
80008ed0:	5b fc       	cp.w	r12,-1
80008ed2:	c0 51       	brne	80008edc <_sbrk_r+0x1c>
80008ed4:	6c 08       	ld.w	r8,r6[0x0]
80008ed6:	58 08       	cp.w	r8,0
80008ed8:	ef f8 1a 03 	st.wne	r7[0xc],r8
80008edc:	d8 22       	popm	r4-r7,pc
80008ede:	00 00       	add	r0,r0
80008ee0:	00 00       	add	r0,r0
80008ee2:	4c 3c       	lddpc	r12,80008fec <_write+0x10>
80008ee4:	80 00       	ld.sh	r0,r0[0x0]
80008ee6:	90 74       	ld.sh	r4,r8[0xe]

80008ee8 <__sclose>:
80008ee8:	d4 01       	pushm	lr
80008eea:	96 7b       	ld.sh	r11,r11[0xe]
80008eec:	f0 1f 00 02 	mcall	80008ef4 <__sclose+0xc>
80008ef0:	d8 02       	popm	pc
80008ef2:	00 00       	add	r0,r0
80008ef4:	80 00       	ld.sh	r0,r0[0x0]
80008ef6:	91 40       	st.w	r8[0x10],r0

80008ef8 <__sseek>:
80008ef8:	d4 21       	pushm	r4-r7,lr
80008efa:	16 97       	mov	r7,r11
80008efc:	96 7b       	ld.sh	r11,r11[0xe]
80008efe:	f0 1f 00 08 	mcall	80008f1c <__sseek+0x24>
80008f02:	8e 68       	ld.sh	r8,r7[0xc]
80008f04:	10 99       	mov	r9,r8
80008f06:	ad c8       	cbr	r8,0xc
80008f08:	ad a9       	sbr	r9,0xc
80008f0a:	5b fc       	cp.w	r12,-1
80008f0c:	ef f8 0c 06 	st.heq	r7[0xc],r8
80008f10:	ef f9 1c 06 	st.hne	r7[0xc],r9
80008f14:	ef fc 1a 15 	st.wne	r7[0x54],r12
80008f18:	d8 22       	popm	r4-r7,pc
80008f1a:	00 00       	add	r0,r0
80008f1c:	80 00       	ld.sh	r0,r0[0x0]
80008f1e:	92 88       	ld.uh	r8,r9[0x0]

80008f20 <__swrite>:
80008f20:	d4 21       	pushm	r4-r7,lr
80008f22:	96 68       	ld.sh	r8,r11[0xc]
80008f24:	16 97       	mov	r7,r11
80008f26:	14 95       	mov	r5,r10
80008f28:	12 94       	mov	r4,r9
80008f2a:	e2 18 01 00 	andl	r8,0x100,COH
80008f2e:	18 96       	mov	r6,r12
80008f30:	c0 60       	breq	80008f3c <__swrite+0x1c>
80008f32:	30 29       	mov	r9,2
80008f34:	30 0a       	mov	r10,0
80008f36:	96 7b       	ld.sh	r11,r11[0xe]
80008f38:	f0 1f 00 06 	mcall	80008f50 <__swrite+0x30>
80008f3c:	8e 68       	ld.sh	r8,r7[0xc]
80008f3e:	ad c8       	cbr	r8,0xc
80008f40:	08 99       	mov	r9,r4
80008f42:	0a 9a       	mov	r10,r5
80008f44:	8e 7b       	ld.sh	r11,r7[0xe]
80008f46:	0c 9c       	mov	r12,r6
80008f48:	ae 68       	st.h	r7[0xc],r8
80008f4a:	f0 1f 00 03 	mcall	80008f54 <__swrite+0x34>
80008f4e:	d8 22       	popm	r4-r7,pc
80008f50:	80 00       	ld.sh	r0,r0[0x0]
80008f52:	92 88       	ld.uh	r8,r9[0x0]
80008f54:	80 00       	ld.sh	r0,r0[0x0]
80008f56:	90 b4       	ld.uh	r4,r8[0x6]

80008f58 <__sread>:
80008f58:	d4 21       	pushm	r4-r7,lr
80008f5a:	16 97       	mov	r7,r11
80008f5c:	96 7b       	ld.sh	r11,r11[0xe]
80008f5e:	f0 1f 00 07 	mcall	80008f78 <__sread+0x20>
80008f62:	c0 65       	brlt	80008f6e <__sread+0x16>
80008f64:	6f 58       	ld.w	r8,r7[0x54]
80008f66:	18 08       	add	r8,r12
80008f68:	ef 48 00 54 	st.w	r7[84],r8
80008f6c:	d8 22       	popm	r4-r7,pc
80008f6e:	8e 68       	ld.sh	r8,r7[0xc]
80008f70:	ad c8       	cbr	r8,0xc
80008f72:	ae 68       	st.h	r7[0xc],r8
80008f74:	d8 22       	popm	r4-r7,pc
80008f76:	00 00       	add	r0,r0
80008f78:	80 00       	ld.sh	r0,r0[0x0]
80008f7a:	92 b4       	ld.uh	r4,r9[0x6]

80008f7c <strlen>:
80008f7c:	30 09       	mov	r9,0
80008f7e:	18 98       	mov	r8,r12
80008f80:	c0 28       	rjmp	80008f84 <strlen+0x8>
80008f82:	2f f8       	sub	r8,-1
80008f84:	11 8a       	ld.ub	r10,r8[0x0]
80008f86:	f2 0a 18 00 	cp.b	r10,r9
80008f8a:	cf c1       	brne	80008f82 <strlen+0x6>
80008f8c:	f0 0c 01 0c 	sub	r12,r8,r12
80008f90:	5e fc       	retal	r12
80008f92:	d7 03       	nop

80008f94 <_close>:
80008f94:	30 28       	mov	r8,2
80008f96:	d6 73       	breakpoint
80008f98:	3f fc       	mov	r12,-1
80008f9a:	35 8b       	mov	r11,88
80008f9c:	58 0c       	cp.w	r12,0
80008f9e:	5e 4c       	retge	r12
80008fa0:	48 2a       	lddpc	r10,80008fa8 <_close+0x14>
80008fa2:	95 0b       	st.w	r10[0x0],r11
80008fa4:	5e fc       	retal	r12
80008fa6:	00 00       	add	r0,r0
80008fa8:	00 00       	add	r0,r0
80008faa:	4c 3c       	lddpc	r12,800090b4 <_write_r>

80008fac <_lseek>:
80008fac:	30 58       	mov	r8,5
80008fae:	d6 73       	breakpoint
80008fb0:	3f fc       	mov	r12,-1
80008fb2:	35 8b       	mov	r11,88
80008fb4:	58 0c       	cp.w	r12,0
80008fb6:	5e 4c       	retge	r12
80008fb8:	48 2a       	lddpc	r10,80008fc0 <_lseek+0x14>
80008fba:	95 0b       	st.w	r10[0x0],r11
80008fbc:	5e fc       	retal	r12
80008fbe:	00 00       	add	r0,r0
80008fc0:	00 00       	add	r0,r0
80008fc2:	4c 3c       	lddpc	r12,800090cc <_write_r+0x18>

80008fc4 <_read>:
80008fc4:	30 38       	mov	r8,3
80008fc6:	d6 73       	breakpoint
80008fc8:	3f fc       	mov	r12,-1
80008fca:	35 8b       	mov	r11,88
80008fcc:	58 0c       	cp.w	r12,0
80008fce:	5e 4c       	retge	r12
80008fd0:	48 2a       	lddpc	r10,80008fd8 <_read+0x14>
80008fd2:	95 0b       	st.w	r10[0x0],r11
80008fd4:	5e fc       	retal	r12
80008fd6:	00 00       	add	r0,r0
80008fd8:	00 00       	add	r0,r0
80008fda:	4c 3c       	lddpc	r12,800090e4 <_calloc_r+0x4>

80008fdc <_write>:
80008fdc:	30 48       	mov	r8,4
80008fde:	d6 73       	breakpoint
80008fe0:	3f fc       	mov	r12,-1
80008fe2:	35 8b       	mov	r11,88
80008fe4:	58 0c       	cp.w	r12,0
80008fe6:	5e 4c       	retge	r12
80008fe8:	48 2a       	lddpc	r10,80008ff0 <_write+0x14>
80008fea:	95 0b       	st.w	r10[0x0],r11
80008fec:	5e fc       	retal	r12
80008fee:	00 00       	add	r0,r0
80008ff0:	00 00       	add	r0,r0
80008ff2:	4c 3c       	lddpc	r12,800090fc <_calloc_r+0x1c>

80008ff4 <isatty>:
80008ff4:	30 b8       	mov	r8,11
80008ff6:	d6 73       	breakpoint
80008ff8:	3f fc       	mov	r12,-1
80008ffa:	35 8b       	mov	r11,88
80008ffc:	58 0c       	cp.w	r12,0
80008ffe:	5e 4c       	retge	r12
80009000:	48 2a       	lddpc	r10,80009008 <isatty+0x14>
80009002:	95 0b       	st.w	r10[0x0],r11
80009004:	5e fc       	retal	r12
80009006:	00 00       	add	r0,r0
80009008:	00 00       	add	r0,r0
8000900a:	4c 3c       	lddpc	r12,80009114 <_calloc_r+0x34>

8000900c <_fstat_host>:
8000900c:	30 98       	mov	r8,9
8000900e:	d6 73       	breakpoint
80009010:	3f fc       	mov	r12,-1
80009012:	35 8b       	mov	r11,88
80009014:	58 0c       	cp.w	r12,0
80009016:	5e 4c       	retge	r12
80009018:	48 2a       	lddpc	r10,80009020 <_fstat_host+0x14>
8000901a:	95 0b       	st.w	r10[0x0],r11
8000901c:	5e fc       	retal	r12
8000901e:	00 00       	add	r0,r0
80009020:	00 00       	add	r0,r0
80009022:	4c 3c       	lddpc	r12,8000912c <_calloc_r+0x4c>

80009024 <_fstat>:
80009024:	d4 21       	pushm	r4-r7,lr
80009026:	21 0d       	sub	sp,64
80009028:	16 97       	mov	r7,r11
8000902a:	1a 9b       	mov	r11,sp
8000902c:	f0 1f 00 11 	mcall	80009070 <_fstat+0x4c>
80009030:	c0 34       	brge	80009036 <_fstat+0x12>
80009032:	3f fc       	mov	r12,-1
80009034:	c1 c8       	rjmp	8000906c <_fstat+0x48>
80009036:	40 08       	lddsp	r8,sp[0x0]
80009038:	ae 08       	st.h	r7[0x0],r8
8000903a:	40 18       	lddsp	r8,sp[0x4]
8000903c:	ae 18       	st.h	r7[0x2],r8
8000903e:	40 28       	lddsp	r8,sp[0x8]
80009040:	8f 18       	st.w	r7[0x4],r8
80009042:	40 38       	lddsp	r8,sp[0xc]
80009044:	ae 48       	st.h	r7[0x8],r8
80009046:	40 48       	lddsp	r8,sp[0x10]
80009048:	ae 58       	st.h	r7[0xa],r8
8000904a:	40 58       	lddsp	r8,sp[0x14]
8000904c:	ae 68       	st.h	r7[0xc],r8
8000904e:	40 68       	lddsp	r8,sp[0x18]
80009050:	ae 78       	st.h	r7[0xe],r8
80009052:	40 88       	lddsp	r8,sp[0x20]
80009054:	8f 48       	st.w	r7[0x10],r8
80009056:	40 a8       	lddsp	r8,sp[0x28]
80009058:	8f b8       	st.w	r7[0x2c],r8
8000905a:	40 c8       	lddsp	r8,sp[0x30]
8000905c:	8f c8       	st.w	r7[0x30],r8
8000905e:	40 d8       	lddsp	r8,sp[0x34]
80009060:	8f 58       	st.w	r7[0x14],r8
80009062:	40 e8       	lddsp	r8,sp[0x38]
80009064:	30 0c       	mov	r12,0
80009066:	8f 78       	st.w	r7[0x1c],r8
80009068:	40 f8       	lddsp	r8,sp[0x3c]
8000906a:	8f 98       	st.w	r7[0x24],r8
8000906c:	2f 0d       	sub	sp,-64
8000906e:	d8 22       	popm	r4-r7,pc
80009070:	80 00       	ld.sh	r0,r0[0x0]
80009072:	90 0c       	ld.sh	r12,r8[0x0]

80009074 <_sbrk>:
80009074:	d4 01       	pushm	lr
80009076:	48 c8       	lddpc	r8,800090a4 <_sbrk+0x30>
80009078:	70 09       	ld.w	r9,r8[0x0]
8000907a:	58 09       	cp.w	r9,0
8000907c:	c0 31       	brne	80009082 <_sbrk+0xe>
8000907e:	48 b9       	lddpc	r9,800090a8 <_sbrk+0x34>
80009080:	91 09       	st.w	r8[0x0],r9
80009082:	48 99       	lddpc	r9,800090a4 <_sbrk+0x30>
80009084:	48 aa       	lddpc	r10,800090ac <_sbrk+0x38>
80009086:	72 08       	ld.w	r8,r9[0x0]
80009088:	f0 0c 00 0c 	add	r12,r8,r12
8000908c:	14 3c       	cp.w	r12,r10
8000908e:	e0 8b 00 04 	brhi	80009096 <_sbrk+0x22>
80009092:	93 0c       	st.w	r9[0x0],r12
80009094:	c0 68       	rjmp	800090a0 <_sbrk+0x2c>
80009096:	f0 1f 00 07 	mcall	800090b0 <_sbrk+0x3c>
8000909a:	30 c8       	mov	r8,12
8000909c:	99 08       	st.w	r12[0x0],r8
8000909e:	3f f8       	mov	r8,-1
800090a0:	10 9c       	mov	r12,r8
800090a2:	d8 02       	popm	pc
800090a4:	00 00       	add	r0,r0
800090a6:	06 7c       	tst	r12,r3
800090a8:	00 00       	add	r0,r0
800090aa:	50 40       	stdsp	sp[0x10],r0
800090ac:	00 00       	add	r0,r0
800090ae:	64 40       	ld.w	r0,r2[0x10]
800090b0:	80 00       	ld.sh	r0,r0[0x0]
800090b2:	91 68       	st.w	r8[0x18],r8

800090b4 <_write_r>:
800090b4:	d4 21       	pushm	r4-r7,lr
800090b6:	16 98       	mov	r8,r11
800090b8:	18 97       	mov	r7,r12
800090ba:	10 9c       	mov	r12,r8
800090bc:	30 08       	mov	r8,0
800090be:	14 9b       	mov	r11,r10
800090c0:	48 66       	lddpc	r6,800090d8 <_write_r+0x24>
800090c2:	12 9a       	mov	r10,r9
800090c4:	8d 08       	st.w	r6[0x0],r8
800090c6:	f0 1f 00 06 	mcall	800090dc <_write_r+0x28>
800090ca:	5b fc       	cp.w	r12,-1
800090cc:	c0 51       	brne	800090d6 <_write_r+0x22>
800090ce:	6c 08       	ld.w	r8,r6[0x0]
800090d0:	58 08       	cp.w	r8,0
800090d2:	ef f8 1a 03 	st.wne	r7[0xc],r8
800090d6:	d8 22       	popm	r4-r7,pc
800090d8:	00 00       	add	r0,r0
800090da:	4c 3c       	lddpc	r12,800091e4 <_fclose_r+0x70>
800090dc:	80 00       	ld.sh	r0,r0[0x0]
800090de:	8f dc       	st.w	r7[0x34],r12

800090e0 <_calloc_r>:
800090e0:	d4 21       	pushm	r4-r7,lr
800090e2:	f4 0b 02 4b 	mul	r11,r10,r11
800090e6:	f0 1f 00 15 	mcall	80009138 <_calloc_r+0x58>
800090ea:	18 97       	mov	r7,r12
800090ec:	c2 30       	breq	80009132 <_calloc_r+0x52>
800090ee:	f8 fa ff fc 	ld.w	r10,r12[-4]
800090f2:	e0 1a ff fc 	andl	r10,0xfffc
800090f6:	20 4a       	sub	r10,4
800090f8:	e0 4a 00 24 	cp.w	r10,36
800090fc:	e0 8b 00 18 	brhi	8000912c <_calloc_r+0x4c>
80009100:	18 98       	mov	r8,r12
80009102:	59 3a       	cp.w	r10,19
80009104:	e0 88 00 0f 	brls	80009122 <_calloc_r+0x42>
80009108:	30 09       	mov	r9,0
8000910a:	10 a9       	st.w	r8++,r9
8000910c:	10 a9       	st.w	r8++,r9
8000910e:	59 ba       	cp.w	r10,27
80009110:	e0 88 00 09 	brls	80009122 <_calloc_r+0x42>
80009114:	10 a9       	st.w	r8++,r9
80009116:	10 a9       	st.w	r8++,r9
80009118:	e0 4a 00 24 	cp.w	r10,36
8000911c:	c0 31       	brne	80009122 <_calloc_r+0x42>
8000911e:	10 a9       	st.w	r8++,r9
80009120:	10 a9       	st.w	r8++,r9
80009122:	30 09       	mov	r9,0
80009124:	10 a9       	st.w	r8++,r9
80009126:	91 19       	st.w	r8[0x4],r9
80009128:	91 09       	st.w	r8[0x0],r9
8000912a:	c0 48       	rjmp	80009132 <_calloc_r+0x52>
8000912c:	30 0b       	mov	r11,0
8000912e:	f0 1f 00 04 	mcall	8000913c <_calloc_r+0x5c>
80009132:	0e 9c       	mov	r12,r7
80009134:	d8 22       	popm	r4-r7,pc
80009136:	00 00       	add	r0,r0
80009138:	80 00       	ld.sh	r0,r0[0x0]
8000913a:	7f 54       	ld.w	r4,pc[0x54]
8000913c:	80 00       	ld.sh	r0,r0[0x0]
8000913e:	85 40       	st.w	r2[0x10],r0

80009140 <_close_r>:
80009140:	d4 21       	pushm	r4-r7,lr
80009142:	30 08       	mov	r8,0
80009144:	18 97       	mov	r7,r12
80009146:	48 76       	lddpc	r6,80009160 <_close_r+0x20>
80009148:	16 9c       	mov	r12,r11
8000914a:	8d 08       	st.w	r6[0x0],r8
8000914c:	f0 1f 00 06 	mcall	80009164 <_close_r+0x24>
80009150:	5b fc       	cp.w	r12,-1
80009152:	c0 51       	brne	8000915c <_close_r+0x1c>
80009154:	6c 08       	ld.w	r8,r6[0x0]
80009156:	58 08       	cp.w	r8,0
80009158:	ef f8 1a 03 	st.wne	r7[0xc],r8
8000915c:	d8 22       	popm	r4-r7,pc
8000915e:	00 00       	add	r0,r0
80009160:	00 00       	add	r0,r0
80009162:	4c 3c       	lddpc	r12,8000926c <_fstat_r+0x10>
80009164:	80 00       	ld.sh	r0,r0[0x0]
80009166:	8f 94       	st.w	r7[0x24],r4

80009168 <__errno>:
80009168:	48 28       	lddpc	r8,80009170 <__errno+0x8>
8000916a:	70 0c       	ld.w	r12,r8[0x0]
8000916c:	2f 4c       	sub	r12,-12
8000916e:	5e fc       	retal	r12
80009170:	00 00       	add	r0,r0
80009172:	00 f4       	st.b	--r0,r4

80009174 <_fclose_r>:
80009174:	d4 21       	pushm	r4-r7,lr
80009176:	18 96       	mov	r6,r12
80009178:	16 97       	mov	r7,r11
8000917a:	58 0b       	cp.w	r11,0
8000917c:	c0 31       	brne	80009182 <_fclose_r+0xe>
8000917e:	16 95       	mov	r5,r11
80009180:	c5 08       	rjmp	80009220 <_fclose_r+0xac>
80009182:	f0 1f 00 29 	mcall	80009224 <_fclose_r+0xb0>
80009186:	58 06       	cp.w	r6,0
80009188:	c0 70       	breq	80009196 <_fclose_r+0x22>
8000918a:	6c 68       	ld.w	r8,r6[0x18]
8000918c:	58 08       	cp.w	r8,0
8000918e:	c0 41       	brne	80009196 <_fclose_r+0x22>
80009190:	0c 9c       	mov	r12,r6
80009192:	f0 1f 00 26 	mcall	80009228 <_fclose_r+0xb4>
80009196:	4a 68       	lddpc	r8,8000922c <_fclose_r+0xb8>
80009198:	10 37       	cp.w	r7,r8
8000919a:	c0 31       	brne	800091a0 <_fclose_r+0x2c>
8000919c:	6c 07       	ld.w	r7,r6[0x0]
8000919e:	c0 a8       	rjmp	800091b2 <_fclose_r+0x3e>
800091a0:	4a 48       	lddpc	r8,80009230 <_fclose_r+0xbc>
800091a2:	10 37       	cp.w	r7,r8
800091a4:	c0 31       	brne	800091aa <_fclose_r+0x36>
800091a6:	6c 17       	ld.w	r7,r6[0x4]
800091a8:	c0 58       	rjmp	800091b2 <_fclose_r+0x3e>
800091aa:	4a 38       	lddpc	r8,80009234 <_fclose_r+0xc0>
800091ac:	10 37       	cp.w	r7,r8
800091ae:	ed f7 00 02 	ld.weq	r7,r6[0x8]
800091b2:	8e 69       	ld.sh	r9,r7[0xc]
800091b4:	30 08       	mov	r8,0
800091b6:	f0 09 19 00 	cp.h	r9,r8
800091ba:	c0 51       	brne	800091c4 <_fclose_r+0x50>
800091bc:	f0 1f 00 1f 	mcall	80009238 <_fclose_r+0xc4>
800091c0:	30 05       	mov	r5,0
800091c2:	c2 f8       	rjmp	80009220 <_fclose_r+0xac>
800091c4:	0e 9b       	mov	r11,r7
800091c6:	0c 9c       	mov	r12,r6
800091c8:	f0 1f 00 1d 	mcall	8000923c <_fclose_r+0xc8>
800091cc:	6e c8       	ld.w	r8,r7[0x30]
800091ce:	18 95       	mov	r5,r12
800091d0:	58 08       	cp.w	r8,0
800091d2:	c0 60       	breq	800091de <_fclose_r+0x6a>
800091d4:	6e 8b       	ld.w	r11,r7[0x20]
800091d6:	0c 9c       	mov	r12,r6
800091d8:	5d 18       	icall	r8
800091da:	f9 b5 05 ff 	movlt	r5,-1
800091de:	8e 68       	ld.sh	r8,r7[0xc]
800091e0:	ed b8 00 07 	bld	r8,0x7
800091e4:	c0 51       	brne	800091ee <_fclose_r+0x7a>
800091e6:	6e 4b       	ld.w	r11,r7[0x10]
800091e8:	0c 9c       	mov	r12,r6
800091ea:	f0 1f 00 16 	mcall	80009240 <_fclose_r+0xcc>
800091ee:	6e db       	ld.w	r11,r7[0x34]
800091f0:	58 0b       	cp.w	r11,0
800091f2:	c0 a0       	breq	80009206 <_fclose_r+0x92>
800091f4:	ee c8 ff bc 	sub	r8,r7,-68
800091f8:	10 3b       	cp.w	r11,r8
800091fa:	c0 40       	breq	80009202 <_fclose_r+0x8e>
800091fc:	0c 9c       	mov	r12,r6
800091fe:	f0 1f 00 11 	mcall	80009240 <_fclose_r+0xcc>
80009202:	30 08       	mov	r8,0
80009204:	8f d8       	st.w	r7[0x34],r8
80009206:	6f 2b       	ld.w	r11,r7[0x48]
80009208:	58 0b       	cp.w	r11,0
8000920a:	c0 70       	breq	80009218 <_fclose_r+0xa4>
8000920c:	0c 9c       	mov	r12,r6
8000920e:	f0 1f 00 0d 	mcall	80009240 <_fclose_r+0xcc>
80009212:	30 08       	mov	r8,0
80009214:	ef 48 00 48 	st.w	r7[72],r8
80009218:	30 08       	mov	r8,0
8000921a:	ae 68       	st.h	r7[0xc],r8
8000921c:	f0 1f 00 07 	mcall	80009238 <_fclose_r+0xc4>
80009220:	0a 9c       	mov	r12,r5
80009222:	d8 22       	popm	r4-r7,pc
80009224:	80 00       	ld.sh	r0,r0[0x0]
80009226:	77 94       	ld.w	r4,r11[0x64]
80009228:	80 00       	ld.sh	r0,r0[0x0]
8000922a:	78 58       	ld.w	r8,r12[0x14]
8000922c:	80 00       	ld.sh	r0,r0[0x0]
8000922e:	a5 c4       	cbr	r4,0x4
80009230:	80 00       	ld.sh	r0,r0[0x0]
80009232:	a5 e4       	*unknown*
80009234:	80 00       	ld.sh	r0,r0[0x0]
80009236:	a6 04       	st.h	r3[0x0],r4
80009238:	80 00       	ld.sh	r0,r0[0x0]
8000923a:	77 96       	ld.w	r6,r11[0x64]
8000923c:	80 00       	ld.sh	r0,r0[0x0]
8000923e:	76 7c       	ld.w	r12,r11[0x1c]
80009240:	80 00       	ld.sh	r0,r0[0x0]
80009242:	79 b0       	ld.w	r0,r12[0x6c]

80009244 <fclose>:
80009244:	d4 01       	pushm	lr
80009246:	48 48       	lddpc	r8,80009254 <fclose+0x10>
80009248:	18 9b       	mov	r11,r12
8000924a:	70 0c       	ld.w	r12,r8[0x0]
8000924c:	f0 1f 00 03 	mcall	80009258 <fclose+0x14>
80009250:	d8 02       	popm	pc
80009252:	00 00       	add	r0,r0
80009254:	00 00       	add	r0,r0
80009256:	00 f4       	st.b	--r0,r4
80009258:	80 00       	ld.sh	r0,r0[0x0]
8000925a:	91 74       	st.w	r8[0x1c],r4

8000925c <_fstat_r>:
8000925c:	d4 21       	pushm	r4-r7,lr
8000925e:	16 98       	mov	r8,r11
80009260:	18 97       	mov	r7,r12
80009262:	10 9c       	mov	r12,r8
80009264:	30 08       	mov	r8,0
80009266:	48 76       	lddpc	r6,80009280 <_fstat_r+0x24>
80009268:	14 9b       	mov	r11,r10
8000926a:	8d 08       	st.w	r6[0x0],r8
8000926c:	f0 1f 00 06 	mcall	80009284 <_fstat_r+0x28>
80009270:	5b fc       	cp.w	r12,-1
80009272:	c0 51       	brne	8000927c <_fstat_r+0x20>
80009274:	6c 08       	ld.w	r8,r6[0x0]
80009276:	58 08       	cp.w	r8,0
80009278:	ef f8 1a 03 	st.wne	r7[0xc],r8
8000927c:	d8 22       	popm	r4-r7,pc
8000927e:	00 00       	add	r0,r0
80009280:	00 00       	add	r0,r0
80009282:	4c 3c       	lddpc	r12,8000938c <__avr32_f64_mul_op1_subnormal+0x12>
80009284:	80 00       	ld.sh	r0,r0[0x0]
80009286:	90 24       	ld.sh	r4,r8[0x4]

80009288 <_lseek_r>:
80009288:	d4 21       	pushm	r4-r7,lr
8000928a:	16 98       	mov	r8,r11
8000928c:	18 97       	mov	r7,r12
8000928e:	10 9c       	mov	r12,r8
80009290:	30 08       	mov	r8,0
80009292:	14 9b       	mov	r11,r10
80009294:	48 66       	lddpc	r6,800092ac <_lseek_r+0x24>
80009296:	12 9a       	mov	r10,r9
80009298:	8d 08       	st.w	r6[0x0],r8
8000929a:	f0 1f 00 06 	mcall	800092b0 <_lseek_r+0x28>
8000929e:	5b fc       	cp.w	r12,-1
800092a0:	c0 51       	brne	800092aa <_lseek_r+0x22>
800092a2:	6c 08       	ld.w	r8,r6[0x0]
800092a4:	58 08       	cp.w	r8,0
800092a6:	ef f8 1a 03 	st.wne	r7[0xc],r8
800092aa:	d8 22       	popm	r4-r7,pc
800092ac:	00 00       	add	r0,r0
800092ae:	4c 3c       	lddpc	r12,800093b8 <__avr32_f64_mul_op1_subnormal+0x3e>
800092b0:	80 00       	ld.sh	r0,r0[0x0]
800092b2:	8f ac       	st.w	r7[0x28],r12

800092b4 <_read_r>:
800092b4:	d4 21       	pushm	r4-r7,lr
800092b6:	16 98       	mov	r8,r11
800092b8:	18 97       	mov	r7,r12
800092ba:	10 9c       	mov	r12,r8
800092bc:	30 08       	mov	r8,0
800092be:	14 9b       	mov	r11,r10
800092c0:	48 66       	lddpc	r6,800092d8 <_read_r+0x24>
800092c2:	12 9a       	mov	r10,r9
800092c4:	8d 08       	st.w	r6[0x0],r8
800092c6:	f0 1f 00 06 	mcall	800092dc <_read_r+0x28>
800092ca:	5b fc       	cp.w	r12,-1
800092cc:	c0 51       	brne	800092d6 <_read_r+0x22>
800092ce:	6c 08       	ld.w	r8,r6[0x0]
800092d0:	58 08       	cp.w	r8,0
800092d2:	ef f8 1a 03 	st.wne	r7[0xc],r8
800092d6:	d8 22       	popm	r4-r7,pc
800092d8:	00 00       	add	r0,r0
800092da:	4c 3c       	lddpc	r12,800093e4 <__avr32_f64_mul_op2_subnormal+0x26>
800092dc:	80 00       	ld.sh	r0,r0[0x0]
800092de:	8f c4       	st.w	r7[0x30],r4

800092e0 <__avr32_f64_mul>:
800092e0:	f5 eb 10 1c 	or	r12,r10,r11<<0x1
800092e4:	e0 80 00 dc 	breq	8000949c <__avr32_f64_mul_op1_zero>
800092e8:	d4 21       	pushm	r4-r7,lr
800092ea:	f7 e9 20 0e 	eor	lr,r11,r9
800092ee:	ef db c2 8b 	bfextu	r7,r11,0x14,0xb
800092f2:	30 15       	mov	r5,1
800092f4:	c4 30       	breq	8000937a <__avr32_f64_mul_op1_subnormal>
800092f6:	ab 6b       	lsl	r11,0xa
800092f8:	f7 ea 13 6b 	or	r11,r11,r10>>0x16
800092fc:	ab 6a       	lsl	r10,0xa
800092fe:	f7 d5 d3 c2 	bfins	r11,r5,0x1e,0x2
80009302:	ed d9 c2 8b 	bfextu	r6,r9,0x14,0xb
80009306:	c5 c0       	breq	800093be <__avr32_f64_mul_op2_subnormal>
80009308:	a1 78       	lsl	r8,0x1
8000930a:	5c f9       	rol	r9
8000930c:	f3 d5 d2 ab 	bfins	r9,r5,0x15,0xb
80009310:	e0 47 07 ff 	cp.w	r7,2047
80009314:	c7 70       	breq	80009402 <__avr32_f64_mul_op_nan_or_inf>
80009316:	e0 46 07 ff 	cp.w	r6,2047
8000931a:	c7 40       	breq	80009402 <__avr32_f64_mul_op_nan_or_inf>
8000931c:	ee 06 00 0c 	add	r12,r7,r6
80009320:	e0 2c 03 fe 	sub	r12,1022
80009324:	f6 08 06 44 	mulu.d	r4,r11,r8
80009328:	f4 09 07 44 	macu.d	r4,r10,r9
8000932c:	f4 08 06 46 	mulu.d	r6,r10,r8
80009330:	f6 09 06 4a 	mulu.d	r10,r11,r9
80009334:	08 07       	add	r7,r4
80009336:	f4 05 00 4a 	adc	r10,r10,r5
8000933a:	5c 0b       	acr	r11
8000933c:	ed bb 00 14 	bld	r11,0x14
80009340:	c0 50       	breq	8000934a <__avr32_f64_mul+0x6a>
80009342:	a1 77       	lsl	r7,0x1
80009344:	5c fa       	rol	r10
80009346:	5c fb       	rol	r11
80009348:	20 1c       	sub	r12,1
8000934a:	58 0c       	cp.w	r12,0
8000934c:	e0 8a 00 6f 	brle	8000942a <__avr32_f64_mul_res_subnormal>
80009350:	e0 4c 07 ff 	cp.w	r12,2047
80009354:	e0 84 00 9c 	brge	8000948c <__avr32_f64_mul_res_inf>
80009358:	f7 dc d2 8b 	bfins	r11,r12,0x14,0xb
8000935c:	ed ea 11 f6 	or	r6,r6,r10<<0x1f
80009360:	ef e6 12 17 	or	r7,r7,r6>>0x1
80009364:	ee 17 80 00 	eorh	r7,0x8000
80009368:	f1 b7 04 20 	satu	r7,0x1
8000936c:	0e 0a       	add	r10,r7
8000936e:	5c 0b       	acr	r11
80009370:	ed be 00 1f 	bld	lr,0x1f
80009374:	ef bb 00 1f 	bst	r11,0x1f
80009378:	d8 22       	popm	r4-r7,pc

8000937a <__avr32_f64_mul_op1_subnormal>:
8000937a:	e4 1b 00 0f 	andh	r11,0xf
8000937e:	f4 0c 12 00 	clz	r12,r10
80009382:	f6 06 12 00 	clz	r6,r11
80009386:	f7 bc 03 e1 	sublo	r12,-31
8000938a:	f8 06 17 30 	movlo	r6,r12
8000938e:	f7 b6 02 01 	subhs	r6,1
80009392:	e0 46 00 20 	cp.w	r6,32
80009396:	c0 d4       	brge	800093b0 <__avr32_f64_mul_op1_subnormal+0x36>
80009398:	ec 0c 11 20 	rsub	r12,r6,32
8000939c:	f6 06 09 4b 	lsl	r11,r11,r6
800093a0:	f4 0c 0a 4c 	lsr	r12,r10,r12
800093a4:	18 4b       	or	r11,r12
800093a6:	f4 06 09 4a 	lsl	r10,r10,r6
800093aa:	20 b6       	sub	r6,11
800093ac:	0c 17       	sub	r7,r6
800093ae:	ca ab       	rjmp	80009302 <__avr32_f64_mul+0x22>
800093b0:	f4 06 09 4b 	lsl	r11,r10,r6
800093b4:	c6 40       	breq	8000947c <__avr32_f64_mul_res_zero>
800093b6:	30 0a       	mov	r10,0
800093b8:	20 b6       	sub	r6,11
800093ba:	0c 17       	sub	r7,r6
800093bc:	ca 3b       	rjmp	80009302 <__avr32_f64_mul+0x22>

800093be <__avr32_f64_mul_op2_subnormal>:
800093be:	e4 19 00 0f 	andh	r9,0xf
800093c2:	f0 0c 12 00 	clz	r12,r8
800093c6:	f2 05 12 00 	clz	r5,r9
800093ca:	f7 bc 03 ea 	sublo	r12,-22
800093ce:	f8 05 17 30 	movlo	r5,r12
800093d2:	f7 b5 02 0a 	subhs	r5,10
800093d6:	e0 45 00 20 	cp.w	r5,32
800093da:	c0 d4       	brge	800093f4 <__avr32_f64_mul_op2_subnormal+0x36>
800093dc:	ea 0c 11 20 	rsub	r12,r5,32
800093e0:	f2 05 09 49 	lsl	r9,r9,r5
800093e4:	f0 0c 0a 4c 	lsr	r12,r8,r12
800093e8:	18 49       	or	r9,r12
800093ea:	f0 05 09 48 	lsl	r8,r8,r5
800093ee:	20 25       	sub	r5,2
800093f0:	0a 16       	sub	r6,r5
800093f2:	c8 fb       	rjmp	80009310 <__avr32_f64_mul+0x30>
800093f4:	f0 05 09 49 	lsl	r9,r8,r5
800093f8:	c4 20       	breq	8000947c <__avr32_f64_mul_res_zero>
800093fa:	30 08       	mov	r8,0
800093fc:	20 25       	sub	r5,2
800093fe:	0a 16       	sub	r6,r5
80009400:	c8 8b       	rjmp	80009310 <__avr32_f64_mul+0x30>

80009402 <__avr32_f64_mul_op_nan_or_inf>:
80009402:	e4 19 00 0f 	andh	r9,0xf
80009406:	e4 1b 00 0f 	andh	r11,0xf
8000940a:	14 4b       	or	r11,r10
8000940c:	10 49       	or	r9,r8
8000940e:	e0 47 07 ff 	cp.w	r7,2047
80009412:	c0 91       	brne	80009424 <__avr32_f64_mul_op1_not_naninf>
80009414:	58 0b       	cp.w	r11,0
80009416:	c3 81       	brne	80009486 <__avr32_f64_mul_res_nan>
80009418:	e0 46 07 ff 	cp.w	r6,2047
8000941c:	c3 81       	brne	8000948c <__avr32_f64_mul_res_inf>
8000941e:	58 09       	cp.w	r9,0
80009420:	c3 60       	breq	8000948c <__avr32_f64_mul_res_inf>
80009422:	c3 28       	rjmp	80009486 <__avr32_f64_mul_res_nan>

80009424 <__avr32_f64_mul_op1_not_naninf>:
80009424:	58 09       	cp.w	r9,0
80009426:	c3 30       	breq	8000948c <__avr32_f64_mul_res_inf>
80009428:	c2 f8       	rjmp	80009486 <__avr32_f64_mul_res_nan>

8000942a <__avr32_f64_mul_res_subnormal>:
8000942a:	5c 3c       	neg	r12
8000942c:	2f fc       	sub	r12,-1
8000942e:	f1 bc 04 c0 	satu	r12,0x6
80009432:	e0 4c 00 20 	cp.w	r12,32
80009436:	c1 14       	brge	80009458 <__avr32_f64_mul_res_subnormal+0x2e>
80009438:	f8 08 11 20 	rsub	r8,r12,32
8000943c:	0e 46       	or	r6,r7
8000943e:	ee 0c 0a 47 	lsr	r7,r7,r12
80009442:	f4 08 09 49 	lsl	r9,r10,r8
80009446:	12 47       	or	r7,r9
80009448:	f4 0c 0a 4a 	lsr	r10,r10,r12
8000944c:	f6 08 09 49 	lsl	r9,r11,r8
80009450:	12 4a       	or	r10,r9
80009452:	f6 0c 0a 4b 	lsr	r11,r11,r12
80009456:	c8 3b       	rjmp	8000935c <__avr32_f64_mul+0x7c>
80009458:	f8 08 11 20 	rsub	r8,r12,32
8000945c:	f9 b9 00 00 	moveq	r9,0
80009460:	c0 30       	breq	80009466 <__avr32_f64_mul_res_subnormal+0x3c>
80009462:	f6 08 09 49 	lsl	r9,r11,r8
80009466:	0e 46       	or	r6,r7
80009468:	ed ea 10 16 	or	r6,r6,r10<<0x1
8000946c:	f4 0c 0a 4a 	lsr	r10,r10,r12
80009470:	f3 ea 10 07 	or	r7,r9,r10
80009474:	f6 0c 0a 4a 	lsr	r10,r11,r12
80009478:	30 0b       	mov	r11,0
8000947a:	c7 1b       	rjmp	8000935c <__avr32_f64_mul+0x7c>

8000947c <__avr32_f64_mul_res_zero>:
8000947c:	1c 9b       	mov	r11,lr
8000947e:	e6 1b 80 00 	andh	r11,0x8000,COH
80009482:	30 0a       	mov	r10,0
80009484:	d8 22       	popm	r4-r7,pc

80009486 <__avr32_f64_mul_res_nan>:
80009486:	3f fb       	mov	r11,-1
80009488:	3f fa       	mov	r10,-1
8000948a:	d8 22       	popm	r4-r7,pc

8000948c <__avr32_f64_mul_res_inf>:
8000948c:	f0 6b 00 00 	mov	r11,-1048576
80009490:	ed be 00 1f 	bld	lr,0x1f
80009494:	ef bb 00 1f 	bst	r11,0x1f
80009498:	30 0a       	mov	r10,0
8000949a:	d8 22       	popm	r4-r7,pc

8000949c <__avr32_f64_mul_op1_zero>:
8000949c:	f7 e9 20 0b 	eor	r11,r11,r9
800094a0:	e6 1b 80 00 	andh	r11,0x8000,COH
800094a4:	f9 d9 c2 8b 	bfextu	r12,r9,0x14,0xb
800094a8:	e0 4c 07 ff 	cp.w	r12,2047
800094ac:	5e 1c       	retne	r12
800094ae:	3f fa       	mov	r10,-1
800094b0:	3f fb       	mov	r11,-1
800094b2:	5e fc       	retal	r12

800094b4 <__avr32_f64_sub_from_add>:
800094b4:	ee 19 80 00 	eorh	r9,0x8000

800094b8 <__avr32_f64_sub>:
800094b8:	f7 e9 20 0c 	eor	r12,r11,r9
800094bc:	e0 86 00 ca 	brmi	80009650 <__avr32_f64_add_from_sub>
800094c0:	eb cd 40 e0 	pushm	r5-r7,lr
800094c4:	16 9c       	mov	r12,r11
800094c6:	e6 1c 80 00 	andh	r12,0x8000,COH
800094ca:	bf db       	cbr	r11,0x1f
800094cc:	bf d9       	cbr	r9,0x1f
800094ce:	10 3a       	cp.w	r10,r8
800094d0:	f2 0b 13 00 	cpc	r11,r9
800094d4:	c0 92       	brcc	800094e6 <__avr32_f64_sub+0x2e>
800094d6:	16 97       	mov	r7,r11
800094d8:	12 9b       	mov	r11,r9
800094da:	0e 99       	mov	r9,r7
800094dc:	14 97       	mov	r7,r10
800094de:	10 9a       	mov	r10,r8
800094e0:	0e 98       	mov	r8,r7
800094e2:	ee 1c 80 00 	eorh	r12,0x8000
800094e6:	f6 07 16 14 	lsr	r7,r11,0x14
800094ea:	ab 7b       	lsl	r11,0xb
800094ec:	f7 ea 13 5b 	or	r11,r11,r10>>0x15
800094f0:	ab 7a       	lsl	r10,0xb
800094f2:	bf bb       	sbr	r11,0x1f
800094f4:	f2 06 16 14 	lsr	r6,r9,0x14
800094f8:	c4 40       	breq	80009580 <__avr32_f64_sub_opL_subnormal>
800094fa:	ab 79       	lsl	r9,0xb
800094fc:	f3 e8 13 59 	or	r9,r9,r8>>0x15
80009500:	ab 78       	lsl	r8,0xb
80009502:	bf b9       	sbr	r9,0x1f

80009504 <__avr32_f64_sub_opL_subnormal_done>:
80009504:	e0 47 07 ff 	cp.w	r7,2047
80009508:	c4 f0       	breq	800095a6 <__avr32_f64_sub_opH_nan_or_inf>
8000950a:	0e 26       	rsub	r6,r7
8000950c:	c1 20       	breq	80009530 <__avr32_f64_sub_shift_done>
8000950e:	ec 05 11 20 	rsub	r5,r6,32
80009512:	e0 46 00 20 	cp.w	r6,32
80009516:	c7 c2       	brcc	8000960e <__avr32_f64_sub_longshift>
80009518:	f0 05 09 4e 	lsl	lr,r8,r5
8000951c:	f2 05 09 45 	lsl	r5,r9,r5
80009520:	f0 06 0a 48 	lsr	r8,r8,r6
80009524:	f2 06 0a 49 	lsr	r9,r9,r6
80009528:	0a 48       	or	r8,r5
8000952a:	58 0e       	cp.w	lr,0
8000952c:	5f 1e       	srne	lr
8000952e:	1c 48       	or	r8,lr

80009530 <__avr32_f64_sub_shift_done>:
80009530:	10 1a       	sub	r10,r8
80009532:	f6 09 01 4b 	sbc	r11,r11,r9
80009536:	f6 06 12 00 	clz	r6,r11
8000953a:	c0 e0       	breq	80009556 <__avr32_f64_sub_longnormalize_done>
8000953c:	c7 83       	brcs	8000962c <__avr32_f64_sub_longnormalize>
8000953e:	ec 0e 11 20 	rsub	lr,r6,32
80009542:	f6 06 09 4b 	lsl	r11,r11,r6
80009546:	f4 0e 0a 4e 	lsr	lr,r10,lr
8000954a:	1c 4b       	or	r11,lr
8000954c:	f4 06 09 4a 	lsl	r10,r10,r6
80009550:	0c 17       	sub	r7,r6
80009552:	e0 8a 00 39 	brle	800095c4 <__avr32_f64_sub_subnormal_result>

80009556 <__avr32_f64_sub_longnormalize_done>:
80009556:	f4 09 15 15 	lsl	r9,r10,0x15
8000955a:	ab 9a       	lsr	r10,0xb
8000955c:	f5 eb 11 5a 	or	r10,r10,r11<<0x15
80009560:	ab 9b       	lsr	r11,0xb
80009562:	f7 d7 d2 8b 	bfins	r11,r7,0x14,0xb
80009566:	18 4b       	or	r11,r12

80009568 <__avr32_f64_sub_round>:
80009568:	fc 17 80 00 	movh	r7,0x8000
8000956c:	ed ba 00 00 	bld	r10,0x0
80009570:	f7 b7 01 ff 	subne	r7,-1
80009574:	0e 39       	cp.w	r9,r7
80009576:	5f 29       	srhs	r9
80009578:	12 0a       	add	r10,r9
8000957a:	5c 0b       	acr	r11
8000957c:	e3 cd 80 e0 	ldm	sp++,r5-r7,pc

80009580 <__avr32_f64_sub_opL_subnormal>:
80009580:	ab 79       	lsl	r9,0xb
80009582:	f3 e8 13 59 	or	r9,r9,r8>>0x15
80009586:	ab 78       	lsl	r8,0xb
80009588:	f3 e8 10 0e 	or	lr,r9,r8
8000958c:	f9 b6 01 01 	movne	r6,1
80009590:	ee 0e 11 00 	rsub	lr,r7,0
80009594:	f9 b7 00 01 	moveq	r7,1
80009598:	ef bb 00 1f 	bst	r11,0x1f
8000959c:	f7 ea 10 0e 	or	lr,r11,r10
800095a0:	f9 b7 00 00 	moveq	r7,0
800095a4:	cb 0b       	rjmp	80009504 <__avr32_f64_sub_opL_subnormal_done>

800095a6 <__avr32_f64_sub_opH_nan_or_inf>:
800095a6:	bf db       	cbr	r11,0x1f
800095a8:	f7 ea 10 0e 	or	lr,r11,r10
800095ac:	c0 81       	brne	800095bc <__avr32_f64_sub_return_nan>
800095ae:	e0 46 07 ff 	cp.w	r6,2047
800095b2:	c0 50       	breq	800095bc <__avr32_f64_sub_return_nan>
800095b4:	f9 e7 11 4b 	or	r11,r12,r7<<0x14
800095b8:	e3 cd 80 e0 	ldm	sp++,r5-r7,pc

800095bc <__avr32_f64_sub_return_nan>:
800095bc:	3f fa       	mov	r10,-1
800095be:	3f fb       	mov	r11,-1
800095c0:	e3 cd 80 e0 	ldm	sp++,r5-r7,pc

800095c4 <__avr32_f64_sub_subnormal_result>:
800095c4:	5c 37       	neg	r7
800095c6:	2f f7       	sub	r7,-1
800095c8:	f1 b7 04 c0 	satu	r7,0x6
800095cc:	e0 47 00 20 	cp.w	r7,32
800095d0:	c1 14       	brge	800095f2 <__avr32_f64_sub_subnormal_result+0x2e>
800095d2:	ee 08 11 20 	rsub	r8,r7,32
800095d6:	f4 08 09 49 	lsl	r9,r10,r8
800095da:	5f 16       	srne	r6
800095dc:	f4 07 0a 4a 	lsr	r10,r10,r7
800095e0:	0c 4a       	or	r10,r6
800095e2:	f6 08 09 49 	lsl	r9,r11,r8
800095e6:	f5 e9 10 0a 	or	r10,r10,r9
800095ea:	f4 07 0a 4b 	lsr	r11,r10,r7
800095ee:	30 07       	mov	r7,0
800095f0:	cb 3b       	rjmp	80009556 <__avr32_f64_sub_longnormalize_done>
800095f2:	ee 08 11 40 	rsub	r8,r7,64
800095f6:	f6 08 09 49 	lsl	r9,r11,r8
800095fa:	14 49       	or	r9,r10
800095fc:	5f 16       	srne	r6
800095fe:	f6 07 0a 4a 	lsr	r10,r11,r7
80009602:	0c 4a       	or	r10,r6
80009604:	30 0b       	mov	r11,0
80009606:	30 07       	mov	r7,0
80009608:	ca 7b       	rjmp	80009556 <__avr32_f64_sub_longnormalize_done>
8000960a:	e3 cd 80 e0 	ldm	sp++,r5-r7,pc

8000960e <__avr32_f64_sub_longshift>:
8000960e:	f1 b6 04 c0 	satu	r6,0x6
80009612:	f0 0e 17 00 	moveq	lr,r8
80009616:	c0 40       	breq	8000961e <__avr32_f64_sub_longshift+0x10>
80009618:	f2 05 09 4e 	lsl	lr,r9,r5
8000961c:	10 4e       	or	lr,r8
8000961e:	f2 06 0a 48 	lsr	r8,r9,r6
80009622:	30 09       	mov	r9,0
80009624:	58 0e       	cp.w	lr,0
80009626:	5f 1e       	srne	lr
80009628:	1c 48       	or	r8,lr
8000962a:	c8 3b       	rjmp	80009530 <__avr32_f64_sub_shift_done>

8000962c <__avr32_f64_sub_longnormalize>:
8000962c:	f4 06 12 00 	clz	r6,r10
80009630:	f9 b7 03 00 	movlo	r7,0
80009634:	f9 b6 03 00 	movlo	r6,0
80009638:	f9 bc 03 00 	movlo	r12,0
8000963c:	f7 b6 02 e0 	subhs	r6,-32
80009640:	f4 06 09 4b 	lsl	r11,r10,r6
80009644:	30 0a       	mov	r10,0
80009646:	0c 17       	sub	r7,r6
80009648:	fe 9a ff be 	brle	800095c4 <__avr32_f64_sub_subnormal_result>
8000964c:	c8 5b       	rjmp	80009556 <__avr32_f64_sub_longnormalize_done>
	...

80009650 <__avr32_f64_add_from_sub>:
80009650:	ee 19 80 00 	eorh	r9,0x8000

80009654 <__avr32_f64_add>:
80009654:	f7 e9 20 0c 	eor	r12,r11,r9
80009658:	fe 96 ff 2e 	brmi	800094b4 <__avr32_f64_sub_from_add>
8000965c:	eb cd 40 e0 	pushm	r5-r7,lr
80009660:	16 9c       	mov	r12,r11
80009662:	e6 1c 80 00 	andh	r12,0x8000,COH
80009666:	bf db       	cbr	r11,0x1f
80009668:	bf d9       	cbr	r9,0x1f
8000966a:	12 3b       	cp.w	r11,r9
8000966c:	c0 72       	brcc	8000967a <__avr32_f64_add+0x26>
8000966e:	16 97       	mov	r7,r11
80009670:	12 9b       	mov	r11,r9
80009672:	0e 99       	mov	r9,r7
80009674:	14 97       	mov	r7,r10
80009676:	10 9a       	mov	r10,r8
80009678:	0e 98       	mov	r8,r7
8000967a:	30 0e       	mov	lr,0
8000967c:	ef db c2 8b 	bfextu	r7,r11,0x14,0xb
80009680:	f7 db c0 14 	bfextu	r11,r11,0x0,0x14
80009684:	b5 ab       	sbr	r11,0x14
80009686:	ed d9 c2 8b 	bfextu	r6,r9,0x14,0xb
8000968a:	c6 20       	breq	8000974e <__avr32_f64_add_op2_subnormal>
8000968c:	f3 d9 c0 14 	bfextu	r9,r9,0x0,0x14
80009690:	b5 a9       	sbr	r9,0x14
80009692:	e0 47 07 ff 	cp.w	r7,2047
80009696:	c2 80       	breq	800096e6 <__avr32_f64_add_opH_nan_or_inf>
80009698:	0e 26       	rsub	r6,r7
8000969a:	c1 20       	breq	800096be <__avr32_f64_add_shift_done>
8000969c:	e0 46 00 36 	cp.w	r6,54
800096a0:	c1 52       	brcc	800096ca <__avr32_f64_add_res_of_done>
800096a2:	ec 05 11 20 	rsub	r5,r6,32
800096a6:	e0 46 00 20 	cp.w	r6,32
800096aa:	c3 52       	brcc	80009714 <__avr32_f64_add_longshift>
800096ac:	f0 05 09 4e 	lsl	lr,r8,r5
800096b0:	f2 05 09 45 	lsl	r5,r9,r5
800096b4:	f0 06 0a 48 	lsr	r8,r8,r6
800096b8:	f2 06 0a 49 	lsr	r9,r9,r6
800096bc:	0a 48       	or	r8,r5

800096be <__avr32_f64_add_shift_done>:
800096be:	10 0a       	add	r10,r8
800096c0:	f6 09 00 4b 	adc	r11,r11,r9
800096c4:	ed bb 00 15 	bld	r11,0x15
800096c8:	c3 40       	breq	80009730 <__avr32_f64_add_res_of>

800096ca <__avr32_f64_add_res_of_done>:
800096ca:	f7 d7 d2 8b 	bfins	r11,r7,0x14,0xb
800096ce:	18 4b       	or	r11,r12

800096d0 <__avr32_f64_add_round>:
800096d0:	f9 da c0 01 	bfextu	r12,r10,0x0,0x1
800096d4:	18 4e       	or	lr,r12
800096d6:	ee 1e 80 00 	eorh	lr,0x8000
800096da:	f1 be 04 20 	satu	lr,0x1
800096de:	1c 0a       	add	r10,lr
800096e0:	5c 0b       	acr	r11
800096e2:	e3 cd 80 e0 	ldm	sp++,r5-r7,pc

800096e6 <__avr32_f64_add_opH_nan_or_inf>:
800096e6:	b5 cb       	cbr	r11,0x14
800096e8:	f7 ea 10 0e 	or	lr,r11,r10
800096ec:	c1 01       	brne	8000970c <__avr32_f64_add_return_nan>
800096ee:	e0 46 07 ff 	cp.w	r6,2047
800096f2:	c0 30       	breq	800096f8 <__avr32_f64_add_opL_nan_or_inf>
800096f4:	e3 cd 80 e0 	ldm	sp++,r5-r7,pc

800096f8 <__avr32_f64_add_opL_nan_or_inf>:
800096f8:	b5 c9       	cbr	r9,0x14
800096fa:	f3 e8 10 0e 	or	lr,r9,r8
800096fe:	c0 71       	brne	8000970c <__avr32_f64_add_return_nan>
80009700:	30 0a       	mov	r10,0
80009702:	fc 1b 7f f0 	movh	r11,0x7ff0
80009706:	18 4b       	or	r11,r12
80009708:	e3 cd 80 e0 	ldm	sp++,r5-r7,pc

8000970c <__avr32_f64_add_return_nan>:
8000970c:	3f fa       	mov	r10,-1
8000970e:	3f fb       	mov	r11,-1
80009710:	e3 cd 80 e0 	ldm	sp++,r5-r7,pc

80009714 <__avr32_f64_add_longshift>:
80009714:	f1 b6 04 c0 	satu	r6,0x6
80009718:	f0 0e 17 00 	moveq	lr,r8
8000971c:	c0 60       	breq	80009728 <__avr32_f64_add_longshift+0x14>
8000971e:	f2 05 09 4e 	lsl	lr,r9,r5
80009722:	58 08       	cp.w	r8,0
80009724:	5f 18       	srne	r8
80009726:	10 4e       	or	lr,r8
80009728:	f2 06 0a 48 	lsr	r8,r9,r6
8000972c:	30 09       	mov	r9,0
8000972e:	cc 8b       	rjmp	800096be <__avr32_f64_add_shift_done>

80009730 <__avr32_f64_add_res_of>:
80009730:	fd ee 10 1e 	or	lr,lr,lr<<0x1
80009734:	a1 9b       	lsr	r11,0x1
80009736:	5d 0a       	ror	r10
80009738:	5d 0e       	ror	lr
8000973a:	2f f7       	sub	r7,-1
8000973c:	e0 47 07 ff 	cp.w	r7,2047
80009740:	f9 ba 00 00 	moveq	r10,0
80009744:	f9 bb 00 00 	moveq	r11,0
80009748:	f9 be 00 00 	moveq	lr,0
8000974c:	cb fb       	rjmp	800096ca <__avr32_f64_add_res_of_done>

8000974e <__avr32_f64_add_op2_subnormal>:
8000974e:	30 16       	mov	r6,1
80009750:	58 07       	cp.w	r7,0
80009752:	ca 01       	brne	80009692 <__avr32_f64_add+0x3e>
80009754:	b5 cb       	cbr	r11,0x14
80009756:	10 0a       	add	r10,r8
80009758:	f6 09 00 4b 	adc	r11,r11,r9
8000975c:	18 4b       	or	r11,r12
8000975e:	e3 cd 80 e0 	ldm	sp++,r5-r7,pc
	...

80009764 <__avr32_f64_to_u32>:
80009764:	58 0b       	cp.w	r11,0
80009766:	5e 6d       	retmi	0

80009768 <__avr32_f64_to_s32>:
80009768:	f6 0c 15 01 	lsl	r12,r11,0x1
8000976c:	b5 9c       	lsr	r12,0x15
8000976e:	e0 2c 03 ff 	sub	r12,1023
80009772:	5e 3d       	retlo	0
80009774:	f8 0c 11 1f 	rsub	r12,r12,31
80009778:	16 99       	mov	r9,r11
8000977a:	ab 7b       	lsl	r11,0xb
8000977c:	bf bb       	sbr	r11,0x1f
8000977e:	f7 ea 13 5b 	or	r11,r11,r10>>0x15
80009782:	f6 0c 0a 4b 	lsr	r11,r11,r12
80009786:	a1 79       	lsl	r9,0x1
80009788:	5e 2b       	reths	r11
8000978a:	5c 3b       	neg	r11
8000978c:	5e fb       	retal	r11

8000978e <__avr32_u32_to_f64>:
8000978e:	f8 cb 00 00 	sub	r11,r12,0
80009792:	30 0c       	mov	r12,0
80009794:	c0 38       	rjmp	8000979a <__avr32_s32_to_f64+0x4>

80009796 <__avr32_s32_to_f64>:
80009796:	18 9b       	mov	r11,r12
80009798:	5c 4b       	abs	r11
8000979a:	30 0a       	mov	r10,0
8000979c:	5e 0b       	reteq	r11
8000979e:	d4 01       	pushm	lr
800097a0:	e0 69 04 1e 	mov	r9,1054
800097a4:	f6 08 12 00 	clz	r8,r11
800097a8:	c1 70       	breq	800097d6 <__avr32_s32_to_f64+0x40>
800097aa:	c0 c3       	brcs	800097c2 <__avr32_s32_to_f64+0x2c>
800097ac:	f0 0e 11 20 	rsub	lr,r8,32
800097b0:	f6 08 09 4b 	lsl	r11,r11,r8
800097b4:	f4 0e 0a 4e 	lsr	lr,r10,lr
800097b8:	1c 4b       	or	r11,lr
800097ba:	f4 08 09 4a 	lsl	r10,r10,r8
800097be:	10 19       	sub	r9,r8
800097c0:	c0 b8       	rjmp	800097d6 <__avr32_s32_to_f64+0x40>
800097c2:	f4 08 12 00 	clz	r8,r10
800097c6:	f9 b8 03 00 	movlo	r8,0
800097ca:	f7 b8 02 e0 	subhs	r8,-32
800097ce:	f4 08 09 4b 	lsl	r11,r10,r8
800097d2:	30 0a       	mov	r10,0
800097d4:	10 19       	sub	r9,r8
800097d6:	58 09       	cp.w	r9,0
800097d8:	e0 89 00 30 	brgt	80009838 <__avr32_s32_to_f64+0xa2>
800097dc:	5c 39       	neg	r9
800097de:	2f f9       	sub	r9,-1
800097e0:	e0 49 00 36 	cp.w	r9,54
800097e4:	c0 43       	brcs	800097ec <__avr32_s32_to_f64+0x56>
800097e6:	30 0b       	mov	r11,0
800097e8:	30 0a       	mov	r10,0
800097ea:	c2 68       	rjmp	80009836 <__avr32_s32_to_f64+0xa0>
800097ec:	2f 69       	sub	r9,-10
800097ee:	f2 08 11 20 	rsub	r8,r9,32
800097f2:	e0 49 00 20 	cp.w	r9,32
800097f6:	c0 b2       	brcc	8000980c <__avr32_s32_to_f64+0x76>
800097f8:	f4 08 09 4e 	lsl	lr,r10,r8
800097fc:	f6 08 09 48 	lsl	r8,r11,r8
80009800:	f4 09 0a 4a 	lsr	r10,r10,r9
80009804:	f6 09 0a 4b 	lsr	r11,r11,r9
80009808:	10 4b       	or	r11,r8
8000980a:	c0 88       	rjmp	8000981a <__avr32_s32_to_f64+0x84>
8000980c:	f6 08 09 4e 	lsl	lr,r11,r8
80009810:	14 4e       	or	lr,r10
80009812:	16 9a       	mov	r10,r11
80009814:	30 0b       	mov	r11,0
80009816:	f4 09 0a 4a 	lsr	r10,r10,r9
8000981a:	ed ba 00 00 	bld	r10,0x0
8000981e:	c0 92       	brcc	80009830 <__avr32_s32_to_f64+0x9a>
80009820:	1c 7e       	tst	lr,lr
80009822:	c0 41       	brne	8000982a <__avr32_s32_to_f64+0x94>
80009824:	ed ba 00 01 	bld	r10,0x1
80009828:	c0 42       	brcc	80009830 <__avr32_s32_to_f64+0x9a>
8000982a:	2f fa       	sub	r10,-1
8000982c:	f7 bb 02 ff 	subhs	r11,-1
80009830:	5c fc       	rol	r12
80009832:	5d 0b       	ror	r11
80009834:	5d 0a       	ror	r10
80009836:	d8 02       	popm	pc
80009838:	e0 68 03 ff 	mov	r8,1023
8000983c:	ed ba 00 0b 	bld	r10,0xb
80009840:	f7 b8 00 ff 	subeq	r8,-1
80009844:	10 0a       	add	r10,r8
80009846:	5c 0b       	acr	r11
80009848:	f7 b9 03 fe 	sublo	r9,-2
8000984c:	e0 49 07 ff 	cp.w	r9,2047
80009850:	c0 55       	brlt	8000985a <__avr32_s32_to_f64+0xc4>
80009852:	30 0a       	mov	r10,0
80009854:	fc 1b ff e0 	movh	r11,0xffe0
80009858:	c0 c8       	rjmp	80009870 <__floatsidf_return_op1>
8000985a:	ed bb 00 1f 	bld	r11,0x1f
8000985e:	f7 b9 01 01 	subne	r9,1
80009862:	ab 9a       	lsr	r10,0xb
80009864:	f5 eb 11 5a 	or	r10,r10,r11<<0x15
80009868:	a1 7b       	lsl	r11,0x1
8000986a:	ab 9b       	lsr	r11,0xb
8000986c:	f7 e9 11 5b 	or	r11,r11,r9<<0x15

80009870 <__floatsidf_return_op1>:
80009870:	a1 7c       	lsl	r12,0x1
80009872:	5d 0b       	ror	r11
80009874:	d8 02       	popm	pc

80009876 <__avr32_f64_cmp_eq>:
80009876:	10 3a       	cp.w	r10,r8
80009878:	f2 0b 13 00 	cpc	r11,r9
8000987c:	c0 80       	breq	8000988c <__avr32_f64_cmp_eq+0x16>
8000987e:	a1 7b       	lsl	r11,0x1
80009880:	a1 79       	lsl	r9,0x1
80009882:	14 4b       	or	r11,r10
80009884:	12 4b       	or	r11,r9
80009886:	10 4b       	or	r11,r8
80009888:	5e 0f       	reteq	1
8000988a:	5e fd       	retal	0
8000988c:	a1 7b       	lsl	r11,0x1
8000988e:	fc 1c ff e0 	movh	r12,0xffe0
80009892:	58 0a       	cp.w	r10,0
80009894:	f8 0b 13 00 	cpc	r11,r12
80009898:	5e 8f       	retls	1
8000989a:	5e fd       	retal	0

8000989c <__avr32_f64_cmp_ge>:
8000989c:	1a de       	st.w	--sp,lr
8000989e:	1a d7       	st.w	--sp,r7
800098a0:	a1 7b       	lsl	r11,0x1
800098a2:	5f 3c       	srlo	r12
800098a4:	a1 79       	lsl	r9,0x1
800098a6:	5f 37       	srlo	r7
800098a8:	5c fc       	rol	r12
800098aa:	fc 1e ff e0 	movh	lr,0xffe0
800098ae:	58 0a       	cp.w	r10,0
800098b0:	fc 0b 13 00 	cpc	r11,lr
800098b4:	e0 8b 00 1d 	brhi	800098ee <__avr32_f64_cmp_ge+0x52>
800098b8:	58 08       	cp.w	r8,0
800098ba:	fc 09 13 00 	cpc	r9,lr
800098be:	e0 8b 00 18 	brhi	800098ee <__avr32_f64_cmp_ge+0x52>
800098c2:	58 0b       	cp.w	r11,0
800098c4:	f5 ba 00 00 	subfeq	r10,0
800098c8:	c1 50       	breq	800098f2 <__avr32_f64_cmp_ge+0x56>
800098ca:	1b 07       	ld.w	r7,sp++
800098cc:	1b 0e       	ld.w	lr,sp++
800098ce:	58 3c       	cp.w	r12,3
800098d0:	c0 a0       	breq	800098e4 <__avr32_f64_cmp_ge+0x48>
800098d2:	58 1c       	cp.w	r12,1
800098d4:	c0 33       	brcs	800098da <__avr32_f64_cmp_ge+0x3e>
800098d6:	5e 0f       	reteq	1
800098d8:	5e 1d       	retne	0
800098da:	10 3a       	cp.w	r10,r8
800098dc:	f2 0b 13 00 	cpc	r11,r9
800098e0:	5e 2f       	reths	1
800098e2:	5e 3d       	retlo	0
800098e4:	14 38       	cp.w	r8,r10
800098e6:	f6 09 13 00 	cpc	r9,r11
800098ea:	5e 2f       	reths	1
800098ec:	5e 3d       	retlo	0
800098ee:	1b 07       	ld.w	r7,sp++
800098f0:	d8 0a       	popm	pc,r12=0
800098f2:	58 17       	cp.w	r7,1
800098f4:	5f 0c       	sreq	r12
800098f6:	58 09       	cp.w	r9,0
800098f8:	f5 b8 00 00 	subfeq	r8,0
800098fc:	1b 07       	ld.w	r7,sp++
800098fe:	1b 0e       	ld.w	lr,sp++
80009900:	5e 0f       	reteq	1
80009902:	5e fc       	retal	r12

80009904 <__avr32_f64_cmp_lt>:
80009904:	1a de       	st.w	--sp,lr
80009906:	1a d7       	st.w	--sp,r7
80009908:	a1 7b       	lsl	r11,0x1
8000990a:	5f 3c       	srlo	r12
8000990c:	a1 79       	lsl	r9,0x1
8000990e:	5f 37       	srlo	r7
80009910:	5c fc       	rol	r12
80009912:	fc 1e ff e0 	movh	lr,0xffe0
80009916:	58 0a       	cp.w	r10,0
80009918:	fc 0b 13 00 	cpc	r11,lr
8000991c:	e0 8b 00 1d 	brhi	80009956 <__avr32_f64_cmp_lt+0x52>
80009920:	58 08       	cp.w	r8,0
80009922:	fc 09 13 00 	cpc	r9,lr
80009926:	e0 8b 00 18 	brhi	80009956 <__avr32_f64_cmp_lt+0x52>
8000992a:	58 0b       	cp.w	r11,0
8000992c:	f5 ba 00 00 	subfeq	r10,0
80009930:	c1 50       	breq	8000995a <__avr32_f64_cmp_lt+0x56>
80009932:	1b 07       	ld.w	r7,sp++
80009934:	1b 0e       	ld.w	lr,sp++
80009936:	58 3c       	cp.w	r12,3
80009938:	c0 a0       	breq	8000994c <__avr32_f64_cmp_lt+0x48>
8000993a:	58 1c       	cp.w	r12,1
8000993c:	c0 33       	brcs	80009942 <__avr32_f64_cmp_lt+0x3e>
8000993e:	5e 0d       	reteq	0
80009940:	5e 1f       	retne	1
80009942:	10 3a       	cp.w	r10,r8
80009944:	f2 0b 13 00 	cpc	r11,r9
80009948:	5e 2d       	reths	0
8000994a:	5e 3f       	retlo	1
8000994c:	14 38       	cp.w	r8,r10
8000994e:	f6 09 13 00 	cpc	r9,r11
80009952:	5e 2d       	reths	0
80009954:	5e 3f       	retlo	1
80009956:	1b 07       	ld.w	r7,sp++
80009958:	d8 0a       	popm	pc,r12=0
8000995a:	58 17       	cp.w	r7,1
8000995c:	5f 1c       	srne	r12
8000995e:	58 09       	cp.w	r9,0
80009960:	f5 b8 00 00 	subfeq	r8,0
80009964:	1b 07       	ld.w	r7,sp++
80009966:	1b 0e       	ld.w	lr,sp++
80009968:	5e 0d       	reteq	0
8000996a:	5e fc       	retal	r12

8000996c <__avr32_f64_div>:
8000996c:	eb cd 40 ff 	pushm	r0-r7,lr
80009970:	f7 e9 20 0e 	eor	lr,r11,r9
80009974:	f6 07 16 14 	lsr	r7,r11,0x14
80009978:	a9 7b       	lsl	r11,0x9
8000997a:	f7 ea 13 7b 	or	r11,r11,r10>>0x17
8000997e:	a9 7a       	lsl	r10,0x9
80009980:	bd bb       	sbr	r11,0x1d
80009982:	e4 1b 3f ff 	andh	r11,0x3fff
80009986:	ab d7       	cbr	r7,0xb
80009988:	e0 80 00 cc 	breq	80009b20 <__avr32_f64_div_round_subnormal+0x54>
8000998c:	e0 47 07 ff 	cp.w	r7,2047
80009990:	e0 84 00 b5 	brge	80009afa <__avr32_f64_div_round_subnormal+0x2e>
80009994:	f2 06 16 14 	lsr	r6,r9,0x14
80009998:	a9 79       	lsl	r9,0x9
8000999a:	f3 e8 13 79 	or	r9,r9,r8>>0x17
8000999e:	a9 78       	lsl	r8,0x9
800099a0:	bd b9       	sbr	r9,0x1d
800099a2:	e4 19 3f ff 	andh	r9,0x3fff
800099a6:	ab d6       	cbr	r6,0xb
800099a8:	e0 80 00 e2 	breq	80009b6c <__avr32_f64_div_round_subnormal+0xa0>
800099ac:	e0 46 07 ff 	cp.w	r6,2047
800099b0:	e0 84 00 b2 	brge	80009b14 <__avr32_f64_div_round_subnormal+0x48>
800099b4:	0c 17       	sub	r7,r6
800099b6:	fe 37 fc 01 	sub	r7,-1023
800099ba:	fc 1c 80 00 	movh	r12,0x8000
800099be:	f8 03 16 01 	lsr	r3,r12,0x1
800099c2:	e9 d9 c3 62 	bfextu	r4,r9,0x1b,0x2
800099c6:	5c d4       	com	r4
800099c8:	e7 d4 d3 82 	bfins	r3,r4,0x1c,0x2
800099cc:	e6 09 06 44 	mulu.d	r4,r3,r9
800099d0:	f8 05 01 25 	sub	r5,r12,r5<<0x2
800099d4:	e6 05 06 44 	mulu.d	r4,r3,r5
800099d8:	ea 03 15 02 	lsl	r3,r5,0x2
800099dc:	e6 09 06 44 	mulu.d	r4,r3,r9
800099e0:	f8 05 01 25 	sub	r5,r12,r5<<0x2
800099e4:	e6 05 06 44 	mulu.d	r4,r3,r5
800099e8:	ea 03 15 02 	lsl	r3,r5,0x2
800099ec:	e6 09 06 44 	mulu.d	r4,r3,r9
800099f0:	f8 05 01 25 	sub	r5,r12,r5<<0x2
800099f4:	e6 05 06 44 	mulu.d	r4,r3,r5
800099f8:	ea 03 15 02 	lsl	r3,r5,0x2
800099fc:	e6 08 06 40 	mulu.d	r0,r3,r8
80009a00:	e4 09 07 40 	macu.d	r0,r2,r9
80009a04:	e6 09 06 44 	mulu.d	r4,r3,r9
80009a08:	02 04       	add	r4,r1
80009a0a:	5c 05       	acr	r5
80009a0c:	a3 65       	lsl	r5,0x2
80009a0e:	eb e4 13 e5 	or	r5,r5,r4>>0x1e
80009a12:	a3 64       	lsl	r4,0x2
80009a14:	5c 34       	neg	r4
80009a16:	f8 05 01 45 	sbc	r5,r12,r5
80009a1a:	e6 04 06 40 	mulu.d	r0,r3,r4
80009a1e:	e4 05 07 40 	macu.d	r0,r2,r5
80009a22:	e6 05 06 44 	mulu.d	r4,r3,r5
80009a26:	02 04       	add	r4,r1
80009a28:	5c 05       	acr	r5
80009a2a:	ea 03 15 02 	lsl	r3,r5,0x2
80009a2e:	e7 e4 13 e3 	or	r3,r3,r4>>0x1e
80009a32:	e8 02 15 02 	lsl	r2,r4,0x2
80009a36:	e6 08 06 40 	mulu.d	r0,r3,r8
80009a3a:	e4 09 07 40 	macu.d	r0,r2,r9
80009a3e:	e6 09 06 44 	mulu.d	r4,r3,r9
80009a42:	02 04       	add	r4,r1
80009a44:	5c 05       	acr	r5
80009a46:	a3 65       	lsl	r5,0x2
80009a48:	eb e4 13 e5 	or	r5,r5,r4>>0x1e
80009a4c:	a3 64       	lsl	r4,0x2
80009a4e:	5c 34       	neg	r4
80009a50:	f8 05 01 45 	sbc	r5,r12,r5
80009a54:	e6 04 06 40 	mulu.d	r0,r3,r4
80009a58:	e4 05 07 40 	macu.d	r0,r2,r5
80009a5c:	e6 05 06 44 	mulu.d	r4,r3,r5
80009a60:	02 04       	add	r4,r1
80009a62:	5c 05       	acr	r5
80009a64:	ea 03 15 02 	lsl	r3,r5,0x2
80009a68:	e7 e4 13 e3 	or	r3,r3,r4>>0x1e
80009a6c:	e8 02 15 02 	lsl	r2,r4,0x2
80009a70:	e6 0a 06 40 	mulu.d	r0,r3,r10
80009a74:	e4 0b 07 40 	macu.d	r0,r2,r11
80009a78:	e6 0b 06 42 	mulu.d	r2,r3,r11
80009a7c:	02 02       	add	r2,r1
80009a7e:	5c 03       	acr	r3
80009a80:	ed b3 00 1c 	bld	r3,0x1c
80009a84:	c0 90       	breq	80009a96 <__avr32_f64_div+0x12a>
80009a86:	a1 72       	lsl	r2,0x1
80009a88:	5c f3       	rol	r3
80009a8a:	20 17       	sub	r7,1
80009a8c:	a3 9a       	lsr	r10,0x3
80009a8e:	f5 eb 11 da 	or	r10,r10,r11<<0x1d
80009a92:	a3 9b       	lsr	r11,0x3
80009a94:	c0 58       	rjmp	80009a9e <__avr32_f64_div+0x132>
80009a96:	a5 8a       	lsr	r10,0x4
80009a98:	f5 eb 11 ca 	or	r10,r10,r11<<0x1c
80009a9c:	a5 8b       	lsr	r11,0x4
80009a9e:	58 07       	cp.w	r7,0
80009aa0:	e0 8a 00 8b 	brle	80009bb6 <__avr32_f64_div_res_subnormal>
80009aa4:	e0 12 ff 00 	andl	r2,0xff00
80009aa8:	e8 12 00 80 	orl	r2,0x80
80009aac:	e6 08 06 40 	mulu.d	r0,r3,r8
80009ab0:	e4 09 07 40 	macu.d	r0,r2,r9
80009ab4:	e4 08 06 44 	mulu.d	r4,r2,r8
80009ab8:	e6 09 06 48 	mulu.d	r8,r3,r9
80009abc:	00 05       	add	r5,r0
80009abe:	f0 01 00 48 	adc	r8,r8,r1
80009ac2:	5c 09       	acr	r9
80009ac4:	f9 d2 c1 01 	bfextu	r12,r2,0x8,0x1
80009ac8:	58 04       	cp.w	r4,0
80009aca:	5c 25       	cpc	r5

80009acc <__avr32_f64_div_round_subnormal>:
80009acc:	f4 08 13 00 	cpc	r8,r10
80009ad0:	f6 09 13 00 	cpc	r9,r11
80009ad4:	5f 36       	srlo	r6
80009ad6:	f8 06 17 00 	moveq	r6,r12
80009ada:	e4 0a 16 08 	lsr	r10,r2,0x8
80009ade:	f5 e3 11 8a 	or	r10,r10,r3<<0x18
80009ae2:	e6 0b 16 08 	lsr	r11,r3,0x8
80009ae6:	f7 d7 d2 8b 	bfins	r11,r7,0x14,0xb
80009aea:	ed be 00 1f 	bld	lr,0x1f
80009aee:	ef bb 00 1f 	bst	r11,0x1f
80009af2:	0c 0a       	add	r10,r6
80009af4:	5c 0b       	acr	r11
80009af6:	e3 cd 80 ff 	ldm	sp++,r0-r7,pc
80009afa:	e4 1b 00 0f 	andh	r11,0xf
80009afe:	14 4b       	or	r11,r10
80009b00:	e0 81 00 a7 	brne	80009c4e <__avr32_f64_div_res_subnormal+0x98>
80009b04:	f2 06 16 14 	lsr	r6,r9,0x14
80009b08:	ab d6       	cbr	r6,0xb
80009b0a:	e0 46 07 ff 	cp.w	r6,2047
80009b0e:	e0 81 00 a4 	brne	80009c56 <__avr32_f64_div_res_subnormal+0xa0>
80009b12:	c9 e8       	rjmp	80009c4e <__avr32_f64_div_res_subnormal+0x98>
80009b14:	e4 19 00 0f 	andh	r9,0xf
80009b18:	10 49       	or	r9,r8
80009b1a:	e0 81 00 9a 	brne	80009c4e <__avr32_f64_div_res_subnormal+0x98>
80009b1e:	c9 28       	rjmp	80009c42 <__avr32_f64_div_res_subnormal+0x8c>
80009b20:	a3 7b       	lsl	r11,0x3
80009b22:	f7 ea 13 db 	or	r11,r11,r10>>0x1d
80009b26:	a3 7a       	lsl	r10,0x3
80009b28:	f5 eb 10 04 	or	r4,r10,r11
80009b2c:	e0 80 00 a0 	breq	80009c6c <__avr32_f64_div_op1_zero>
80009b30:	f6 04 12 00 	clz	r4,r11
80009b34:	c1 70       	breq	80009b62 <__avr32_f64_div_round_subnormal+0x96>
80009b36:	c0 c3       	brcs	80009b4e <__avr32_f64_div_round_subnormal+0x82>
80009b38:	e8 05 11 20 	rsub	r5,r4,32
80009b3c:	f6 04 09 4b 	lsl	r11,r11,r4
80009b40:	f4 05 0a 45 	lsr	r5,r10,r5
80009b44:	0a 4b       	or	r11,r5
80009b46:	f4 04 09 4a 	lsl	r10,r10,r4
80009b4a:	08 17       	sub	r7,r4
80009b4c:	c0 b8       	rjmp	80009b62 <__avr32_f64_div_round_subnormal+0x96>
80009b4e:	f4 04 12 00 	clz	r4,r10
80009b52:	f9 b4 03 00 	movlo	r4,0
80009b56:	f7 b4 02 e0 	subhs	r4,-32
80009b5a:	f4 04 09 4b 	lsl	r11,r10,r4
80009b5e:	30 0a       	mov	r10,0
80009b60:	08 17       	sub	r7,r4
80009b62:	a3 8a       	lsr	r10,0x2
80009b64:	f5 eb 11 ea 	or	r10,r10,r11<<0x1e
80009b68:	a3 8b       	lsr	r11,0x2
80009b6a:	c1 1b       	rjmp	8000998c <__avr32_f64_div+0x20>
80009b6c:	a3 79       	lsl	r9,0x3
80009b6e:	f3 e8 13 d9 	or	r9,r9,r8>>0x1d
80009b72:	a3 78       	lsl	r8,0x3
80009b74:	f3 e8 10 04 	or	r4,r9,r8
80009b78:	c6 f0       	breq	80009c56 <__avr32_f64_div_res_subnormal+0xa0>
80009b7a:	f2 04 12 00 	clz	r4,r9
80009b7e:	c1 70       	breq	80009bac <__avr32_f64_div_round_subnormal+0xe0>
80009b80:	c0 c3       	brcs	80009b98 <__avr32_f64_div_round_subnormal+0xcc>
80009b82:	e8 05 11 20 	rsub	r5,r4,32
80009b86:	f2 04 09 49 	lsl	r9,r9,r4
80009b8a:	f0 05 0a 45 	lsr	r5,r8,r5
80009b8e:	0a 49       	or	r9,r5
80009b90:	f0 04 09 48 	lsl	r8,r8,r4
80009b94:	08 16       	sub	r6,r4
80009b96:	c0 b8       	rjmp	80009bac <__avr32_f64_div_round_subnormal+0xe0>
80009b98:	f0 04 12 00 	clz	r4,r8
80009b9c:	f9 b4 03 00 	movlo	r4,0
80009ba0:	f7 b4 02 e0 	subhs	r4,-32
80009ba4:	f0 04 09 49 	lsl	r9,r8,r4
80009ba8:	30 08       	mov	r8,0
80009baa:	08 16       	sub	r6,r4
80009bac:	a3 88       	lsr	r8,0x2
80009bae:	f1 e9 11 e8 	or	r8,r8,r9<<0x1e
80009bb2:	a3 89       	lsr	r9,0x2
80009bb4:	cf ca       	rjmp	800099ac <__avr32_f64_div+0x40>

80009bb6 <__avr32_f64_div_res_subnormal>:
80009bb6:	5c 37       	neg	r7
80009bb8:	2f f7       	sub	r7,-1
80009bba:	f1 b7 04 c0 	satu	r7,0x6
80009bbe:	e0 47 00 20 	cp.w	r7,32
80009bc2:	c1 54       	brge	80009bec <__avr32_f64_div_res_subnormal+0x36>
80009bc4:	ee 06 11 20 	rsub	r6,r7,32
80009bc8:	e4 07 0a 42 	lsr	r2,r2,r7
80009bcc:	e6 06 09 4c 	lsl	r12,r3,r6
80009bd0:	18 42       	or	r2,r12
80009bd2:	e6 07 0a 43 	lsr	r3,r3,r7
80009bd6:	f4 06 09 41 	lsl	r1,r10,r6
80009bda:	f4 07 0a 4a 	lsr	r10,r10,r7
80009bde:	f6 06 09 4c 	lsl	r12,r11,r6
80009be2:	18 4a       	or	r10,r12
80009be4:	f6 07 0a 4b 	lsr	r11,r11,r7
80009be8:	30 00       	mov	r0,0
80009bea:	c1 58       	rjmp	80009c14 <__avr32_f64_div_res_subnormal+0x5e>
80009bec:	ee 06 11 20 	rsub	r6,r7,32
80009bf0:	f9 b0 00 00 	moveq	r0,0
80009bf4:	f9 bc 00 00 	moveq	r12,0
80009bf8:	c0 50       	breq	80009c02 <__avr32_f64_div_res_subnormal+0x4c>
80009bfa:	f4 06 09 40 	lsl	r0,r10,r6
80009bfe:	f6 06 09 4c 	lsl	r12,r11,r6
80009c02:	e6 07 0a 42 	lsr	r2,r3,r7
80009c06:	30 03       	mov	r3,0
80009c08:	f4 07 0a 41 	lsr	r1,r10,r7
80009c0c:	18 41       	or	r1,r12
80009c0e:	f6 07 0a 4a 	lsr	r10,r11,r7
80009c12:	30 0b       	mov	r11,0
80009c14:	e0 12 ff 00 	andl	r2,0xff00
80009c18:	e8 12 00 80 	orl	r2,0x80
80009c1c:	e6 08 06 46 	mulu.d	r6,r3,r8
80009c20:	e4 09 07 46 	macu.d	r6,r2,r9
80009c24:	e4 08 06 44 	mulu.d	r4,r2,r8
80009c28:	e6 09 06 48 	mulu.d	r8,r3,r9
80009c2c:	0c 05       	add	r5,r6
80009c2e:	f0 07 00 48 	adc	r8,r8,r7
80009c32:	5c 09       	acr	r9
80009c34:	30 07       	mov	r7,0
80009c36:	f9 d2 c1 01 	bfextu	r12,r2,0x8,0x1
80009c3a:	00 34       	cp.w	r4,r0
80009c3c:	e2 05 13 00 	cpc	r5,r1
80009c40:	c4 6b       	rjmp	80009acc <__avr32_f64_div_round_subnormal>
80009c42:	1c 9b       	mov	r11,lr
80009c44:	e6 1b 80 00 	andh	r11,0x8000,COH
80009c48:	30 0a       	mov	r10,0
80009c4a:	e3 cd 80 ff 	ldm	sp++,r0-r7,pc
80009c4e:	3f fb       	mov	r11,-1
80009c50:	30 0a       	mov	r10,0
80009c52:	e3 cd 80 ff 	ldm	sp++,r0-r7,pc
80009c56:	f5 eb 10 04 	or	r4,r10,r11
80009c5a:	c0 90       	breq	80009c6c <__avr32_f64_div_op1_zero>
80009c5c:	1c 9b       	mov	r11,lr
80009c5e:	e6 1b 80 00 	andh	r11,0x8000,COH
80009c62:	ea 1b 7f f0 	orh	r11,0x7ff0
80009c66:	30 0a       	mov	r10,0
80009c68:	e3 cd 80 ff 	ldm	sp++,r0-r7,pc

80009c6c <__avr32_f64_div_op1_zero>:
80009c6c:	f1 e9 10 15 	or	r5,r8,r9<<0x1
80009c70:	ce f0       	breq	80009c4e <__avr32_f64_div_res_subnormal+0x98>
80009c72:	e9 d9 c2 8b 	bfextu	r4,r9,0x14,0xb
80009c76:	e0 44 07 ff 	cp.w	r4,2047
80009c7a:	ce 41       	brne	80009c42 <__avr32_f64_div_res_subnormal+0x8c>
80009c7c:	f1 e9 10 c5 	or	r5,r8,r9<<0xc
80009c80:	ce 10       	breq	80009c42 <__avr32_f64_div_res_subnormal+0x8c>
80009c82:	ce 6b       	rjmp	80009c4e <__avr32_f64_div_res_subnormal+0x98>

80009c84 <__avr32_udiv64>:
80009c84:	d4 31       	pushm	r0-r7,lr
80009c86:	1a 97       	mov	r7,sp
80009c88:	20 3d       	sub	sp,12
80009c8a:	10 9c       	mov	r12,r8
80009c8c:	12 9e       	mov	lr,r9
80009c8e:	14 93       	mov	r3,r10
80009c90:	58 09       	cp.w	r9,0
80009c92:	e0 81 00 bd 	brne	80009e0c <__avr32_udiv64+0x188>
80009c96:	16 38       	cp.w	r8,r11
80009c98:	e0 88 00 40 	brls	80009d18 <__avr32_udiv64+0x94>
80009c9c:	f0 08 12 00 	clz	r8,r8
80009ca0:	c0 d0       	breq	80009cba <__avr32_udiv64+0x36>
80009ca2:	f6 08 09 4b 	lsl	r11,r11,r8
80009ca6:	f0 09 11 20 	rsub	r9,r8,32
80009caa:	f8 08 09 4c 	lsl	r12,r12,r8
80009cae:	f4 09 0a 49 	lsr	r9,r10,r9
80009cb2:	f4 08 09 43 	lsl	r3,r10,r8
80009cb6:	f3 eb 10 0b 	or	r11,r9,r11
80009cba:	f8 0e 16 10 	lsr	lr,r12,0x10
80009cbe:	f5 dc c0 10 	bfextu	r10,r12,0x0,0x10
80009cc2:	f6 0e 0d 00 	divu	r0,r11,lr
80009cc6:	e6 0b 16 10 	lsr	r11,r3,0x10
80009cca:	00 99       	mov	r9,r0
80009ccc:	f7 e1 11 0b 	or	r11,r11,r1<<0x10
80009cd0:	e0 0a 02 48 	mul	r8,r0,r10
80009cd4:	10 3b       	cp.w	r11,r8
80009cd6:	c0 a2       	brcc	80009cea <__avr32_udiv64+0x66>
80009cd8:	20 19       	sub	r9,1
80009cda:	18 0b       	add	r11,r12
80009cdc:	18 3b       	cp.w	r11,r12
80009cde:	c0 63       	brcs	80009cea <__avr32_udiv64+0x66>
80009ce0:	10 3b       	cp.w	r11,r8
80009ce2:	f7 b9 03 01 	sublo	r9,1
80009ce6:	f7 dc e3 0b 	addcs	r11,r11,r12
80009cea:	f6 08 01 01 	sub	r1,r11,r8
80009cee:	e7 d3 c0 10 	bfextu	r3,r3,0x0,0x10
80009cf2:	e2 0e 0d 00 	divu	r0,r1,lr
80009cf6:	e7 e1 11 03 	or	r3,r3,r1<<0x10
80009cfa:	00 98       	mov	r8,r0
80009cfc:	e0 0a 02 4a 	mul	r10,r0,r10
80009d00:	14 33       	cp.w	r3,r10
80009d02:	c0 82       	brcc	80009d12 <__avr32_udiv64+0x8e>
80009d04:	20 18       	sub	r8,1
80009d06:	18 03       	add	r3,r12
80009d08:	18 33       	cp.w	r3,r12
80009d0a:	c0 43       	brcs	80009d12 <__avr32_udiv64+0x8e>
80009d0c:	14 33       	cp.w	r3,r10
80009d0e:	f7 b8 03 01 	sublo	r8,1
80009d12:	f1 e9 11 08 	or	r8,r8,r9<<0x10
80009d16:	cd f8       	rjmp	80009ed4 <__avr32_udiv64+0x250>
80009d18:	58 08       	cp.w	r8,0
80009d1a:	c0 51       	brne	80009d24 <__avr32_udiv64+0xa0>
80009d1c:	30 19       	mov	r9,1
80009d1e:	f2 08 0d 08 	divu	r8,r9,r8
80009d22:	10 9c       	mov	r12,r8
80009d24:	f8 06 12 00 	clz	r6,r12
80009d28:	c0 41       	brne	80009d30 <__avr32_udiv64+0xac>
80009d2a:	18 1b       	sub	r11,r12
80009d2c:	30 19       	mov	r9,1
80009d2e:	c4 08       	rjmp	80009dae <__avr32_udiv64+0x12a>
80009d30:	ec 01 11 20 	rsub	r1,r6,32
80009d34:	f4 01 0a 49 	lsr	r9,r10,r1
80009d38:	f8 06 09 4c 	lsl	r12,r12,r6
80009d3c:	f6 06 09 48 	lsl	r8,r11,r6
80009d40:	f6 01 0a 41 	lsr	r1,r11,r1
80009d44:	f3 e8 10 08 	or	r8,r9,r8
80009d48:	f8 03 16 10 	lsr	r3,r12,0x10
80009d4c:	eb dc c0 10 	bfextu	r5,r12,0x0,0x10
80009d50:	e2 03 0d 00 	divu	r0,r1,r3
80009d54:	f0 0b 16 10 	lsr	r11,r8,0x10
80009d58:	00 9e       	mov	lr,r0
80009d5a:	f7 e1 11 0b 	or	r11,r11,r1<<0x10
80009d5e:	e0 05 02 49 	mul	r9,r0,r5
80009d62:	12 3b       	cp.w	r11,r9
80009d64:	c0 a2       	brcc	80009d78 <__avr32_udiv64+0xf4>
80009d66:	20 1e       	sub	lr,1
80009d68:	18 0b       	add	r11,r12
80009d6a:	18 3b       	cp.w	r11,r12
80009d6c:	c0 63       	brcs	80009d78 <__avr32_udiv64+0xf4>
80009d6e:	12 3b       	cp.w	r11,r9
80009d70:	f7 be 03 01 	sublo	lr,1
80009d74:	f7 dc e3 0b 	addcs	r11,r11,r12
80009d78:	12 1b       	sub	r11,r9
80009d7a:	f1 d8 c0 10 	bfextu	r8,r8,0x0,0x10
80009d7e:	f6 03 0d 02 	divu	r2,r11,r3
80009d82:	f1 e3 11 08 	or	r8,r8,r3<<0x10
80009d86:	04 99       	mov	r9,r2
80009d88:	e4 05 02 4b 	mul	r11,r2,r5
80009d8c:	16 38       	cp.w	r8,r11
80009d8e:	c0 a2       	brcc	80009da2 <__avr32_udiv64+0x11e>
80009d90:	20 19       	sub	r9,1
80009d92:	18 08       	add	r8,r12
80009d94:	18 38       	cp.w	r8,r12
80009d96:	c0 63       	brcs	80009da2 <__avr32_udiv64+0x11e>
80009d98:	16 38       	cp.w	r8,r11
80009d9a:	f7 b9 03 01 	sublo	r9,1
80009d9e:	f1 dc e3 08 	addcs	r8,r8,r12
80009da2:	f4 06 09 43 	lsl	r3,r10,r6
80009da6:	f0 0b 01 0b 	sub	r11,r8,r11
80009daa:	f3 ee 11 09 	or	r9,r9,lr<<0x10
80009dae:	f8 06 16 10 	lsr	r6,r12,0x10
80009db2:	fd dc c0 10 	bfextu	lr,r12,0x0,0x10
80009db6:	f6 06 0d 00 	divu	r0,r11,r6
80009dba:	e6 0b 16 10 	lsr	r11,r3,0x10
80009dbe:	00 9a       	mov	r10,r0
80009dc0:	f7 e1 11 0b 	or	r11,r11,r1<<0x10
80009dc4:	e0 0e 02 48 	mul	r8,r0,lr
80009dc8:	10 3b       	cp.w	r11,r8
80009dca:	c0 a2       	brcc	80009dde <__avr32_udiv64+0x15a>
80009dcc:	20 1a       	sub	r10,1
80009dce:	18 0b       	add	r11,r12
80009dd0:	18 3b       	cp.w	r11,r12
80009dd2:	c0 63       	brcs	80009dde <__avr32_udiv64+0x15a>
80009dd4:	10 3b       	cp.w	r11,r8
80009dd6:	f7 ba 03 01 	sublo	r10,1
80009dda:	f7 dc e3 0b 	addcs	r11,r11,r12
80009dde:	f6 08 01 01 	sub	r1,r11,r8
80009de2:	e7 d3 c0 10 	bfextu	r3,r3,0x0,0x10
80009de6:	e2 06 0d 00 	divu	r0,r1,r6
80009dea:	e7 e1 11 03 	or	r3,r3,r1<<0x10
80009dee:	00 98       	mov	r8,r0
80009df0:	e0 0e 02 4b 	mul	r11,r0,lr
80009df4:	16 33       	cp.w	r3,r11
80009df6:	c0 82       	brcc	80009e06 <__avr32_udiv64+0x182>
80009df8:	20 18       	sub	r8,1
80009dfa:	18 03       	add	r3,r12
80009dfc:	18 33       	cp.w	r3,r12
80009dfe:	c0 43       	brcs	80009e06 <__avr32_udiv64+0x182>
80009e00:	16 33       	cp.w	r3,r11
80009e02:	f7 b8 03 01 	sublo	r8,1
80009e06:	f1 ea 11 08 	or	r8,r8,r10<<0x10
80009e0a:	c6 98       	rjmp	80009edc <__avr32_udiv64+0x258>
80009e0c:	16 39       	cp.w	r9,r11
80009e0e:	e0 8b 00 65 	brhi	80009ed8 <__avr32_udiv64+0x254>
80009e12:	f2 09 12 00 	clz	r9,r9
80009e16:	c0 b1       	brne	80009e2c <__avr32_udiv64+0x1a8>
80009e18:	10 3a       	cp.w	r10,r8
80009e1a:	5f 2a       	srhs	r10
80009e1c:	1c 3b       	cp.w	r11,lr
80009e1e:	5f b8       	srhi	r8
80009e20:	10 4a       	or	r10,r8
80009e22:	f2 0a 18 00 	cp.b	r10,r9
80009e26:	c5 90       	breq	80009ed8 <__avr32_udiv64+0x254>
80009e28:	30 18       	mov	r8,1
80009e2a:	c5 98       	rjmp	80009edc <__avr32_udiv64+0x258>
80009e2c:	f0 09 09 46 	lsl	r6,r8,r9
80009e30:	f2 03 11 20 	rsub	r3,r9,32
80009e34:	fc 09 09 4e 	lsl	lr,lr,r9
80009e38:	f0 03 0a 48 	lsr	r8,r8,r3
80009e3c:	f6 09 09 4c 	lsl	r12,r11,r9
80009e40:	f4 03 0a 42 	lsr	r2,r10,r3
80009e44:	ef 46 ff f4 	st.w	r7[-12],r6
80009e48:	f6 03 0a 43 	lsr	r3,r11,r3
80009e4c:	18 42       	or	r2,r12
80009e4e:	f1 ee 10 0c 	or	r12,r8,lr
80009e52:	f8 01 16 10 	lsr	r1,r12,0x10
80009e56:	ed dc c0 10 	bfextu	r6,r12,0x0,0x10
80009e5a:	e6 01 0d 04 	divu	r4,r3,r1
80009e5e:	e4 03 16 10 	lsr	r3,r2,0x10
80009e62:	08 9e       	mov	lr,r4
80009e64:	e7 e5 11 03 	or	r3,r3,r5<<0x10
80009e68:	e8 06 02 48 	mul	r8,r4,r6
80009e6c:	10 33       	cp.w	r3,r8
80009e6e:	c0 a2       	brcc	80009e82 <__avr32_udiv64+0x1fe>
80009e70:	20 1e       	sub	lr,1
80009e72:	18 03       	add	r3,r12
80009e74:	18 33       	cp.w	r3,r12
80009e76:	c0 63       	brcs	80009e82 <__avr32_udiv64+0x1fe>
80009e78:	10 33       	cp.w	r3,r8
80009e7a:	f7 be 03 01 	sublo	lr,1
80009e7e:	e7 dc e3 03 	addcs	r3,r3,r12
80009e82:	10 13       	sub	r3,r8
80009e84:	f7 d2 c0 10 	bfextu	r11,r2,0x0,0x10
80009e88:	e6 01 0d 00 	divu	r0,r3,r1
80009e8c:	f7 e1 11 0b 	or	r11,r11,r1<<0x10
80009e90:	00 98       	mov	r8,r0
80009e92:	e0 06 02 46 	mul	r6,r0,r6
80009e96:	0c 3b       	cp.w	r11,r6
80009e98:	c0 a2       	brcc	80009eac <__avr32_udiv64+0x228>
80009e9a:	20 18       	sub	r8,1
80009e9c:	18 0b       	add	r11,r12
80009e9e:	18 3b       	cp.w	r11,r12
80009ea0:	c0 63       	brcs	80009eac <__avr32_udiv64+0x228>
80009ea2:	0c 3b       	cp.w	r11,r6
80009ea4:	f7 dc e3 0b 	addcs	r11,r11,r12
80009ea8:	f7 b8 03 01 	sublo	r8,1
80009eac:	f1 ee 11 08 	or	r8,r8,lr<<0x10
80009eb0:	ee f4 ff f4 	ld.w	r4,r7[-12]
80009eb4:	0c 1b       	sub	r11,r6
80009eb6:	f0 04 06 42 	mulu.d	r2,r8,r4
80009eba:	06 95       	mov	r5,r3
80009ebc:	16 35       	cp.w	r5,r11
80009ebe:	e0 8b 00 0a 	brhi	80009ed2 <__avr32_udiv64+0x24e>
80009ec2:	5f 0b       	sreq	r11
80009ec4:	f4 09 09 49 	lsl	r9,r10,r9
80009ec8:	12 32       	cp.w	r2,r9
80009eca:	5f b9       	srhi	r9
80009ecc:	f7 e9 00 09 	and	r9,r11,r9
80009ed0:	c0 60       	breq	80009edc <__avr32_udiv64+0x258>
80009ed2:	20 18       	sub	r8,1
80009ed4:	30 09       	mov	r9,0
80009ed6:	c0 38       	rjmp	80009edc <__avr32_udiv64+0x258>
80009ed8:	30 09       	mov	r9,0
80009eda:	12 98       	mov	r8,r9
80009edc:	10 9a       	mov	r10,r8
80009ede:	12 93       	mov	r3,r9
80009ee0:	10 92       	mov	r2,r8
80009ee2:	12 9b       	mov	r11,r9
80009ee4:	2f dd       	sub	sp,-12
80009ee6:	d8 32       	popm	r0-r7,pc

80009ee8 <__avr32_umod64>:
80009ee8:	d4 31       	pushm	r0-r7,lr
80009eea:	1a 97       	mov	r7,sp
80009eec:	20 3d       	sub	sp,12
80009eee:	10 9c       	mov	r12,r8
80009ef0:	12 95       	mov	r5,r9
80009ef2:	14 9e       	mov	lr,r10
80009ef4:	16 91       	mov	r1,r11
80009ef6:	16 96       	mov	r6,r11
80009ef8:	58 09       	cp.w	r9,0
80009efa:	e0 81 00 81 	brne	80009ffc <__avr32_umod64+0x114>
80009efe:	16 38       	cp.w	r8,r11
80009f00:	e0 88 00 12 	brls	80009f24 <__avr32_umod64+0x3c>
80009f04:	f0 08 12 00 	clz	r8,r8
80009f08:	c4 e0       	breq	80009fa4 <__avr32_umod64+0xbc>
80009f0a:	f6 08 09 46 	lsl	r6,r11,r8
80009f0e:	f8 08 09 4c 	lsl	r12,r12,r8
80009f12:	f0 0b 11 20 	rsub	r11,r8,32
80009f16:	f4 08 09 4e 	lsl	lr,r10,r8
80009f1a:	f4 0b 0a 4b 	lsr	r11,r10,r11
80009f1e:	f7 e6 10 06 	or	r6,r11,r6
80009f22:	c4 18       	rjmp	80009fa4 <__avr32_umod64+0xbc>
80009f24:	58 08       	cp.w	r8,0
80009f26:	c0 51       	brne	80009f30 <__avr32_umod64+0x48>
80009f28:	30 19       	mov	r9,1
80009f2a:	f2 08 0d 08 	divu	r8,r9,r8
80009f2e:	10 9c       	mov	r12,r8
80009f30:	f8 08 12 00 	clz	r8,r12
80009f34:	c0 31       	brne	80009f3a <__avr32_umod64+0x52>
80009f36:	18 16       	sub	r6,r12
80009f38:	c3 68       	rjmp	80009fa4 <__avr32_umod64+0xbc>
80009f3a:	f0 03 11 20 	rsub	r3,r8,32
80009f3e:	f4 03 0a 4b 	lsr	r11,r10,r3
80009f42:	f8 08 09 4c 	lsl	r12,r12,r8
80009f46:	ec 08 09 49 	lsl	r9,r6,r8
80009f4a:	ec 03 0a 43 	lsr	r3,r6,r3
80009f4e:	f7 e9 10 09 	or	r9,r11,r9
80009f52:	f8 05 16 10 	lsr	r5,r12,0x10
80009f56:	ed dc c0 10 	bfextu	r6,r12,0x0,0x10
80009f5a:	e6 05 0d 02 	divu	r2,r3,r5
80009f5e:	f2 0e 16 10 	lsr	lr,r9,0x10
80009f62:	ec 02 02 4b 	mul	r11,r6,r2
80009f66:	fd e3 11 0e 	or	lr,lr,r3<<0x10
80009f6a:	16 3e       	cp.w	lr,r11
80009f6c:	c0 72       	brcc	80009f7a <__avr32_umod64+0x92>
80009f6e:	18 0e       	add	lr,r12
80009f70:	18 3e       	cp.w	lr,r12
80009f72:	c0 43       	brcs	80009f7a <__avr32_umod64+0x92>
80009f74:	16 3e       	cp.w	lr,r11
80009f76:	fd dc e3 0e 	addcs	lr,lr,r12
80009f7a:	fc 0b 01 03 	sub	r3,lr,r11
80009f7e:	f3 d9 c0 10 	bfextu	r9,r9,0x0,0x10
80009f82:	e6 05 0d 02 	divu	r2,r3,r5
80009f86:	f3 e3 11 09 	or	r9,r9,r3<<0x10
80009f8a:	a5 36       	mul	r6,r2
80009f8c:	0c 39       	cp.w	r9,r6
80009f8e:	c0 72       	brcc	80009f9c <__avr32_umod64+0xb4>
80009f90:	18 09       	add	r9,r12
80009f92:	18 39       	cp.w	r9,r12
80009f94:	c0 43       	brcs	80009f9c <__avr32_umod64+0xb4>
80009f96:	0c 39       	cp.w	r9,r6
80009f98:	f3 dc e3 09 	addcs	r9,r9,r12
80009f9c:	f2 06 01 06 	sub	r6,r9,r6
80009fa0:	f4 08 09 4e 	lsl	lr,r10,r8
80009fa4:	f8 0a 16 10 	lsr	r10,r12,0x10
80009fa8:	eb dc c0 10 	bfextu	r5,r12,0x0,0x10
80009fac:	ec 0a 0d 02 	divu	r2,r6,r10
80009fb0:	fc 09 16 10 	lsr	r9,lr,0x10
80009fb4:	ea 02 02 4b 	mul	r11,r5,r2
80009fb8:	f3 e3 11 09 	or	r9,r9,r3<<0x10
80009fbc:	16 39       	cp.w	r9,r11
80009fbe:	c0 72       	brcc	80009fcc <__avr32_umod64+0xe4>
80009fc0:	18 09       	add	r9,r12
80009fc2:	18 39       	cp.w	r9,r12
80009fc4:	c0 43       	brcs	80009fcc <__avr32_umod64+0xe4>
80009fc6:	16 39       	cp.w	r9,r11
80009fc8:	f3 dc e3 09 	addcs	r9,r9,r12
80009fcc:	f2 0b 01 0b 	sub	r11,r9,r11
80009fd0:	fd de c0 10 	bfextu	lr,lr,0x0,0x10
80009fd4:	f6 0a 0d 0a 	divu	r10,r11,r10
80009fd8:	fd eb 11 0e 	or	lr,lr,r11<<0x10
80009fdc:	ea 0a 02 4a 	mul	r10,r5,r10
80009fe0:	14 3e       	cp.w	lr,r10
80009fe2:	c0 72       	brcc	80009ff0 <__avr32_umod64+0x108>
80009fe4:	18 0e       	add	lr,r12
80009fe6:	18 3e       	cp.w	lr,r12
80009fe8:	c0 43       	brcs	80009ff0 <__avr32_umod64+0x108>
80009fea:	14 3e       	cp.w	lr,r10
80009fec:	fd dc e3 0e 	addcs	lr,lr,r12
80009ff0:	fc 0a 01 0a 	sub	r10,lr,r10
80009ff4:	30 0b       	mov	r11,0
80009ff6:	f4 08 0a 4a 	lsr	r10,r10,r8
80009ffa:	c7 b8       	rjmp	8000a0f0 <__avr32_umod64+0x208>
80009ffc:	16 39       	cp.w	r9,r11
80009ffe:	e0 8b 00 79 	brhi	8000a0f0 <__avr32_umod64+0x208>
8000a002:	f2 09 12 00 	clz	r9,r9
8000a006:	c1 21       	brne	8000a02a <__avr32_umod64+0x142>
8000a008:	10 3a       	cp.w	r10,r8
8000a00a:	5f 2b       	srhs	r11
8000a00c:	0a 31       	cp.w	r1,r5
8000a00e:	5f ba       	srhi	r10
8000a010:	f7 ea 10 0a 	or	r10,r11,r10
8000a014:	f2 0a 18 00 	cp.b	r10,r9
8000a018:	c0 60       	breq	8000a024 <__avr32_umod64+0x13c>
8000a01a:	fc 08 01 0c 	sub	r12,lr,r8
8000a01e:	e2 05 01 46 	sbc	r6,r1,r5
8000a022:	18 9e       	mov	lr,r12
8000a024:	0c 9b       	mov	r11,r6
8000a026:	1c 9a       	mov	r10,lr
8000a028:	c6 48       	rjmp	8000a0f0 <__avr32_umod64+0x208>
8000a02a:	ea 09 09 4c 	lsl	r12,r5,r9
8000a02e:	f2 06 11 20 	rsub	r6,r9,32
8000a032:	f6 09 09 4b 	lsl	r11,r11,r9
8000a036:	f0 09 09 42 	lsl	r2,r8,r9
8000a03a:	ef 46 ff f4 	st.w	r7[-12],r6
8000a03e:	f0 06 0a 48 	lsr	r8,r8,r6
8000a042:	18 48       	or	r8,r12
8000a044:	e2 06 0a 4c 	lsr	r12,r1,r6
8000a048:	f4 09 09 43 	lsl	r3,r10,r9
8000a04c:	fd d8 c0 10 	bfextu	lr,r8,0x0,0x10
8000a050:	f4 06 0a 4a 	lsr	r10,r10,r6
8000a054:	16 4a       	or	r10,r11
8000a056:	f0 0b 16 10 	lsr	r11,r8,0x10
8000a05a:	f8 0b 0d 04 	divu	r4,r12,r11
8000a05e:	f4 0c 16 10 	lsr	r12,r10,0x10
8000a062:	08 91       	mov	r1,r4
8000a064:	f9 e5 11 0c 	or	r12,r12,r5<<0x10
8000a068:	e8 0e 02 46 	mul	r6,r4,lr
8000a06c:	0c 3c       	cp.w	r12,r6
8000a06e:	c0 a2       	brcc	8000a082 <__avr32_umod64+0x19a>
8000a070:	20 11       	sub	r1,1
8000a072:	10 0c       	add	r12,r8
8000a074:	10 3c       	cp.w	r12,r8
8000a076:	c0 63       	brcs	8000a082 <__avr32_umod64+0x19a>
8000a078:	0c 3c       	cp.w	r12,r6
8000a07a:	f7 b1 03 01 	sublo	r1,1
8000a07e:	f9 d8 e3 0c 	addcs	r12,r12,r8
8000a082:	0c 1c       	sub	r12,r6
8000a084:	f5 da c0 10 	bfextu	r10,r10,0x0,0x10
8000a088:	f8 0b 0d 04 	divu	r4,r12,r11
8000a08c:	f5 e5 11 0b 	or	r11,r10,r5<<0x10
8000a090:	08 96       	mov	r6,r4
8000a092:	e8 0e 02 4e 	mul	lr,r4,lr
8000a096:	1c 3b       	cp.w	r11,lr
8000a098:	c0 a2       	brcc	8000a0ac <__avr32_umod64+0x1c4>
8000a09a:	20 16       	sub	r6,1
8000a09c:	10 0b       	add	r11,r8
8000a09e:	10 3b       	cp.w	r11,r8
8000a0a0:	c0 63       	brcs	8000a0ac <__avr32_umod64+0x1c4>
8000a0a2:	1c 3b       	cp.w	r11,lr
8000a0a4:	f7 b6 03 01 	sublo	r6,1
8000a0a8:	f7 d8 e3 0b 	addcs	r11,r11,r8
8000a0ac:	ed e1 11 01 	or	r1,r6,r1<<0x10
8000a0b0:	1c 1b       	sub	r11,lr
8000a0b2:	e2 02 06 40 	mulu.d	r0,r1,r2
8000a0b6:	00 9e       	mov	lr,r0
8000a0b8:	02 9c       	mov	r12,r1
8000a0ba:	16 3c       	cp.w	r12,r11
8000a0bc:	e0 8b 00 08 	brhi	8000a0cc <__avr32_umod64+0x1e4>
8000a0c0:	5f 06       	sreq	r6
8000a0c2:	06 30       	cp.w	r0,r3
8000a0c4:	5f ba       	srhi	r10
8000a0c6:	ed ea 00 0a 	and	r10,r6,r10
8000a0ca:	c0 60       	breq	8000a0d6 <__avr32_umod64+0x1ee>
8000a0cc:	fc 02 01 04 	sub	r4,lr,r2
8000a0d0:	f8 08 01 4c 	sbc	r12,r12,r8
8000a0d4:	08 9e       	mov	lr,r4
8000a0d6:	e6 0e 01 0a 	sub	r10,r3,lr
8000a0da:	f6 0c 01 4c 	sbc	r12,r11,r12
8000a0de:	ee f1 ff f4 	ld.w	r1,r7[-12]
8000a0e2:	f8 09 0a 4b 	lsr	r11,r12,r9
8000a0e6:	f4 09 0a 4a 	lsr	r10,r10,r9
8000a0ea:	f8 01 09 4c 	lsl	r12,r12,r1
8000a0ee:	18 4a       	or	r10,r12
8000a0f0:	2f dd       	sub	sp,-12
8000a0f2:	d8 32       	popm	r0-r7,pc

Disassembly of section .gcc_except_table:

8000a770 <_data+0x8000a76c>:
	...

8000b000 <_evba>:
8000b000:	e0 8f 00 88 	bral	8000b110 <_handle_Unrecoverable_Exception>
8000b004:	e0 8f 00 8a 	bral	8000b118 <_handle_TLB_Multiple_Hit>
8000b008:	e0 8f 00 8c 	bral	8000b120 <_handle_Bus_Error_Data_Fetch>
8000b00c:	e0 8f 00 8e 	bral	8000b128 <_handle_Bus_Error_Instruction_Fetch>
8000b010:	e0 8f 00 90 	bral	8000b130 <_handle_NMI>
8000b014:	e0 8f 00 92 	bral	8000b138 <_handle_Instruction_Address>
8000b018:	e0 8f 00 94 	bral	8000b140 <_handle_ITLB_Protection>
8000b01c:	e0 8f 00 96 	bral	8000b148 <_handle_Breakpoint>
8000b020:	e0 8f 00 98 	bral	8000b150 <_handle_Illegal_Opcode>
8000b024:	e0 8f 00 9a 	bral	8000b158 <_handle_Unimplemented_Instruction>
8000b028:	e0 8f 00 9c 	bral	8000b160 <_handle_Privilege_Violation>
8000b02c:	e0 8f 00 9e 	bral	8000b168 <_handle_Floating_Point>
8000b030:	e0 8f 00 a0 	bral	8000b170 <_handle_Coprocessor_Absent>
8000b034:	e0 8f 00 a2 	bral	8000b178 <_handle_Data_Address_Read>
8000b038:	e0 8f 00 a4 	bral	8000b180 <_handle_Data_Address_Write>
8000b03c:	e0 8f 00 a6 	bral	8000b188 <_handle_DTLB_Protection_Read>
8000b040:	e0 8f 00 a8 	bral	8000b190 <_handle_DTLB_Protection_Write>
8000b044:	e0 8f 00 aa 	bral	8000b198 <_handle_DTLB_Modified>
	...
8000b050:	e0 8f 00 a8 	bral	8000b1a0 <_handle_ITLB_Miss>
	...
8000b060:	e0 8f 00 a4 	bral	8000b1a8 <_handle_DTLB_Miss_Read>
	...
8000b070:	e0 8f 00 a0 	bral	8000b1b0 <_handle_DTLB_Miss_Write>
	...
8000b100:	e0 8f 00 5c 	bral	8000b1b8 <_handle_Supervisor_Call>
	...

8000b110 <_handle_Unrecoverable_Exception>:
8000b110:	d1 01       	pushm	r11
8000b112:	30 0b       	mov	r11,0
8000b114:	e0 8f 00 d5 	bral	8000b2be <__unhandled_exception>

8000b118 <_handle_TLB_Multiple_Hit>:
8000b118:	d1 01       	pushm	r11
8000b11a:	30 4b       	mov	r11,4
8000b11c:	e0 8f 00 d1 	bral	8000b2be <__unhandled_exception>

8000b120 <_handle_Bus_Error_Data_Fetch>:
8000b120:	d1 01       	pushm	r11
8000b122:	30 8b       	mov	r11,8
8000b124:	e0 8f 00 cd 	bral	8000b2be <__unhandled_exception>

8000b128 <_handle_Bus_Error_Instruction_Fetch>:
8000b128:	d1 01       	pushm	r11
8000b12a:	30 cb       	mov	r11,12
8000b12c:	e0 8f 00 c9 	bral	8000b2be <__unhandled_exception>

8000b130 <_handle_NMI>:
8000b130:	d1 01       	pushm	r11
8000b132:	31 0b       	mov	r11,16
8000b134:	e0 8f 00 c5 	bral	8000b2be <__unhandled_exception>

8000b138 <_handle_Instruction_Address>:
8000b138:	d1 01       	pushm	r11
8000b13a:	31 4b       	mov	r11,20
8000b13c:	e0 8f 00 c1 	bral	8000b2be <__unhandled_exception>

8000b140 <_handle_ITLB_Protection>:
8000b140:	d1 01       	pushm	r11
8000b142:	31 8b       	mov	r11,24
8000b144:	e0 8f 00 bd 	bral	8000b2be <__unhandled_exception>

8000b148 <_handle_Breakpoint>:
8000b148:	d1 01       	pushm	r11
8000b14a:	31 cb       	mov	r11,28
8000b14c:	e0 8f 00 b9 	bral	8000b2be <__unhandled_exception>

8000b150 <_handle_Illegal_Opcode>:
8000b150:	d1 01       	pushm	r11
8000b152:	32 0b       	mov	r11,32
8000b154:	e0 8f 00 b5 	bral	8000b2be <__unhandled_exception>

8000b158 <_handle_Unimplemented_Instruction>:
8000b158:	d1 01       	pushm	r11
8000b15a:	32 4b       	mov	r11,36
8000b15c:	e0 8f 00 b1 	bral	8000b2be <__unhandled_exception>

8000b160 <_handle_Privilege_Violation>:
8000b160:	d1 01       	pushm	r11
8000b162:	32 8b       	mov	r11,40
8000b164:	e0 8f 00 ad 	bral	8000b2be <__unhandled_exception>

8000b168 <_handle_Floating_Point>:
8000b168:	d1 01       	pushm	r11
8000b16a:	32 cb       	mov	r11,44
8000b16c:	e0 8f 00 a9 	bral	8000b2be <__unhandled_exception>

8000b170 <_handle_Coprocessor_Absent>:
8000b170:	d1 01       	pushm	r11
8000b172:	33 0b       	mov	r11,48
8000b174:	e0 8f 00 a5 	bral	8000b2be <__unhandled_exception>

8000b178 <_handle_Data_Address_Read>:
8000b178:	d1 01       	pushm	r11
8000b17a:	33 4b       	mov	r11,52
8000b17c:	e0 8f 00 a1 	bral	8000b2be <__unhandled_exception>

8000b180 <_handle_Data_Address_Write>:
8000b180:	d1 01       	pushm	r11
8000b182:	33 8b       	mov	r11,56
8000b184:	e0 8f 00 9d 	bral	8000b2be <__unhandled_exception>

8000b188 <_handle_DTLB_Protection_Read>:
8000b188:	d1 01       	pushm	r11
8000b18a:	33 cb       	mov	r11,60
8000b18c:	e0 8f 00 99 	bral	8000b2be <__unhandled_exception>

8000b190 <_handle_DTLB_Protection_Write>:
8000b190:	d1 01       	pushm	r11
8000b192:	34 0b       	mov	r11,64
8000b194:	e0 8f 00 95 	bral	8000b2be <__unhandled_exception>

8000b198 <_handle_DTLB_Modified>:
8000b198:	d1 01       	pushm	r11
8000b19a:	34 4b       	mov	r11,68
8000b19c:	e0 8f 00 91 	bral	8000b2be <__unhandled_exception>

8000b1a0 <_handle_ITLB_Miss>:
8000b1a0:	d1 01       	pushm	r11
8000b1a2:	35 0b       	mov	r11,80
8000b1a4:	e0 8f 00 8d 	bral	8000b2be <__unhandled_exception>

8000b1a8 <_handle_DTLB_Miss_Read>:
8000b1a8:	d1 01       	pushm	r11
8000b1aa:	36 0b       	mov	r11,96
8000b1ac:	e0 8f 00 89 	bral	8000b2be <__unhandled_exception>

8000b1b0 <_handle_DTLB_Miss_Write>:
8000b1b0:	d1 01       	pushm	r11
8000b1b2:	37 0b       	mov	r11,112
8000b1b4:	e0 8f 00 85 	bral	8000b2be <__unhandled_exception>

8000b1b8 <_handle_Supervisor_Call>:
8000b1b8:	fe ff 00 04 	ld.w	pc,pc[4]

8000b1bc <__OSCtxSw>:
8000b1bc:	80 00       	ld.sh	r0,r0[0x0]
8000b1be:	2c 9c       	sub	r12,-55

8000b1c0 <OSIntPrioReg>:
8000b1c0:	00 00       	add	r0,r0
8000b1c2:	01 e0       	ld.ub	r0,r0[0x6]
8000b1c4:	00 00       	add	r0,r0
8000b1c6:	02 00       	add	r0,r1
8000b1c8:	00 00       	add	r0,r0
8000b1ca:	02 20       	rsub	r0,r1
8000b1cc:	00 00       	add	r0,r0
8000b1ce:	02 40       	or	r0,r1
8000b1d0:	00 00       	add	r0,r0
8000b1d2:	02 60       	and	r0,r1
8000b1d4:	00 00       	add	r0,r0
8000b1d6:	02 74       	tst	r4,r1
8000b1d8:	00 00       	add	r0,r0
8000b1da:	02 88       	andn	r8,r1
8000b1dc:	00 00       	add	r0,r0
8000b1de:	02 9c       	mov	r12,r1

8000b1e0 <Int0>:
8000b1e0:	d3 03       	ssrf	0x10
8000b1e2:	d7 03       	nop
8000b1e4:	d7 03       	nop
8000b1e6:	e1 bc 00 00 	mfsr	r12,0x0
8000b1ea:	f9 dc c2 c3 	bfextu	r12,r12,0x16,0x3
8000b1ee:	58 6c       	cp.w	r12,6
8000b1f0:	c6 02       	brcc	8000b2b0 <__exception_stack>
8000b1f2:	30 0c       	mov	r12,0
8000b1f4:	fe b0 bc 06 	rcall	80002a00 <BSP_INTC_IntGetHandler>
8000b1f8:	58 0c       	cp.w	r12,0
8000b1fa:	fe 91 bd 94 	brne	80002d22 <OSIntISRHandler>
8000b1fe:	d6 03       	rete

8000b200 <Int1>:
8000b200:	d3 03       	ssrf	0x10
8000b202:	d7 03       	nop
8000b204:	d7 03       	nop
8000b206:	e1 bc 00 00 	mfsr	r12,0x0
8000b20a:	f9 dc c2 c3 	bfextu	r12,r12,0x16,0x3
8000b20e:	58 6c       	cp.w	r12,6
8000b210:	c5 02       	brcc	8000b2b0 <__exception_stack>
8000b212:	30 1c       	mov	r12,1
8000b214:	fe b0 bb f6 	rcall	80002a00 <BSP_INTC_IntGetHandler>
8000b218:	58 0c       	cp.w	r12,0
8000b21a:	fe 91 bd 84 	brne	80002d22 <OSIntISRHandler>
8000b21e:	d6 03       	rete

8000b220 <Int2>:
8000b220:	d3 03       	ssrf	0x10
8000b222:	d7 03       	nop
8000b224:	d7 03       	nop
8000b226:	e1 bc 00 00 	mfsr	r12,0x0
8000b22a:	f9 dc c2 c3 	bfextu	r12,r12,0x16,0x3
8000b22e:	58 6c       	cp.w	r12,6
8000b230:	c4 02       	brcc	8000b2b0 <__exception_stack>
8000b232:	30 2c       	mov	r12,2
8000b234:	fe b0 bb e6 	rcall	80002a00 <BSP_INTC_IntGetHandler>
8000b238:	58 0c       	cp.w	r12,0
8000b23a:	fe 91 bd 74 	brne	80002d22 <OSIntISRHandler>
8000b23e:	d6 03       	rete

8000b240 <Int3>:
8000b240:	d3 03       	ssrf	0x10
8000b242:	d7 03       	nop
8000b244:	d7 03       	nop
8000b246:	e1 bc 00 00 	mfsr	r12,0x0
8000b24a:	f9 dc c2 c3 	bfextu	r12,r12,0x16,0x3
8000b24e:	58 6c       	cp.w	r12,6
8000b250:	c3 02       	brcc	8000b2b0 <__exception_stack>
8000b252:	30 3c       	mov	r12,3
8000b254:	fe b0 bb d6 	rcall	80002a00 <BSP_INTC_IntGetHandler>
8000b258:	58 0c       	cp.w	r12,0
8000b25a:	fe 91 bd 64 	brne	80002d22 <OSIntISRHandler>
8000b25e:	d6 03       	rete

8000b260 <IntF0>:
8000b260:	d3 03       	ssrf	0x10
8000b262:	d7 03       	nop
8000b264:	d7 03       	nop
8000b266:	30 0c       	mov	r12,0
8000b268:	fe b0 bb cc 	rcall	80002a00 <BSP_INTC_IntGetHandler>
8000b26c:	58 0c       	cp.w	r12,0
8000b26e:	fe 91 bd 70 	brne	80002d4e <OSFastIntISRHandler>
8000b272:	d6 03       	rete

8000b274 <IntF1>:
8000b274:	d3 03       	ssrf	0x10
8000b276:	d7 03       	nop
8000b278:	d7 03       	nop
8000b27a:	30 1c       	mov	r12,1
8000b27c:	fe b0 bb c2 	rcall	80002a00 <BSP_INTC_IntGetHandler>
8000b280:	58 0c       	cp.w	r12,0
8000b282:	fe 91 bd 66 	brne	80002d4e <OSFastIntISRHandler>
8000b286:	d6 03       	rete

8000b288 <IntF2>:
8000b288:	d3 03       	ssrf	0x10
8000b28a:	d7 03       	nop
8000b28c:	d7 03       	nop
8000b28e:	30 2c       	mov	r12,2
8000b290:	fe b0 bb b8 	rcall	80002a00 <BSP_INTC_IntGetHandler>
8000b294:	58 0c       	cp.w	r12,0
8000b296:	fe 91 bd 5c 	brne	80002d4e <OSFastIntISRHandler>
8000b29a:	d6 03       	rete

8000b29c <IntF3>:
8000b29c:	d3 03       	ssrf	0x10
8000b29e:	d7 03       	nop
8000b2a0:	d7 03       	nop
8000b2a2:	30 3c       	mov	r12,3
8000b2a4:	fe b0 bb ae 	rcall	80002a00 <BSP_INTC_IntGetHandler>
8000b2a8:	58 0c       	cp.w	r12,0
8000b2aa:	fe 91 bd 52 	brne	80002d4e <OSFastIntISRHandler>
8000b2ae:	d6 03       	rete

8000b2b0 <__exception_stack>:
8000b2b0:	40 0c       	lddsp	r12,sp[0x0]
8000b2b2:	50 6c       	stdsp	sp[0x18],r12
8000b2b4:	40 1c       	lddsp	r12,sp[0x4]
8000b2b6:	50 7c       	stdsp	sp[0x1c],r12
8000b2b8:	40 3c       	lddsp	r12,sp[0xc]
8000b2ba:	2f ad       	sub	sp,-24
8000b2bc:	d6 03       	rete

8000b2be <__unhandled_exception>:
8000b2be:	e0 8f 00 00 	bral	8000b2be <__unhandled_exception>
8000b2c2:	d1 02       	popm	r11
8000b2c4:	d6 03       	rete
	...
